
Discarded input sections

 .text          0x0000000000000000        0x0 build/samus/RW/board/samus/board.o
 .ARM.attributes
                0x0000000000000000       0x37 build/samus/RW/board/samus/board.o
 .text          0x0000000000000000        0x0 build/samus/RW/board/samus/extpower.o
 .ARM.attributes
                0x0000000000000000       0x37 build/samus/RW/board/samus/extpower.o
 .text          0x0000000000000000        0x0 build/samus/RW/board/samus/panel.o
 .data          0x0000000000000000        0x0 build/samus/RW/board/samus/panel.o
 .bss           0x0000000000000000        0x0 build/samus/RW/board/samus/panel.o
 .ARM.attributes
                0x0000000000000000       0x37 build/samus/RW/board/samus/panel.o
 .text          0x0000000000000000        0x0 build/samus/RW/board/samus/power_sequence.o
 .data          0x0000000000000000        0x0 build/samus/RW/board/samus/power_sequence.o
 .ARM.attributes
                0x0000000000000000       0x37 build/samus/RW/board/samus/power_sequence.o
 .text          0x0000000000000000        0x0 build/samus/RW/chip/lm4/adc.o
 .data          0x0000000000000000        0x0 build/samus/RW/chip/lm4/adc.o
 .ARM.attributes
                0x0000000000000000       0x37 build/samus/RW/chip/lm4/adc.o
 .text          0x0000000000000000        0x0 build/samus/RW/chip/lm4/chip_temp_sensor.o
 .bss           0x0000000000000000        0x0 build/samus/RW/chip/lm4/chip_temp_sensor.o
 .ARM.attributes
                0x0000000000000000       0x37 build/samus/RW/chip/lm4/chip_temp_sensor.o
 .text          0x0000000000000000        0x0 build/samus/RW/chip/lm4/clock.o
 .ARM.attributes
                0x0000000000000000       0x37 build/samus/RW/chip/lm4/clock.o
 .text          0x0000000000000000        0x0 build/samus/RW/chip/lm4/fan.o
 .data          0x0000000000000000        0x0 build/samus/RW/chip/lm4/fan.o
 .bss           0x0000000000000000        0x0 build/samus/RW/chip/lm4/fan.o
 .ARM.attributes
                0x0000000000000000       0x37 build/samus/RW/chip/lm4/fan.o
 .text          0x0000000000000000        0x0 build/samus/RW/chip/lm4/flash.o
 .data          0x0000000000000000        0x0 build/samus/RW/chip/lm4/flash.o
 .ARM.attributes
                0x0000000000000000       0x37 build/samus/RW/chip/lm4/flash.o
 .text          0x0000000000000000        0x0 build/samus/RW/chip/lm4/gpio.o
 .data          0x0000000000000000        0x0 build/samus/RW/chip/lm4/gpio.o
 .bss           0x0000000000000000        0x0 build/samus/RW/chip/lm4/gpio.o
 .ARM.attributes
                0x0000000000000000       0x37 build/samus/RW/chip/lm4/gpio.o
 .text          0x0000000000000000        0x0 build/samus/RW/chip/lm4/hwtimer.o
 .data          0x0000000000000000        0x0 build/samus/RW/chip/lm4/hwtimer.o
 .bss           0x0000000000000000        0x0 build/samus/RW/chip/lm4/hwtimer.o
 .ARM.attributes
                0x0000000000000000       0x37 build/samus/RW/chip/lm4/hwtimer.o
 .text          0x0000000000000000        0x0 build/samus/RW/chip/lm4/i2c.o
 .data          0x0000000000000000        0x0 build/samus/RW/chip/lm4/i2c.o
 .text.i2c_is_busy
                0x0000000000000000       0x10 build/samus/RW/chip/lm4/i2c.o
 .ARM.attributes
                0x0000000000000000       0x37 build/samus/RW/chip/lm4/i2c.o
 .text          0x0000000000000000        0x0 build/samus/RW/chip/lm4/jtag.o
 .data          0x0000000000000000        0x0 build/samus/RW/chip/lm4/jtag.o
 .bss           0x0000000000000000        0x0 build/samus/RW/chip/lm4/jtag.o
 .ARM.attributes
                0x0000000000000000       0x37 build/samus/RW/chip/lm4/jtag.o
 .text          0x0000000000000000        0x0 build/samus/RW/chip/lm4/keyboard_raw.o
 .data          0x0000000000000000        0x0 build/samus/RW/chip/lm4/keyboard_raw.o
 .bss           0x0000000000000000        0x0 build/samus/RW/chip/lm4/keyboard_raw.o
 .ARM.attributes
                0x0000000000000000       0x37 build/samus/RW/chip/lm4/keyboard_raw.o
 .text          0x0000000000000000        0x0 build/samus/RW/chip/lm4/lpc.o
 .data          0x0000000000000000        0x0 build/samus/RW/chip/lm4/lpc.o
 .text.lpc_enable_acpi_interrupts
                0x0000000000000000       0x10 build/samus/RW/chip/lm4/lpc.o
 .text.lpc_disable_acpi_interrupts
                0x0000000000000000       0x10 build/samus/RW/chip/lm4/lpc.o
 .ARM.attributes
                0x0000000000000000       0x37 build/samus/RW/chip/lm4/lpc.o
 .text          0x0000000000000000        0x0 build/samus/RW/chip/lm4/peci.o
 .data          0x0000000000000000        0x0 build/samus/RW/chip/lm4/peci.o
 .ARM.attributes
                0x0000000000000000       0x37 build/samus/RW/chip/lm4/peci.o
 .text          0x0000000000000000        0x0 build/samus/RW/chip/lm4/pwm.o
 .data          0x0000000000000000        0x0 build/samus/RW/chip/lm4/pwm.o
 .bss           0x0000000000000000        0x0 build/samus/RW/chip/lm4/pwm.o
 .ARM.attributes
                0x0000000000000000       0x37 build/samus/RW/chip/lm4/pwm.o
 .text          0x0000000000000000        0x0 build/samus/RW/chip/lm4/system.o
 .text.system_set_scratchpad
                0x0000000000000000        0x8 build/samus/RW/chip/lm4/system.o
 .text.system_get_scratchpad
                0x0000000000000000        0xc build/samus/RW/chip/lm4/system.o
 .ARM.attributes
                0x0000000000000000       0x37 build/samus/RW/chip/lm4/system.o
 .text          0x0000000000000000        0x0 build/samus/RW/chip/lm4/uart.o
 .data          0x0000000000000000        0x0 build/samus/RW/chip/lm4/uart.o
 .text.uart_disable_interrupt
                0x0000000000000000        0x6 build/samus/RW/chip/lm4/uart.o
 .text.uart_enable_interrupt
                0x0000000000000000        0x6 build/samus/RW/chip/lm4/uart.o
 .ARM.attributes
                0x0000000000000000       0x37 build/samus/RW/chip/lm4/uart.o
 .text          0x0000000000000000        0x0 build/samus/RW/chip/lm4/watchdog.o
 .data          0x0000000000000000        0x0 build/samus/RW/chip/lm4/watchdog.o
 .ARM.attributes
                0x0000000000000000       0x37 build/samus/RW/chip/lm4/watchdog.o
 .text          0x0000000000000000        0x0 build/samus/RW/common/acpi.o
 .data          0x0000000000000000        0x0 build/samus/RW/common/acpi.o
 .ARM.attributes
                0x0000000000000000       0x37 build/samus/RW/common/acpi.o
 .text          0x0000000000000000        0x0 build/samus/RW/common/adc.o
 .data          0x0000000000000000        0x0 build/samus/RW/common/adc.o
 .bss           0x0000000000000000        0x0 build/samus/RW/common/adc.o
 .ARM.attributes
                0x0000000000000000       0x37 build/samus/RW/common/adc.o
 .text          0x0000000000000000        0x0 build/samus/RW/common/als.o
 .bss           0x0000000000000000        0x0 build/samus/RW/common/als.o
 .ARM.attributes
                0x0000000000000000       0x37 build/samus/RW/common/als.o
 .text          0x0000000000000000        0x0 build/samus/RW/common/battery.o
 .data          0x0000000000000000        0x0 build/samus/RW/common/battery.o
 .ARM.attributes
                0x0000000000000000       0x37 build/samus/RW/common/battery.o
 .text          0x0000000000000000        0x0 build/samus/RW/common/charge_state_v2.o
 .ARM.attributes
                0x0000000000000000       0x37 build/samus/RW/common/charge_state_v2.o
 .text          0x0000000000000000        0x0 build/samus/RW/common/charger.o
 .bss           0x0000000000000000        0x0 build/samus/RW/common/charger.o
 .ARM.attributes
                0x0000000000000000       0x37 build/samus/RW/common/charger.o
 .text          0x0000000000000000        0x0 build/samus/RW/common/chipset.o
 .data          0x0000000000000000        0x0 build/samus/RW/common/chipset.o
 .bss           0x0000000000000000        0x0 build/samus/RW/common/chipset.o
 .ARM.attributes
                0x0000000000000000       0x37 build/samus/RW/common/chipset.o
 .text          0x0000000000000000        0x0 build/samus/RW/common/console.o
 .data          0x0000000000000000        0x0 build/samus/RW/common/console.o
 .ARM.attributes
                0x0000000000000000       0x37 build/samus/RW/common/console.o
 .text          0x0000000000000000        0x0 build/samus/RW/common/console_output.o
 .text.ucd_lb_queue_pop
                0x0000000000000000       0x1c build/samus/RW/common/console_output.o
 .ARM.attributes
                0x0000000000000000       0x37 build/samus/RW/common/console_output.o
 .text          0x0000000000000000        0x0 build/samus/RW/common/fan.o
 .data          0x0000000000000000        0x0 build/samus/RW/common/fan.o
 .ARM.attributes
                0x0000000000000000       0x37 build/samus/RW/common/fan.o
 .text          0x0000000000000000        0x0 build/samus/RW/common/flash.o
 .data          0x0000000000000000        0x0 build/samus/RW/common/flash.o
 .bss           0x0000000000000000        0x0 build/samus/RW/common/flash.o
 .ARM.attributes
                0x0000000000000000       0x37 build/samus/RW/common/flash.o
 .text          0x0000000000000000        0x0 build/samus/RW/common/fmap.o
 .data          0x0000000000000000        0x0 build/samus/RW/common/fmap.o
 .bss           0x0000000000000000        0x0 build/samus/RW/common/fmap.o
 .google        0x0000000000000000      0x15e build/samus/RW/common/fmap.o
 .debug_info    0x0000000000000000      0x230 build/samus/RW/common/fmap.o
 .debug_abbrev  0x0000000000000000       0xa0 build/samus/RW/common/fmap.o
 .debug_aranges
                0x0000000000000000       0x18 build/samus/RW/common/fmap.o
 .debug_line    0x0000000000000000       0xff build/samus/RW/common/fmap.o
 .debug_str     0x0000000000000000      0x369 build/samus/RW/common/fmap.o
 .comment       0x0000000000000000       0x4b build/samus/RW/common/fmap.o
 .ARM.attributes
                0x0000000000000000       0x37 build/samus/RW/common/fmap.o
 .text          0x0000000000000000        0x0 build/samus/RW/common/gesture.o
 .data          0x0000000000000000        0x0 build/samus/RW/common/gesture.o
 .ARM.attributes
                0x0000000000000000       0x37 build/samus/RW/common/gesture.o
 .text          0x0000000000000000        0x0 build/samus/RW/common/gpio.o
 .data          0x0000000000000000        0x0 build/samus/RW/common/gpio.o
 .text.gpio_get_name
                0x0000000000000000        0xc build/samus/RW/common/gpio.o
 .ARM.attributes
                0x0000000000000000       0x37 build/samus/RW/common/gpio.o
 .text          0x0000000000000000        0x0 build/samus/RW/common/hooks.o
 .ARM.attributes
                0x0000000000000000       0x37 build/samus/RW/common/hooks.o
 .text          0x0000000000000000        0x0 build/samus/RW/common/host_command.o
 .text.host_get_vboot_mode
                0x0000000000000000        0xc build/samus/RW/common/host_command.o
 .text.host_request_expected_size
                0x0000000000000000       0x1a build/samus/RW/common/host_command.o
 .ARM.attributes
                0x0000000000000000       0x37 build/samus/RW/common/host_command.o
 .text          0x0000000000000000        0x0 build/samus/RW/common/host_command_master.o
 .data          0x0000000000000000        0x0 build/samus/RW/common/host_command_master.o
 .ARM.attributes
                0x0000000000000000       0x37 build/samus/RW/common/host_command_master.o
 .text          0x0000000000000000        0x0 build/samus/RW/common/host_command_pd.o
 .text.host_command_pd_request_hibernate
                0x0000000000000000        0xa build/samus/RW/common/host_command_pd.o
 .ARM.attributes
                0x0000000000000000       0x37 build/samus/RW/common/host_command_pd.o
 .text          0x0000000000000000        0x0 build/samus/RW/common/host_event_commands.o
 .data          0x0000000000000000        0x0 build/samus/RW/common/host_event_commands.o
 .ARM.attributes
                0x0000000000000000       0x37 build/samus/RW/common/host_event_commands.o
 .text          0x0000000000000000        0x0 build/samus/RW/common/i2c.o
 .data          0x0000000000000000        0x0 build/samus/RW/common/i2c.o
 .text.i2c_read32
                0x0000000000000000       0x74 build/samus/RW/common/i2c.o
 .text.i2c_write32
                0x0000000000000000       0x70 build/samus/RW/common/i2c.o
 .ARM.attributes
                0x0000000000000000       0x37 build/samus/RW/common/i2c.o
 .text          0x0000000000000000        0x0 build/samus/RW/common/keyboard_8042.o
 .ARM.attributes
                0x0000000000000000       0x37 build/samus/RW/common/keyboard_8042.o
 .text          0x0000000000000000        0x0 build/samus/RW/common/keyboard_8042_sharedlib.o
 .data          0x0000000000000000        0x0 build/samus/RW/common/keyboard_8042_sharedlib.o
 .bss           0x0000000000000000        0x0 build/samus/RW/common/keyboard_8042_sharedlib.o
 .ARM.attributes
                0x0000000000000000       0x37 build/samus/RW/common/keyboard_8042_sharedlib.o
 .text          0x0000000000000000        0x0 build/samus/RW/common/keyboard_scan.o
 .text.keyboard_scan_get_config
                0x0000000000000000        0x8 build/samus/RW/common/keyboard_scan.o
 .text.keyboard_scan_get_state
                0x0000000000000000        0x8 build/samus/RW/common/keyboard_scan.o
 .ARM.attributes
                0x0000000000000000       0x37 build/samus/RW/common/keyboard_scan.o
 .text          0x0000000000000000        0x0 build/samus/RW/common/lb_common.o
 .ARM.attributes
                0x0000000000000000       0x37 build/samus/RW/common/lb_common.o
 .text          0x0000000000000000        0x0 build/samus/RW/common/lid_switch.o
 .data          0x0000000000000000        0x0 build/samus/RW/common/lid_switch.o
 .ARM.attributes
                0x0000000000000000       0x37 build/samus/RW/common/lid_switch.o
 .text          0x0000000000000000        0x0 build/samus/RW/common/lightbar.o
 .ARM.attributes
                0x0000000000000000       0x37 build/samus/RW/common/lightbar.o
 .text          0x0000000000000000        0x0 build/samus/RW/common/main.o
 .data          0x0000000000000000        0x0 build/samus/RW/common/main.o
 .bss           0x0000000000000000        0x0 build/samus/RW/common/main.o
 .ARM.attributes
                0x0000000000000000       0x37 build/samus/RW/common/main.o
 .text          0x0000000000000000        0x0 build/samus/RW/common/math_util.o
 .data          0x0000000000000000        0x0 build/samus/RW/common/math_util.o
 .bss           0x0000000000000000        0x0 build/samus/RW/common/math_util.o
 .text.rotate_inv
                0x0000000000000000       0xec build/samus/RW/common/math_util.o
 .ARM.attributes
                0x0000000000000000       0x37 build/samus/RW/common/math_util.o
 .text          0x0000000000000000        0x0 build/samus/RW/common/memory_commands.o
 .data          0x0000000000000000        0x0 build/samus/RW/common/memory_commands.o
 .bss           0x0000000000000000        0x0 build/samus/RW/common/memory_commands.o
 .ARM.attributes
                0x0000000000000000       0x37 build/samus/RW/common/memory_commands.o
 .text          0x0000000000000000        0x0 build/samus/RW/common/motion_lid.o
 .ARM.attributes
                0x0000000000000000       0x37 build/samus/RW/common/motion_lid.o
 .text          0x0000000000000000        0x0 build/samus/RW/common/motion_sense.o
 .ARM.attributes
                0x0000000000000000       0x37 build/samus/RW/common/motion_sense.o
 .text          0x0000000000000000        0x0 build/samus/RW/common/panic_output.o
 .data          0x0000000000000000        0x0 build/samus/RW/common/panic_output.o
 .bss           0x0000000000000000        0x0 build/samus/RW/common/panic_output.o
 .text.panic    0x0000000000000000       0x18 build/samus/RW/common/panic_output.o
 .ARM.attributes
                0x0000000000000000       0x37 build/samus/RW/common/panic_output.o
 .text          0x0000000000000000        0x0 build/samus/RW/common/port80.o
 .text.port80_last_boot
                0x0000000000000000       0x18 build/samus/RW/common/port80.o
 .ARM.attributes
                0x0000000000000000       0x37 build/samus/RW/common/port80.o
 .text          0x0000000000000000        0x0 build/samus/RW/common/power_button.o
 .text.power_button_wait_for_release
                0x0000000000000000       0x80 build/samus/RW/common/power_button.o
 .ARM.attributes
                0x0000000000000000       0x37 build/samus/RW/common/power_button.o
 .text          0x0000000000000000        0x0 build/samus/RW/common/power_button_x86.o
 .data          0x0000000000000000        0x0 build/samus/RW/common/power_button_x86.o
 .text.power_button_pch_press
                0x0000000000000000       0x20 build/samus/RW/common/power_button_x86.o
 .ARM.attributes
                0x0000000000000000       0x37 build/samus/RW/common/power_button_x86.o
 .text          0x0000000000000000        0x0 build/samus/RW/common/printf.o
 .data          0x0000000000000000        0x0 build/samus/RW/common/printf.o
 .bss           0x0000000000000000        0x0 build/samus/RW/common/printf.o
 .ARM.attributes
                0x0000000000000000       0x37 build/samus/RW/common/printf.o
 .text          0x0000000000000000        0x0 build/samus/RW/common/pwm.o
 .data          0x0000000000000000        0x0 build/samus/RW/common/pwm.o
 .bss           0x0000000000000000        0x0 build/samus/RW/common/pwm.o
 .ARM.attributes
                0x0000000000000000       0x37 build/samus/RW/common/pwm.o
 .text          0x0000000000000000        0x0 build/samus/RW/common/pwm_kblight.o
 .data          0x0000000000000000        0x0 build/samus/RW/common/pwm_kblight.o
 .bss           0x0000000000000000        0x0 build/samus/RW/common/pwm_kblight.o
 .ARM.attributes
                0x0000000000000000       0x37 build/samus/RW/common/pwm_kblight.o
 .text          0x0000000000000000        0x0 build/samus/RW/common/queue.o
 .data          0x0000000000000000        0x0 build/samus/RW/common/queue.o
 .bss           0x0000000000000000        0x0 build/samus/RW/common/queue.o
 .text.queue_is_full
                0x0000000000000000        0xe build/samus/RW/common/queue.o
 .text.queue_get_write_chunk
                0x0000000000000000       0x44 build/samus/RW/common/queue.o
 .text.queue_get_read_chunk
                0x0000000000000000       0x44 build/samus/RW/common/queue.o
 .ARM.attributes
                0x0000000000000000       0x37 build/samus/RW/common/queue.o
 .text          0x0000000000000000        0x0 build/samus/RW/common/queue_policies.o
 .data          0x0000000000000000        0x0 build/samus/RW/common/queue_policies.o
 .bss           0x0000000000000000        0x0 build/samus/RW/common/queue_policies.o
 .text.queue_add_direct
                0x0000000000000000        0xe build/samus/RW/common/queue_policies.o
 .text.queue_remove_direct
                0x0000000000000000        0xe build/samus/RW/common/queue_policies.o
 .rodata        0x0000000000000000       0x1c build/samus/RW/common/queue_policies.o
 .debug_info    0x0000000000000000      0x353 build/samus/RW/common/queue_policies.o
 .debug_abbrev  0x0000000000000000       0xec build/samus/RW/common/queue_policies.o
 .debug_loc     0x0000000000000000       0xdc build/samus/RW/common/queue_policies.o
 .debug_aranges
                0x0000000000000000       0x28 build/samus/RW/common/queue_policies.o
 .debug_ranges  0x0000000000000000       0x18 build/samus/RW/common/queue_policies.o
 .debug_line    0x0000000000000000      0x1a3 build/samus/RW/common/queue_policies.o
 .debug_str     0x0000000000000000      0x32e build/samus/RW/common/queue_policies.o
 .comment       0x0000000000000000       0x4b build/samus/RW/common/queue_policies.o
 .debug_frame   0x0000000000000000       0x30 build/samus/RW/common/queue_policies.o
 .ARM.attributes
                0x0000000000000000       0x37 build/samus/RW/common/queue_policies.o
 .text          0x0000000000000000        0x0 build/samus/RW/common/sha256.o
 .data          0x0000000000000000        0x0 build/samus/RW/common/sha256.o
 .bss           0x0000000000000000        0x0 build/samus/RW/common/sha256.o
 .ARM.attributes
                0x0000000000000000       0x37 build/samus/RW/common/sha256.o
 .text          0x0000000000000000        0x0 build/samus/RW/common/shared_mem.o
 .data          0x0000000000000000        0x0 build/samus/RW/common/shared_mem.o
 .ARM.attributes
                0x0000000000000000       0x37 build/samus/RW/common/shared_mem.o
 .text          0x0000000000000000        0x0 build/samus/RW/common/switch.o
 .data          0x0000000000000000        0x0 build/samus/RW/common/switch.o
 .ARM.attributes
                0x0000000000000000       0x37 build/samus/RW/common/switch.o
 .text          0x0000000000000000        0x0 build/samus/RW/common/system.o
 .data          0x0000000000000000        0x0 build/samus/RW/common/system.o
 .text.system_clear_reset_flags
                0x0000000000000000       0x10 build/samus/RW/common/system.o
 .text.system_image_copy_t_to_string
                0x0000000000000000       0x14 build/samus/RW/common/system.o
 .ARM.attributes
                0x0000000000000000       0x37 build/samus/RW/common/system.o
 .text          0x0000000000000000        0x0 build/samus/RW/common/temp_sensor.o
 .data          0x0000000000000000        0x0 build/samus/RW/common/temp_sensor.o
 .bss           0x0000000000000000        0x0 build/samus/RW/common/temp_sensor.o
 .ARM.attributes
                0x0000000000000000       0x37 build/samus/RW/common/temp_sensor.o
 .text          0x0000000000000000        0x0 build/samus/RW/common/thermal.o
 .data          0x0000000000000000        0x0 build/samus/RW/common/thermal.o
 .ARM.attributes
                0x0000000000000000       0x37 build/samus/RW/common/thermal.o
 .text          0x0000000000000000        0x0 build/samus/RW/common/throttle_ap.o
 .data          0x0000000000000000        0x0 build/samus/RW/common/throttle_ap.o
 .ARM.attributes
                0x0000000000000000       0x37 build/samus/RW/common/throttle_ap.o
 .text          0x0000000000000000        0x0 build/samus/RW/common/timer.o
 .text.clock    0x0000000000000000        0x4 build/samus/RW/common/timer.o
 .ARM.attributes
                0x0000000000000000       0x37 build/samus/RW/common/timer.o
 .text          0x0000000000000000        0x0 build/samus/RW/common/uart_buffering.o
 .data          0x0000000000000000        0x0 build/samus/RW/common/uart_buffering.o
 .text.uart_printf
                0x0000000000000000       0x1a build/samus/RW/common/uart_buffering.o
 .ARM.attributes
                0x0000000000000000       0x37 build/samus/RW/common/uart_buffering.o
 .text          0x0000000000000000        0x0 build/samus/RW/common/usb_port_power_smart.o
 .data          0x0000000000000000        0x0 build/samus/RW/common/usb_port_power_smart.o
 .text.usb_charge_ports_enabled
                0x0000000000000000       0x20 build/samus/RW/common/usb_port_power_smart.o
 .ARM.attributes
                0x0000000000000000       0x37 build/samus/RW/common/usb_port_power_smart.o
 .text          0x0000000000000000        0x0 build/samus/RW/common/util.o
 .data          0x0000000000000000        0x0 build/samus/RW/common/util.o
 .bss           0x0000000000000000        0x0 build/samus/RW/common/util.o
 .text.isdigit  0x0000000000000000        0xc build/samus/RW/common/util.o
 .text.atoi     0x0000000000000000       0x3e build/samus/RW/common/util.o
 .text.memcmp   0x0000000000000000       0x1c build/samus/RW/common/util.o
 .text.get_next_bit
                0x0000000000000000       0x18 build/samus/RW/common/util.o
 .text.parse_offset_size
                0x0000000000000000       0x66 build/samus/RW/common/util.o
 .ARM.attributes
                0x0000000000000000       0x37 build/samus/RW/common/util.o
 .text          0x0000000000000000        0x0 build/samus/RW/common/vboot_hash.o
 .data          0x0000000000000000        0x0 build/samus/RW/common/vboot_hash.o
 .ARM.attributes
                0x0000000000000000       0x37 build/samus/RW/common/vboot_hash.o
 .text          0x0000000000000000        0x0 build/samus/RW/common/version.o
 .data          0x0000000000000000        0x0 build/samus/RW/common/version.o
 .bss           0x0000000000000000        0x0 build/samus/RW/common/version.o
 .text.ver_get_numcommits
                0x0000000000000000       0x44 build/samus/RW/common/version.o
 .ARM.attributes
                0x0000000000000000       0x37 build/samus/RW/common/version.o
 .text          0x0000000000000000        0x0 build/samus/RW/common/wireless.o
 .bss           0x0000000000000000        0x0 build/samus/RW/common/wireless.o
 .ARM.attributes
                0x0000000000000000       0x37 build/samus/RW/common/wireless.o
 .text          0x0000000000000000        0x0 build/samus/RW/core/cortex-m/cpu.o
 .data          0x0000000000000000        0x0 build/samus/RW/core/cortex-m/cpu.o
 .bss           0x0000000000000000        0x0 build/samus/RW/core/cortex-m/cpu.o
 .ARM.attributes
                0x0000000000000000       0x37 build/samus/RW/core/cortex-m/cpu.o
 .data          0x0000000000000000        0x0 build/samus/RW/core/cortex-m/init.o
 .bss           0x0000000000000000        0x0 build/samus/RW/core/cortex-m/init.o
 .ARM.attributes
                0x0000000000000000       0x25 build/samus/RW/core/cortex-m/init.o
 .text          0x0000000000000000        0x0 build/samus/RW/core/cortex-m/ldivmod.o
 .data          0x0000000000000000        0x0 build/samus/RW/core/cortex-m/ldivmod.o
 .bss           0x0000000000000000        0x0 build/samus/RW/core/cortex-m/ldivmod.o
 .text.__aeabi_ldivmod
                0x0000000000000000       0x5c build/samus/RW/core/cortex-m/ldivmod.o
 .debug_line    0x0000000000000000       0x70 build/samus/RW/core/cortex-m/ldivmod.o
 .debug_info    0x0000000000000000       0x68 build/samus/RW/core/cortex-m/ldivmod.o
 .debug_abbrev  0x0000000000000000       0x14 build/samus/RW/core/cortex-m/ldivmod.o
 .debug_aranges
                0x0000000000000000       0x20 build/samus/RW/core/cortex-m/ldivmod.o
 .ARM.attributes
                0x0000000000000000       0x25 build/samus/RW/core/cortex-m/ldivmod.o
 .text          0x0000000000000000        0x0 build/samus/RW/core/cortex-m/mpu.o
 .data          0x0000000000000000        0x0 build/samus/RW/core/cortex-m/mpu.o
 .bss           0x0000000000000000        0x0 build/samus/RW/core/cortex-m/mpu.o
 .ARM.attributes
                0x0000000000000000       0x37 build/samus/RW/core/cortex-m/mpu.o
 .text          0x0000000000000000        0x0 build/samus/RW/core/cortex-m/panic.o
 .text.ignore_bus_fault
                0x0000000000000000        0xc build/samus/RW/core/cortex-m/panic.o
 .ARM.attributes
                0x0000000000000000       0x37 build/samus/RW/core/cortex-m/panic.o
 .data          0x0000000000000000        0x0 build/samus/RW/core/cortex-m/switch.o
 .bss           0x0000000000000000        0x0 build/samus/RW/core/cortex-m/switch.o
 .ARM.attributes
                0x0000000000000000       0x25 build/samus/RW/core/cortex-m/switch.o
 .text          0x0000000000000000        0x0 build/samus/RW/core/cortex-m/task.o
 .text.task_clear_fp_used
                0x0000000000000000       0x12 build/samus/RW/core/cortex-m/task.o
 .ARM.attributes
                0x0000000000000000       0x37 build/samus/RW/core/cortex-m/task.o
 .text          0x0000000000000000        0x0 build/samus/RW/core/cortex-m/uldivmod.o
 .data          0x0000000000000000        0x0 build/samus/RW/core/cortex-m/uldivmod.o
 .bss           0x0000000000000000        0x0 build/samus/RW/core/cortex-m/uldivmod.o
 .ARM.attributes
                0x0000000000000000       0x25 build/samus/RW/core/cortex-m/uldivmod.o
 .text          0x0000000000000000        0x0 build/samus/RW/core/cortex-m/watchdog.o
 .data          0x0000000000000000        0x0 build/samus/RW/core/cortex-m/watchdog.o
 .bss           0x0000000000000000        0x0 build/samus/RW/core/cortex-m/watchdog.o
 .ARM.attributes
                0x0000000000000000       0x37 build/samus/RW/core/cortex-m/watchdog.o
 .text          0x0000000000000000        0x0 build/samus/RW/driver/accel_kionix.o
 .data          0x0000000000000000        0x0 build/samus/RW/driver/accel_kionix.o
 .bss           0x0000000000000000        0x0 build/samus/RW/driver/accel_kionix.o
 .ARM.attributes
                0x0000000000000000       0x37 build/samus/RW/driver/accel_kionix.o
 .text          0x0000000000000000        0x0 build/samus/RW/driver/accelgyro_lsm6ds0.o
 .data          0x0000000000000000        0x0 build/samus/RW/driver/accelgyro_lsm6ds0.o
 .bss           0x0000000000000000        0x0 build/samus/RW/driver/accelgyro_lsm6ds0.o
 .ARM.attributes
                0x0000000000000000       0x37 build/samus/RW/driver/accelgyro_lsm6ds0.o
 .text          0x0000000000000000        0x0 build/samus/RW/driver/als_isl29035.o
 .data          0x0000000000000000        0x0 build/samus/RW/driver/als_isl29035.o
 .bss           0x0000000000000000        0x0 build/samus/RW/driver/als_isl29035.o
 .ARM.attributes
                0x0000000000000000       0x37 build/samus/RW/driver/als_isl29035.o
 .text          0x0000000000000000        0x0 build/samus/RW/driver/battery/samus.o
 .ARM.attributes
                0x0000000000000000       0x37 build/samus/RW/driver/battery/samus.o
 .text          0x0000000000000000        0x0 build/samus/RW/driver/battery/smart.o
 .bss           0x0000000000000000        0x0 build/samus/RW/driver/battery/smart.o
 .text.sbc_read
                0x0000000000000000        0xc build/samus/RW/driver/battery/smart.o
 .text.sbc_write
                0x0000000000000000        0xc build/samus/RW/driver/battery/smart.o
 .text.battery_run_time_to_empty
                0x0000000000000000        0x8 build/samus/RW/driver/battery/smart.o
 .text.battery_time_at_rate
                0x0000000000000000       0x68 build/samus/RW/driver/battery/smart.o
 .text.battery_manufacture_date
                0x0000000000000000       0x2c build/samus/RW/driver/battery/smart.o
 .text.battery_wait_for_stable
                0x0000000000000000       0x70 build/samus/RW/driver/battery/smart.o
 .ARM.attributes
                0x0000000000000000       0x37 build/samus/RW/driver/battery/smart.o
 .text          0x0000000000000000        0x0 build/samus/RW/driver/charger/bq24773.o
 .data          0x0000000000000000        0x0 build/samus/RW/driver/charger/bq24773.o
 .bss           0x0000000000000000        0x0 build/samus/RW/driver/charger/bq24773.o
 .ARM.attributes
                0x0000000000000000       0x37 build/samus/RW/driver/charger/bq24773.o
 .text          0x0000000000000000        0x0 build/samus/RW/driver/temp_sensor/tmp006.o
 .data          0x0000000000000000        0x0 build/samus/RW/driver/temp_sensor/tmp006.o
 .ARM.attributes
                0x0000000000000000       0x37 build/samus/RW/driver/temp_sensor/tmp006.o
 .text          0x0000000000000000        0x0 build/samus/RW/power/common.o
 .text.power_set_pause_in_s5
                0x0000000000000000        0xc build/samus/RW/power/common.o
 .ARM.attributes
                0x0000000000000000       0x37 build/samus/RW/power/common.o

Memory Configuration

Name             Origin             Length             Attributes
FLASH            0x0000000000020000 0x0000000000020000 xr
IRAM             0x0000000020000000 0x0000000000008000 rw
*default*        0x0000000000000000 0xffffffffffffffff

Linker script and memory map

LOAD build/samus/RW/board/samus/board.o
LOAD build/samus/RW/board/samus/extpower.o
LOAD build/samus/RW/board/samus/panel.o
LOAD build/samus/RW/board/samus/power_sequence.o
LOAD build/samus/RW/chip/lm4/adc.o
LOAD build/samus/RW/chip/lm4/chip_temp_sensor.o
LOAD build/samus/RW/chip/lm4/clock.o
LOAD build/samus/RW/chip/lm4/fan.o
LOAD build/samus/RW/chip/lm4/flash.o
LOAD build/samus/RW/chip/lm4/gpio.o
LOAD build/samus/RW/chip/lm4/hwtimer.o
LOAD build/samus/RW/chip/lm4/i2c.o
LOAD build/samus/RW/chip/lm4/jtag.o
LOAD build/samus/RW/chip/lm4/keyboard_raw.o
LOAD build/samus/RW/chip/lm4/lpc.o
LOAD build/samus/RW/chip/lm4/peci.o
LOAD build/samus/RW/chip/lm4/pwm.o
LOAD build/samus/RW/chip/lm4/system.o
LOAD build/samus/RW/chip/lm4/uart.o
LOAD build/samus/RW/chip/lm4/watchdog.o
LOAD build/samus/RW/common/acpi.o
LOAD build/samus/RW/common/adc.o
LOAD build/samus/RW/common/als.o
LOAD build/samus/RW/common/battery.o
LOAD build/samus/RW/common/charge_state_v2.o
LOAD build/samus/RW/common/charger.o
LOAD build/samus/RW/common/chipset.o
LOAD build/samus/RW/common/console.o
LOAD build/samus/RW/common/console_output.o
LOAD build/samus/RW/common/fan.o
LOAD build/samus/RW/common/flash.o
LOAD build/samus/RW/common/fmap.o
LOAD build/samus/RW/common/gesture.o
LOAD build/samus/RW/common/gpio.o
LOAD build/samus/RW/common/hooks.o
LOAD build/samus/RW/common/host_command.o
LOAD build/samus/RW/common/host_command_master.o
LOAD build/samus/RW/common/host_command_pd.o
LOAD build/samus/RW/common/host_event_commands.o
LOAD build/samus/RW/common/i2c.o
LOAD build/samus/RW/common/keyboard_8042.o
LOAD build/samus/RW/common/keyboard_8042_sharedlib.o
LOAD build/samus/RW/common/keyboard_scan.o
LOAD build/samus/RW/common/lb_common.o
LOAD build/samus/RW/common/lid_switch.o
LOAD build/samus/RW/common/lightbar.o
LOAD build/samus/RW/common/main.o
LOAD build/samus/RW/common/math_util.o
LOAD build/samus/RW/common/memory_commands.o
LOAD build/samus/RW/common/motion_lid.o
LOAD build/samus/RW/common/motion_sense.o
LOAD build/samus/RW/common/panic_output.o
LOAD build/samus/RW/common/port80.o
LOAD build/samus/RW/common/power_button.o
LOAD build/samus/RW/common/power_button_x86.o
LOAD build/samus/RW/common/printf.o
LOAD build/samus/RW/common/pwm.o
LOAD build/samus/RW/common/pwm_kblight.o
LOAD build/samus/RW/common/queue.o
LOAD build/samus/RW/common/queue_policies.o
LOAD build/samus/RW/common/sha256.o
LOAD build/samus/RW/common/shared_mem.o
LOAD build/samus/RW/common/switch.o
LOAD build/samus/RW/common/system.o
LOAD build/samus/RW/common/temp_sensor.o
LOAD build/samus/RW/common/thermal.o
LOAD build/samus/RW/common/throttle_ap.o
LOAD build/samus/RW/common/timer.o
LOAD build/samus/RW/common/uart_buffering.o
LOAD build/samus/RW/common/usb_port_power_smart.o
LOAD build/samus/RW/common/util.o
LOAD build/samus/RW/common/vboot_hash.o
LOAD build/samus/RW/common/version.o
LOAD build/samus/RW/common/wireless.o
LOAD build/samus/RW/core/cortex-m/cpu.o
LOAD build/samus/RW/core/cortex-m/init.o
LOAD build/samus/RW/core/cortex-m/ldivmod.o
LOAD build/samus/RW/core/cortex-m/mpu.o
LOAD build/samus/RW/core/cortex-m/panic.o
LOAD build/samus/RW/core/cortex-m/switch.o
LOAD build/samus/RW/core/cortex-m/task.o
LOAD build/samus/RW/core/cortex-m/uldivmod.o
LOAD build/samus/RW/core/cortex-m/watchdog.o
LOAD build/samus/RW/driver/accel_kionix.o
LOAD build/samus/RW/driver/accelgyro_lsm6ds0.o
LOAD build/samus/RW/driver/als_isl29035.o
LOAD build/samus/RW/driver/battery/samus.o
LOAD build/samus/RW/driver/battery/smart.o
LOAD build/samus/RW/driver/charger/bq24773.o
LOAD build/samus/RW/driver/temp_sensor/tmp006.o
LOAD build/samus/RW/power/common.o

.text           0x0000000000020000    0x13d78
 build/samus/RW/core/cortex-m/init.o(.text.vecttable)
 .text.vecttable
                0x0000000000020000      0x250 build/samus/RW/core/cortex-m/init.o
                0x0000000000020250                . = ALIGN (0x4)
                0x0000000000020250                __version_struct_offset = .
 *(.rodata.ver)
 .rodata.ver    0x0000000000020250       0x28 build/samus/RW/common/version.o
                0x0000000000020250                version_data
                0x0000000000020278                . = ALIGN (0x4)
 *(.rodata.pstate)
                0x0000000000020278                . = ALIGN (0x4)
 build/samus/RW/core/cortex-m/init.o(.text)
 .text          0x0000000000020278       0x98 build/samus/RW/core/cortex-m/init.o
                0x0000000000020278                reset
                0x00000000000202cc                irq_98_handler
                0x00000000000202cc                irq_119_handler
                0x00000000000202cc                irq_38_handler
                0x00000000000202cc                irq_121_handler
                0x00000000000202cc                irq_92_handler
                0x00000000000202cc                irq_50_handler
                0x00000000000202cc                irq_62_handler
                0x00000000000202cc                irq_122_handler
                0x00000000000202cc                irq_51_handler
                0x00000000000202cc                irq_81_handler
                0x00000000000202cc                irq_123_handler
                0x00000000000202cc                irq_24_handler
                0x00000000000202cc                irq_86_handler
                0x00000000000202cc                irq_6_handler
                0x00000000000202cc                irq_47_handler
                0x00000000000202cc                irq_75_handler
                0x00000000000202cc                irq_107_handler
                0x00000000000202cc                irq_115_handler
                0x00000000000202cc                irq_48_handler
                0x00000000000202cc                irq_44_handler
                0x00000000000202cc                irq_59_handler
                0x00000000000202cc                irq_27_handler
                0x00000000000202cc                irq_70_handler
                0x00000000000202cc                irq_131_handler
                0x00000000000202cc                irq_46_handler
                0x00000000000202cc                irq_7_handler
                0x00000000000202cc                irq_104_handler
                0x00000000000202cc                irq_41_handler
                0x00000000000202cc                irq_96_handler
                0x00000000000202cc                irq_85_handler
                0x00000000000202cc                usage_fault_handler
                0x00000000000202cc                irq_126_handler
                0x00000000000202cc                irq_101_handler
                0x00000000000202cc                irq_26_handler
                0x00000000000202cc                irq_128_handler
                0x00000000000202cc                mpu_fault_handler
                0x00000000000202cc                irq_118_handler
                0x00000000000202cc                irq_60_handler
                0x00000000000202cc                irq_84_handler
                0x00000000000202cc                irq_88_handler
                0x00000000000202cc                irq_42_handler
                0x00000000000202cc                irq_93_handler
                0x00000000000202cc                irq_19_handler
                0x00000000000202cc                irq_74_handler
                0x00000000000202cc                irq_22_handler
                0x00000000000202cc                irq_66_handler
                0x00000000000202cc                irq_90_handler
                0x00000000000202cc                irq_45_handler
                0x00000000000202cc                irq_105_handler
                0x00000000000202cc                irq_23_handler
                0x00000000000202cc                irq_78_handler
                0x00000000000202cc                irq_21_handler
                0x00000000000202cc                irq_65_handler
                0x00000000000202cc                hard_fault_handler
                0x00000000000202cc                irq_63_handler
                0x00000000000202cc                irq_106_handler
                0x00000000000202cc                irq_103_handler
                0x00000000000202cc                irq_76_handler
                0x00000000000202cc                irq_82_handler
                0x00000000000202cc                irq_72_handler
                0x00000000000202cc                irq_113_handler
                0x00000000000202cc                irq_36_handler
                0x00000000000202cc                irq_129_handler
                0x00000000000202cc                irq_73_handler
                0x00000000000202cc                irq_114_handler
                0x00000000000202cc                irq_89_handler
                0x00000000000202cc                irq_20_handler
                0x00000000000202cc                irq_102_handler
                0x00000000000202cc                irq_35_handler
                0x00000000000202cc                irq_58_handler
                0x00000000000202cc                irq_13_handler
                0x00000000000202cc                pendsv_handler
                0x00000000000202cc                irq_40_handler
                0x00000000000202cc                irq_117_handler
                0x00000000000202cc                irq_127_handler
                0x00000000000202cc                sys_tick_handler
                0x00000000000202cc                irq_91_handler
                0x00000000000202cc                irq_25_handler
                0x00000000000202cc                irq_39_handler
                0x00000000000202cc                irq_57_handler
                0x00000000000202cc                irq_12_handler
                0x00000000000202cc                irq_10_handler
                0x00000000000202cc                irq_130_handler
                0x00000000000202cc                irq_80_handler
                0x00000000000202cc                irq_49_handler
                0x00000000000202cc                irq_9_handler
                0x00000000000202cc                irq_29_handler
                0x00000000000202cc                irq_28_handler
                0x00000000000202cc                irq_11_handler
                0x00000000000202cc                irq_100_handler
                0x00000000000202cc                irq_52_handler
                0x00000000000202cc                irq_77_handler
                0x00000000000202cc                irq_95_handler
                0x00000000000202cc                nmi_handler
                0x00000000000202cc                irq_83_handler
                0x00000000000202cc                irq_61_handler
                0x00000000000202cc                irq_71_handler
                0x00000000000202cc                irq_87_handler
                0x00000000000202cc                irq_99_handler
                0x00000000000202cc                irq_120_handler
                0x00000000000202cc                irq_34_handler
                0x00000000000202cc                irq_79_handler
                0x00000000000202cc                debug_handler
                0x00000000000202cc                irq_67_handler
                0x00000000000202cc                irq_97_handler
                0x00000000000202cc                irq_125_handler
                0x00000000000202cc                irq_64_handler
                0x00000000000202cc                irq_53_handler
                0x00000000000202fc                __aeabi_unwind_cpp_pr0
                0x00000000000202fc                __aeabi_unwind_cpp_pr2
                0x00000000000202fc                __aeabi_unwind_cpp_pr1
 *(.text*)
 .text.pd_mcu_interrupt
                0x0000000000020310        0x6 build/samus/RW/board/samus/board.o
 .text.board_init
                0x0000000000020316        0x6 build/samus/RW/board/samus/board.o
 .text.board_discharge_on_ac
                0x000000000002031c       0x14 build/samus/RW/board/samus/board.o
                0x000000000002031c                board_discharge_on_ac
 .text.board_is_discharging_on_ac
                0x0000000000020330        0xc build/samus/RW/board/samus/board.o
                0x0000000000020330                board_is_discharging_on_ac
 .text.board_reset_pd_mcu
                0x000000000002033c       0x1c build/samus/RW/board/samus/board.o
                0x000000000002033c                board_reset_pd_mcu
 .text.extpower_shutdown
                0x0000000000020358        0x8 build/samus/RW/board/samus/extpower.o
 .text.allow_max_request
                0x0000000000020360       0x28 build/samus/RW/board/samus/extpower.o
 .text.charger_disable
                0x0000000000020388       0x28 build/samus/RW/board/samus/extpower.o
 .text.command_backboost_det
                0x00000000000203b0       0x1c build/samus/RW/board/samus/extpower.o
 .text.check_charging_cutoff
                0x00000000000203cc       0x20 build/samus/RW/board/samus/extpower.o
 .text.cancel_charging_cutoff
                0x00000000000203ec       0x18 build/samus/RW/board/samus/extpower.o
 .text.batt_soc_change
                0x0000000000020404       0x4c build/samus/RW/board/samus/extpower.o
 .text.allow_min_charging
                0x0000000000020450       0x18 build/samus/RW/board/samus/extpower.o
 .text.extpower_board_hacks
                0x0000000000020468       0x70 build/samus/RW/board/samus/extpower.o
 .text.extpower_is_present
                0x00000000000204d8        0x6 build/samus/RW/board/samus/extpower.o
                0x00000000000204d8                extpower_is_present
 .text.extpower_buffer_to_pch
                0x00000000000204de       0x20 build/samus/RW/board/samus/extpower.o
 .text.extpower_init
                0x00000000000204fe       0x10 build/samus/RW/board/samus/extpower.o
 *fill*         0x000000000002050e        0x2 
 .text.extpower_interrupt
                0x0000000000020510       0x24 build/samus/RW/board/samus/extpower.o
                0x0000000000020510                extpower_interrupt
 .text.extpower_task
                0x0000000000020534      0x194 build/samus/RW/board/samus/extpower.o
                0x0000000000020534                extpower_task
 .text.bkboost_det_interrupt
                0x00000000000206c8       0x10 build/samus/RW/board/samus/extpower.o
                0x00000000000206c8                bkboost_det_interrupt
 .text.lp8555_read_with_retry
                0x00000000000206d8       0x38 build/samus/RW/board/samus/panel.o
 .text.printstmt
                0x0000000000020710        0xc build/samus/RW/board/samus/panel.o
 .text.lp8555_write_with_retry
                0x000000000002071c       0x3c build/samus/RW/board/samus/panel.o
 .text.lp8555_enable_pwm_mode
                0x0000000000020758       0x58 build/samus/RW/board/samus/panel.o
 .text.switch_command_enable_backlight
                0x00000000000207b0       0x18 build/samus/RW/board/samus/panel.o
 .text.backlight_init
                0x00000000000207c8       0x18 build/samus/RW/board/samus/panel.o
 .text.update_backlight
                0x00000000000207e0       0x28 build/samus/RW/board/samus/panel.o
 .text.backlight_interrupt
                0x0000000000020808        0xc build/samus/RW/board/samus/panel.o
                0x0000000000020808                backlight_interrupt
 .text.chipset_force_g3
                0x0000000000020814       0x80 build/samus/RW/board/samus/power_sequence.o
 .text.chipset_force_shutdown
                0x0000000000020894       0x28 build/samus/RW/board/samus/power_sequence.o
                0x0000000000020894                chipset_force_shutdown
 .text.chipset_reset
                0x00000000000208bc       0x50 build/samus/RW/board/samus/power_sequence.o
                0x00000000000208bc                chipset_reset
 .text.chipset_throttle_cpu
                0x000000000002090c       0x1a build/samus/RW/board/samus/power_sequence.o
                0x000000000002090c                chipset_throttle_cpu
 *fill*         0x0000000000020926        0x2 
 .text.power_chipset_init
                0x0000000000020928       0x48 build/samus/RW/board/samus/power_sequence.o
                0x0000000000020928                power_chipset_init
 .text.power_handle_state
                0x0000000000020970      0x3e4 build/samus/RW/board/samus/power_sequence.o
                0x0000000000020970                power_handle_state
 .text.set_pp5000_in_g3
                0x0000000000020d54       0x50 build/samus/RW/board/samus/power_sequence.o
                0x0000000000020d54                set_pp5000_in_g3
 .text.lb_power
                0x0000000000020da4       0x7c build/samus/RW/board/samus/power_sequence.o
                0x0000000000020da4                lb_power
 .text.handle_interrupt
                0x0000000000020e20       0x28 build/samus/RW/chip/lm4/adc.o
 .text.adc_init
                0x0000000000020e48      0x120 build/samus/RW/chip/lm4/adc.o
 .text.adc_read_channel
                0x0000000000020f68      0x120 build/samus/RW/chip/lm4/adc.o
                0x0000000000020f68                adc_read_channel
 .text.adc_read_all_channels
                0x0000000000021088       0x24 build/samus/RW/chip/lm4/adc.o
                0x0000000000021088                adc_read_all_channels
 .text.ss0_interrupt
                0x00000000000210ac        0x6 build/samus/RW/chip/lm4/adc.o
                0x00000000000210ac                ss0_interrupt
 .text.ss1_interrupt
                0x00000000000210b2        0x6 build/samus/RW/chip/lm4/adc.o
                0x00000000000210b2                ss1_interrupt
 .text.ss2_interrupt
                0x00000000000210b8        0x6 build/samus/RW/chip/lm4/adc.o
                0x00000000000210b8                ss2_interrupt
 .text.ss3_interrupt
                0x00000000000210be        0x6 build/samus/RW/chip/lm4/adc.o
                0x00000000000210be                ss3_interrupt
 .text.irq_14_handler
                0x00000000000210c4       0x14 build/samus/RW/chip/lm4/adc.o
                0x00000000000210c4                irq_14_handler
 .text.irq_15_handler
                0x00000000000210d8       0x14 build/samus/RW/chip/lm4/adc.o
                0x00000000000210d8                irq_15_handler
 .text.irq_16_handler
                0x00000000000210ec       0x14 build/samus/RW/chip/lm4/adc.o
                0x00000000000210ec                irq_16_handler
 .text.irq_17_handler
                0x0000000000021100       0x14 build/samus/RW/chip/lm4/adc.o
                0x0000000000021100                irq_17_handler
 .text.chip_temp_sensor_poll
                0x0000000000021114       0x14 build/samus/RW/chip/lm4/chip_temp_sensor.o
 .text.chip_temp_sensor_get_val
                0x0000000000021128       0x14 build/samus/RW/chip/lm4/chip_temp_sensor.o
                0x0000000000021128                chip_temp_sensor_get_val
 .text.disable_pll
                0x000000000002113c       0x34 build/samus/RW/chip/lm4/clock.o
 .text.command_idle_stats
                0x0000000000021170       0x68 build/samus/RW/chip/lm4/clock.o
 .text.clock_wait_cycles
                0x00000000000211d8        0x6 build/samus/RW/chip/lm4/clock.o
                0x00000000000211d8                clock_wait_cycles
 *fill*         0x00000000000211de        0x2 
 .text.clock_enable_pll
                0x00000000000211e0       0x60 build/samus/RW/chip/lm4/clock.o
                0x00000000000211e0                clock_enable_pll
 .text.clock_get_freq
                0x0000000000021240        0xc build/samus/RW/chip/lm4/clock.o
                0x0000000000021240                clock_get_freq
 .text.clock_init
                0x000000000002124c       0x10 build/samus/RW/chip/lm4/clock.o
                0x000000000002124c                clock_init
 .text.clock_enable_peripheral
                0x000000000002125c       0x48 build/samus/RW/chip/lm4/clock.o
                0x000000000002125c                clock_enable_peripheral
 .text.clock_disable_peripheral
                0x00000000000212a4       0x44 build/samus/RW/chip/lm4/clock.o
                0x00000000000212a4                clock_disable_peripheral
 .text.clock_refresh_console_in_use
                0x00000000000212e8       0x50 build/samus/RW/chip/lm4/clock.o
                0x00000000000212e8                clock_refresh_console_in_use
 .text.command_dsleep
                0x0000000000021338       0xa4 build/samus/RW/chip/lm4/clock.o
 .text.__idle   0x00000000000213dc      0x1c4 build/samus/RW/chip/lm4/clock.o
                0x00000000000213dc                __idle
 .text.fan_init
                0x00000000000215a0       0x18 build/samus/RW/chip/lm4/fan.o
 .text.fan_set_enabled
                0x00000000000215b8       0x20 build/samus/RW/chip/lm4/fan.o
                0x00000000000215b8                fan_set_enabled
 .text.fan_get_enabled
                0x00000000000215d8       0x18 build/samus/RW/chip/lm4/fan.o
                0x00000000000215d8                fan_get_enabled
 .text.fan_set_duty
                0x00000000000215f0       0x38 build/samus/RW/chip/lm4/fan.o
                0x00000000000215f0                fan_set_duty
 .text.fan_get_duty
                0x0000000000021628       0x1c build/samus/RW/chip/lm4/fan.o
                0x0000000000021628                fan_get_duty
 .text.fan_get_rpm_mode
                0x0000000000021644       0x14 build/samus/RW/chip/lm4/fan.o
                0x0000000000021644                fan_get_rpm_mode
 .text.fan_set_rpm_mode
                0x0000000000021658       0x54 build/samus/RW/chip/lm4/fan.o
                0x0000000000021658                fan_set_rpm_mode
 .text.fan_get_rpm_actual
                0x00000000000216ac       0x14 build/samus/RW/chip/lm4/fan.o
                0x00000000000216ac                fan_get_rpm_actual
 .text.fan_get_rpm_target
                0x00000000000216c0       0x14 build/samus/RW/chip/lm4/fan.o
                0x00000000000216c0                fan_get_rpm_target
 .text.fan_set_rpm_target
                0x00000000000216d4       0x20 build/samus/RW/chip/lm4/fan.o
                0x00000000000216d4                fan_set_rpm_target
 .text.fan_get_status
                0x00000000000216f4       0x14 build/samus/RW/chip/lm4/fan.o
                0x00000000000216f4                fan_get_status
 .text.fan_is_stalled
                0x0000000000021708       0x26 build/samus/RW/chip/lm4/fan.o
                0x0000000000021708                fan_is_stalled
 *fill*         0x000000000002172e        0x2 
 .text.fan_channel_setup
                0x0000000000021730       0x24 build/samus/RW/chip/lm4/fan.o
                0x0000000000021730                fan_channel_setup
 .text.write_buffer
                0x0000000000021754       0x64 build/samus/RW/chip/lm4/flash.o
 .text.flash_physical_write
                0x00000000000217b8       0x78 build/samus/RW/chip/lm4/flash.o
                0x00000000000217b8                flash_physical_write
 .text.flash_physical_erase
                0x0000000000021830       0x9c build/samus/RW/chip/lm4/flash.o
                0x0000000000021830                flash_physical_erase
 .text.flash_physical_get_protect
                0x00000000000218cc       0x20 build/samus/RW/chip/lm4/flash.o
                0x00000000000218cc                flash_physical_get_protect
 .text.flash_physical_get_protect_flags
                0x00000000000218ec       0x1c build/samus/RW/chip/lm4/flash.o
                0x00000000000218ec                flash_physical_get_protect_flags
 .text.flash_physical_protect_now
                0x0000000000021908       0x58 build/samus/RW/chip/lm4/flash.o
                0x0000000000021908                flash_physical_protect_now
 .text.flash_physical_get_valid_flags
                0x0000000000021960        0x4 build/samus/RW/chip/lm4/flash.o
                0x0000000000021960                flash_physical_get_valid_flags
 .text.flash_physical_get_writable_flags
                0x0000000000021964       0x18 build/samus/RW/chip/lm4/flash.o
                0x0000000000021964                flash_physical_get_writable_flags
 .text.flash_pre_init
                0x000000000002197c       0x64 build/samus/RW/chip/lm4/flash.o
                0x000000000002197c                flash_pre_init
 .text.gpio_interrupt
                0x00000000000219e0       0x50 build/samus/RW/chip/lm4/gpio.o
 .text.gpio_init
                0x0000000000021a30       0x18 build/samus/RW/chip/lm4/gpio.o
 .text.gpio_set_alternate_function
                0x0000000000021a48       0x84 build/samus/RW/chip/lm4/gpio.o
                0x0000000000021a48                gpio_set_alternate_function
 .text.gpio_get_level
                0x0000000000021acc       0x1c build/samus/RW/chip/lm4/gpio.o
                0x0000000000021acc                gpio_get_level
 .text.gpio_set_level
                0x0000000000021ae8       0x1c build/samus/RW/chip/lm4/gpio.o
                0x0000000000021ae8                gpio_set_level
 .text.gpio_set_flags_by_mask
                0x0000000000021b04       0xb2 build/samus/RW/chip/lm4/gpio.o
                0x0000000000021b04                gpio_set_flags_by_mask
 *fill*         0x0000000000021bb6        0x2 
 .text.gpio_enable_interrupt
                0x0000000000021bb8       0x30 build/samus/RW/chip/lm4/gpio.o
                0x0000000000021bb8                gpio_enable_interrupt
 .text.gpio_disable_interrupt
                0x0000000000021be8       0x30 build/samus/RW/chip/lm4/gpio.o
                0x0000000000021be8                gpio_disable_interrupt
 .text.gpio_pre_init
                0x0000000000021c18      0x104 build/samus/RW/chip/lm4/gpio.o
                0x0000000000021c18                gpio_pre_init
 .text.__gpio_a_interrupt
                0x0000000000021d1c       0x14 build/samus/RW/chip/lm4/gpio.o
                0x0000000000021d1c                __gpio_a_interrupt
 .text.__gpio_b_interrupt
                0x0000000000021d30       0x14 build/samus/RW/chip/lm4/gpio.o
                0x0000000000021d30                __gpio_b_interrupt
 .text.__gpio_c_interrupt
                0x0000000000021d44       0x14 build/samus/RW/chip/lm4/gpio.o
                0x0000000000021d44                __gpio_c_interrupt
 .text.__gpio_d_interrupt
                0x0000000000021d58       0x14 build/samus/RW/chip/lm4/gpio.o
                0x0000000000021d58                __gpio_d_interrupt
 .text.__gpio_e_interrupt
                0x0000000000021d6c       0x14 build/samus/RW/chip/lm4/gpio.o
                0x0000000000021d6c                __gpio_e_interrupt
 .text.__gpio_f_interrupt
                0x0000000000021d80       0x14 build/samus/RW/chip/lm4/gpio.o
                0x0000000000021d80                __gpio_f_interrupt
 .text.__gpio_g_interrupt
                0x0000000000021d94       0x14 build/samus/RW/chip/lm4/gpio.o
                0x0000000000021d94                __gpio_g_interrupt
 .text.__gpio_h_interrupt
                0x0000000000021da8       0x14 build/samus/RW/chip/lm4/gpio.o
                0x0000000000021da8                __gpio_h_interrupt
 .text.__gpio_j_interrupt
                0x0000000000021dbc       0x14 build/samus/RW/chip/lm4/gpio.o
                0x0000000000021dbc                __gpio_j_interrupt
 .text.__gpio_l_interrupt
                0x0000000000021dd0       0x14 build/samus/RW/chip/lm4/gpio.o
                0x0000000000021dd0                __gpio_l_interrupt
 .text.__gpio_m_interrupt
                0x0000000000021de4       0x14 build/samus/RW/chip/lm4/gpio.o
                0x0000000000021de4                __gpio_m_interrupt
 .text.__gpio_n_interrupt
                0x0000000000021df8       0x14 build/samus/RW/chip/lm4/gpio.o
                0x0000000000021df8                __gpio_n_interrupt
 .text.__gpio_p_interrupt
                0x0000000000021e0c       0x14 build/samus/RW/chip/lm4/gpio.o
                0x0000000000021e0c                __gpio_p_interrupt
 .text.__gpio_q_interrupt
                0x0000000000021e20       0x14 build/samus/RW/chip/lm4/gpio.o
                0x0000000000021e20                __gpio_q_interrupt
 .text.irq_0_handler
                0x0000000000021e34       0x14 build/samus/RW/chip/lm4/gpio.o
                0x0000000000021e34                irq_0_handler
 .text.irq_1_handler
                0x0000000000021e48       0x14 build/samus/RW/chip/lm4/gpio.o
                0x0000000000021e48                irq_1_handler
 .text.irq_2_handler
                0x0000000000021e5c       0x14 build/samus/RW/chip/lm4/gpio.o
                0x0000000000021e5c                irq_2_handler
 .text.irq_3_handler
                0x0000000000021e70       0x14 build/samus/RW/chip/lm4/gpio.o
                0x0000000000021e70                irq_3_handler
 .text.irq_4_handler
                0x0000000000021e84       0x14 build/samus/RW/chip/lm4/gpio.o
                0x0000000000021e84                irq_4_handler
 .text.irq_30_handler
                0x0000000000021e98       0x14 build/samus/RW/chip/lm4/gpio.o
                0x0000000000021e98                irq_30_handler
 .text.irq_31_handler
                0x0000000000021eac       0x14 build/samus/RW/chip/lm4/gpio.o
                0x0000000000021eac                irq_31_handler
 .text.irq_32_handler
                0x0000000000021ec0       0x14 build/samus/RW/chip/lm4/gpio.o
                0x0000000000021ec0                irq_32_handler
 .text.irq_54_handler
                0x0000000000021ed4       0x14 build/samus/RW/chip/lm4/gpio.o
                0x0000000000021ed4                irq_54_handler
 .text.irq_56_handler
                0x0000000000021ee8       0x14 build/samus/RW/chip/lm4/gpio.o
                0x0000000000021ee8                irq_56_handler
 .text.irq_111_handler
                0x0000000000021efc       0x14 build/samus/RW/chip/lm4/gpio.o
                0x0000000000021efc                irq_111_handler
 .text.irq_112_handler
                0x0000000000021f10       0x14 build/samus/RW/chip/lm4/gpio.o
                0x0000000000021f10                irq_112_handler
 .text.irq_116_handler
                0x0000000000021f24       0x14 build/samus/RW/chip/lm4/gpio.o
                0x0000000000021f24                irq_116_handler
 .text.irq_124_handler
                0x0000000000021f38       0x14 build/samus/RW/chip/lm4/gpio.o
                0x0000000000021f38                irq_124_handler
 .text.update_prescaler
                0x0000000000021f4c       0x1c build/samus/RW/chip/lm4/hwtimer.o
 .text.__hw_clock_event_set
                0x0000000000021f68       0x1c build/samus/RW/chip/lm4/hwtimer.o
                0x0000000000021f68                __hw_clock_event_set
 .text.__hw_clock_event_get
                0x0000000000021f84        0xc build/samus/RW/chip/lm4/hwtimer.o
                0x0000000000021f84                __hw_clock_event_get
 .text.__hw_clock_event_clear
                0x0000000000021f90       0x10 build/samus/RW/chip/lm4/hwtimer.o
                0x0000000000021f90                __hw_clock_event_clear
 .text.__hw_clock_source_read
                0x0000000000021fa0        0xc build/samus/RW/chip/lm4/hwtimer.o
                0x0000000000021fa0                __hw_clock_source_read
 .text.__hw_clock_source_set
                0x0000000000021fac        0xc build/samus/RW/chip/lm4/hwtimer.o
                0x0000000000021fac                __hw_clock_source_set
 .text.__hw_clock_source_irq
                0x0000000000021fb8       0x14 build/samus/RW/chip/lm4/hwtimer.o
                0x0000000000021fb8                __hw_clock_source_irq
 .text.irq_94_handler
                0x0000000000021fcc       0x14 build/samus/RW/chip/lm4/hwtimer.o
                0x0000000000021fcc                irq_94_handler
 .text.__hw_clock_source_init
                0x0000000000021fe0       0x60 build/samus/RW/chip/lm4/hwtimer.o
                0x0000000000021fe0                __hw_clock_source_init
 .text.lm4_i2c_addr
                0x0000000000022040       0x12 build/samus/RW/chip/lm4/i2c.o
 *fill*         0x0000000000022052        0x2 
 .text.i2c_freq_changed
                0x0000000000022054       0x50 build/samus/RW/chip/lm4/i2c.o
 .text.i2c_init
                0x00000000000220a4       0x90 build/samus/RW/chip/lm4/i2c.o
 .text.i2c_do_work
                0x0000000000022134       0xe4 build/samus/RW/chip/lm4/i2c.o
                0x0000000000022134                i2c_do_work
 .text.handle_interrupt
                0x0000000000022218       0x44 build/samus/RW/chip/lm4/i2c.o
 .text.i2c_raw_get_scl
                0x000000000002225c       0x3e build/samus/RW/chip/lm4/i2c.o
                0x000000000002225c                i2c_raw_get_scl
 .text.i2c_raw_get_sda
                0x000000000002229a       0x3e build/samus/RW/chip/lm4/i2c.o
                0x000000000002229a                i2c_raw_get_sda
 .text.i2c_get_line_levels
                0x00000000000222d8       0x10 build/samus/RW/chip/lm4/i2c.o
                0x00000000000222d8                i2c_get_line_levels
 .text.chip_i2c_xfer
                0x00000000000222e8      0x178 build/samus/RW/chip/lm4/i2c.o
                0x00000000000222e8                chip_i2c_xfer
 .text.i2c_set_timeout
                0x0000000000022460       0x1c build/samus/RW/chip/lm4/i2c.o
                0x0000000000022460                i2c_set_timeout
 .text.i2c0_interrupt
                0x000000000002247c        0x6 build/samus/RW/chip/lm4/i2c.o
                0x000000000002247c                i2c0_interrupt
 .text.i2c1_interrupt
                0x0000000000022482        0x6 build/samus/RW/chip/lm4/i2c.o
                0x0000000000022482                i2c1_interrupt
 .text.i2c2_interrupt
                0x0000000000022488        0x6 build/samus/RW/chip/lm4/i2c.o
                0x0000000000022488                i2c2_interrupt
 .text.i2c3_interrupt
                0x000000000002248e        0x6 build/samus/RW/chip/lm4/i2c.o
                0x000000000002248e                i2c3_interrupt
 .text.i2c4_interrupt
                0x0000000000022494        0x6 build/samus/RW/chip/lm4/i2c.o
                0x0000000000022494                i2c4_interrupt
 .text.i2c5_interrupt
                0x000000000002249a        0x6 build/samus/RW/chip/lm4/i2c.o
                0x000000000002249a                i2c5_interrupt
 .text.irq_8_handler
                0x00000000000224a0       0x14 build/samus/RW/chip/lm4/i2c.o
                0x00000000000224a0                irq_8_handler
 .text.irq_37_handler
                0x00000000000224b4       0x14 build/samus/RW/chip/lm4/i2c.o
                0x00000000000224b4                irq_37_handler
 .text.irq_68_handler
                0x00000000000224c8       0x14 build/samus/RW/chip/lm4/i2c.o
                0x00000000000224c8                irq_68_handler
 .text.irq_69_handler
                0x00000000000224dc       0x14 build/samus/RW/chip/lm4/i2c.o
                0x00000000000224dc                irq_69_handler
 .text.irq_109_handler
                0x00000000000224f0       0x14 build/samus/RW/chip/lm4/i2c.o
                0x00000000000224f0                irq_109_handler
 .text.irq_110_handler
                0x0000000000022504       0x14 build/samus/RW/chip/lm4/i2c.o
                0x0000000000022504                irq_110_handler
 .text.jtag_pre_init
                0x0000000000022518       0xb8 build/samus/RW/chip/lm4/jtag.o
                0x0000000000022518                jtag_pre_init
 .text.jtag_interrupt
                0x00000000000225d0       0x24 build/samus/RW/chip/lm4/jtag.o
                0x00000000000225d0                jtag_interrupt
 .text.keyboard_raw_init
                0x00000000000225f4       0x9c build/samus/RW/chip/lm4/keyboard_raw.o
                0x00000000000225f4                keyboard_raw_init
 .text.keyboard_raw_task_start
                0x0000000000022690        0x6 build/samus/RW/chip/lm4/keyboard_raw.o
                0x0000000000022690                keyboard_raw_task_start
 *fill*         0x0000000000022696        0x2 
 .text.keyboard_raw_drive_column
                0x0000000000022698       0x38 build/samus/RW/chip/lm4/keyboard_raw.o
                0x0000000000022698                keyboard_raw_drive_column
 .text.keyboard_raw_read_rows
                0x00000000000226d0       0x10 build/samus/RW/chip/lm4/keyboard_raw.o
                0x00000000000226d0                keyboard_raw_read_rows
 .text.keyboard_raw_enable_interrupt
                0x00000000000226e0       0x1c build/samus/RW/chip/lm4/keyboard_raw.o
                0x00000000000226e0                keyboard_raw_enable_interrupt
 .text.keyboard_raw_interrupt
                0x00000000000226fc       0x18 build/samus/RW/chip/lm4/keyboard_raw.o
                0x00000000000226fc                keyboard_raw_interrupt
 .text.irq_55_handler
                0x0000000000022714       0x14 build/samus/RW/chip/lm4/keyboard_raw.o
                0x0000000000022714                irq_55_handler
 .text.lpc_send_response_packet
                0x0000000000022728       0x30 build/samus/RW/chip/lm4/lpc.o
 .text.lpc_send_response
                0x0000000000022758       0x78 build/samus/RW/chip/lm4/lpc.o
 .text.lpc_generate_sci
                0x00000000000227d0       0x2c build/samus/RW/chip/lm4/lpc.o
 .text.lpc_sysjump
                0x00000000000227fc       0x14 build/samus/RW/chip/lm4/lpc.o
 .text.lpc_get_protocol_info
                0x0000000000022810       0x32 build/samus/RW/chip/lm4/lpc.o
 .text.lpc_tick
                0x0000000000022842        0x6 build/samus/RW/chip/lm4/lpc.o
 .text.update_host_event_status
                0x0000000000022848       0xc8 build/samus/RW/chip/lm4/lpc.o
 .text.lpc_init
                0x0000000000022910      0x16c build/samus/RW/chip/lm4/lpc.o
 .text.lpc_resume
                0x0000000000022a7c       0x28 build/samus/RW/chip/lm4/lpc.o
 .text.lpc_get_memmap_range
                0x0000000000022aa4        0x8 build/samus/RW/chip/lm4/lpc.o
                0x0000000000022aa4                lpc_get_memmap_range
 .text.lpc_keyboard_has_char
                0x0000000000022aac       0x10 build/samus/RW/chip/lm4/lpc.o
                0x0000000000022aac                lpc_keyboard_has_char
 .text.lpc_keyboard_input_pending
                0x0000000000022abc       0x10 build/samus/RW/chip/lm4/lpc.o
                0x0000000000022abc                lpc_keyboard_input_pending
 .text.lpc_keyboard_put_char
                0x0000000000022acc       0x30 build/samus/RW/chip/lm4/lpc.o
                0x0000000000022acc                lpc_keyboard_put_char
 .text.lpc_keyboard_clear_buffer
                0x0000000000022afc       0x20 build/samus/RW/chip/lm4/lpc.o
                0x0000000000022afc                lpc_keyboard_clear_buffer
 .text.lpc_keyboard_resume_irq
                0x0000000000022b1c       0x2c build/samus/RW/chip/lm4/lpc.o
                0x0000000000022b1c                lpc_keyboard_resume_irq
 .text.lpc_comx_has_char
                0x0000000000022b48       0x10 build/samus/RW/chip/lm4/lpc.o
                0x0000000000022b48                lpc_comx_has_char
 .text.lpc_comx_get_char
                0x0000000000022b58        0xc build/samus/RW/chip/lm4/lpc.o
                0x0000000000022b58                lpc_comx_get_char
 .text.lpc_comx_put_char
                0x0000000000022b64        0xc build/samus/RW/chip/lm4/lpc.o
                0x0000000000022b64                lpc_comx_put_char
 .text.lpc_set_host_event_state
                0x0000000000022b70       0x14 build/samus/RW/chip/lm4/lpc.o
                0x0000000000022b70                lpc_set_host_event_state
 .text.lpc_query_host_event_state
                0x0000000000022b84       0x48 build/samus/RW/chip/lm4/lpc.o
                0x0000000000022b84                lpc_query_host_event_state
 .text.lpc_set_host_event_mask
                0x0000000000022bcc       0x10 build/samus/RW/chip/lm4/lpc.o
                0x0000000000022bcc                lpc_set_host_event_mask
 .text.lpc_get_host_event_mask
                0x0000000000022bdc       0x10 build/samus/RW/chip/lm4/lpc.o
                0x0000000000022bdc                lpc_get_host_event_mask
 .text.lpc_set_acpi_status_mask
                0x0000000000022bec       0x1c build/samus/RW/chip/lm4/lpc.o
                0x0000000000022bec                lpc_set_acpi_status_mask
 .text.lpc_clear_acpi_status_mask
                0x0000000000022c08       0x1c build/samus/RW/chip/lm4/lpc.o
                0x0000000000022c08                lpc_clear_acpi_status_mask
 .text.lpc_get_pltrst_asserted
                0x0000000000022c24       0x10 build/samus/RW/chip/lm4/lpc.o
                0x0000000000022c24                lpc_get_pltrst_asserted
 .text.lpc_interrupt
                0x0000000000022c34      0x230 build/samus/RW/chip/lm4/lpc.o
                0x0000000000022c34                lpc_interrupt
 .text.irq_108_handler
                0x0000000000022e64       0x14 build/samus/RW/chip/lm4/lpc.o
                0x0000000000022e64                irq_108_handler
 .text.peci_freq_changed
                0x0000000000022e78       0x58 build/samus/RW/chip/lm4/peci.o
 .text.peci_init
                0x0000000000022ed0       0x2c build/samus/RW/chip/lm4/peci.o
 .text.peci_get_cpu_temp
                0x0000000000022efc       0x1c build/samus/RW/chip/lm4/peci.o
                0x0000000000022efc                peci_get_cpu_temp
 .text.peci_temp_sensor_poll
                0x0000000000022f18       0x1c build/samus/RW/chip/lm4/peci.o
 .text.command_peci_temp
                0x0000000000022f34       0x3c build/samus/RW/chip/lm4/peci.o
 .text.peci_temp_sensor_get_val
                0x0000000000022f70       0x48 build/samus/RW/chip/lm4/peci.o
                0x0000000000022f70                peci_temp_sensor_get_val
 .text.pwm_init
                0x0000000000022fb8       0x14 build/samus/RW/chip/lm4/pwm.o
 .text.pwm_enable
                0x0000000000022fcc       0x10 build/samus/RW/chip/lm4/pwm.o
                0x0000000000022fcc                pwm_enable
 .text.pwm_get_enabled
                0x0000000000022fdc       0x10 build/samus/RW/chip/lm4/pwm.o
                0x0000000000022fdc                pwm_get_enabled
 .text.pwm_set_duty
                0x0000000000022fec       0x3c build/samus/RW/chip/lm4/pwm.o
                0x0000000000022fec                pwm_set_duty
 .text.pwm_get_duty
                0x0000000000023028       0x24 build/samus/RW/chip/lm4/pwm.o
                0x0000000000023028                pwm_get_duty
 .text.wait_for_hibctl_wc
                0x000000000002304c       0x20 build/samus/RW/chip/lm4/system.o
 .text.hibdata_write
                0x000000000002306c       0x28 build/samus/RW/chip/lm4/system.o
 .text.system_get_rtc_sec_subsec
                0x0000000000023094       0x30 build/samus/RW/chip/lm4/system.o
                0x0000000000023094                system_get_rtc_sec_subsec
 .text.set_hibernate_rtc_match_time
                0x00000000000230c4       0x5c build/samus/RW/chip/lm4/system.o
 .text.hibernate
                0x0000000000023120       0x64 build/samus/RW/chip/lm4/system.o
 .text.system_rtc_get_value
                0x0000000000023184       0x26 build/samus/RW/chip/lm4/system.o
 *fill*         0x00000000000231aa        0x2 
 .text.system_get_rtc
                0x00000000000231ac       0x2c build/samus/RW/chip/lm4/system.o
                0x00000000000231ac                system_get_rtc
 .text.system_set_rtc
                0x00000000000231d8       0x18 build/samus/RW/chip/lm4/system.o
                0x00000000000231d8                system_set_rtc
 .text.command_system_rtc
                0x00000000000231f0       0x60 build/samus/RW/chip/lm4/system.o
 .text.system_rtc_set_value
                0x0000000000023250       0x20 build/samus/RW/chip/lm4/system.o
 .text.system_set_rtc_alarm
                0x0000000000023270       0x34 build/samus/RW/chip/lm4/system.o
                0x0000000000023270                system_set_rtc_alarm
 .text.system_reset_rtc_alarm
                0x00000000000232a4       0x20 build/samus/RW/chip/lm4/system.o
                0x00000000000232a4                system_reset_rtc_alarm
 .text.__hibernate_irq
                0x00000000000232c4        0x4 build/samus/RW/chip/lm4/system.o
                0x00000000000232c4                __hibernate_irq
 .text.irq_43_handler
                0x00000000000232c8       0x14 build/samus/RW/chip/lm4/system.o
                0x00000000000232c8                irq_43_handler
 .text.system_enable_hib_interrupt
                0x00000000000232dc        0x6 build/samus/RW/chip/lm4/system.o
                0x00000000000232dc                system_enable_hib_interrupt
 .text.system_hibernate
                0x00000000000232e2       0x14 build/samus/RW/chip/lm4/system.o
                0x00000000000232e2                system_hibernate
 *fill*         0x00000000000232f6        0x2 
 .text.system_pre_init
                0x00000000000232f8      0x1c0 build/samus/RW/chip/lm4/system.o
                0x00000000000232f8                system_pre_init
 .text.system_reset
                0x00000000000234b8       0x6c build/samus/RW/chip/lm4/system.o
                0x00000000000234b8                system_reset
 .text.system_get_chip_vendor
                0x0000000000023524        0x8 build/samus/RW/chip/lm4/system.o
                0x0000000000023524                system_get_chip_vendor
 .text.system_get_chip_id_string
                0x000000000002352c       0x54 build/samus/RW/chip/lm4/system.o
                0x000000000002352c                system_get_chip_id_string
 .text.system_get_raw_chip_name
                0x0000000000023580       0x5c build/samus/RW/chip/lm4/system.o
                0x0000000000023580                system_get_raw_chip_name
 .text.system_get_chip_name
                0x00000000000235dc       0x3c build/samus/RW/chip/lm4/system.o
                0x00000000000235dc                system_get_chip_name
 .text.system_get_vbnvcontext
                0x0000000000023618        0x4 build/samus/RW/chip/lm4/system.o
                0x0000000000023618                system_get_vbnvcontext
 .text.system_set_vbnvcontext
                0x000000000002361c        0x4 build/samus/RW/chip/lm4/system.o
                0x000000000002361c                system_set_vbnvcontext
 .text.system_get_chip_revision
                0x0000000000023620       0x24 build/samus/RW/chip/lm4/system.o
                0x0000000000023620                system_get_chip_revision
 .text.uart_init_done
                0x0000000000023644        0xc build/samus/RW/chip/lm4/uart.o
                0x0000000000023644                uart_init_done
 .text.uart_tx_start
                0x0000000000023650       0x3c build/samus/RW/chip/lm4/uart.o
                0x0000000000023650                uart_tx_start
 .text.uart_tx_stop
                0x000000000002368c       0x2c build/samus/RW/chip/lm4/uart.o
                0x000000000002368c                uart_tx_stop
 .text.uart_tx_flush
                0x00000000000236b8       0x10 build/samus/RW/chip/lm4/uart.o
                0x00000000000236b8                uart_tx_flush
 .text.uart_tx_ready
                0x00000000000236c8       0x14 build/samus/RW/chip/lm4/uart.o
                0x00000000000236c8                uart_tx_ready
 .text.uart_tx_in_progress
                0x00000000000236dc       0x10 build/samus/RW/chip/lm4/uart.o
                0x00000000000236dc                uart_tx_in_progress
 .text.uart_rx_available
                0x00000000000236ec       0x14 build/samus/RW/chip/lm4/uart.o
                0x00000000000236ec                uart_rx_available
 .text.uart_write_char
                0x0000000000023700       0x18 build/samus/RW/chip/lm4/uart.o
                0x0000000000023700                uart_write_char
 .text.uart_read_char
                0x0000000000023718        0xc build/samus/RW/chip/lm4/uart.o
                0x0000000000023718                uart_read_char
 .text.uart_ec_interrupt
                0x0000000000023724       0x18 build/samus/RW/chip/lm4/uart.o
                0x0000000000023724                uart_ec_interrupt
 .text.irq_5_handler
                0x000000000002373c       0x14 build/samus/RW/chip/lm4/uart.o
                0x000000000002373c                irq_5_handler
 .text.uart_host_interrupt
                0x0000000000023750       0x50 build/samus/RW/chip/lm4/uart.o
                0x0000000000023750                uart_host_interrupt
 .text.irq_33_handler
                0x00000000000237a0       0x14 build/samus/RW/chip/lm4/uart.o
                0x00000000000237a0                irq_33_handler
 .text.uart_init
                0x00000000000237b4       0xa8 build/samus/RW/chip/lm4/uart.o
                0x00000000000237b4                uart_init
 .text.uart_enter_dsleep
                0x000000000002385c       0x44 build/samus/RW/chip/lm4/uart.o
                0x000000000002385c                uart_enter_dsleep
 .text.uart_exit_dsleep
                0x00000000000238a0       0x50 build/samus/RW/chip/lm4/uart.o
                0x00000000000238a0                uart_exit_dsleep
 .text.uart_deepsleep_interrupt
                0x00000000000238f0       0x10 build/samus/RW/chip/lm4/uart.o
                0x00000000000238f0                uart_deepsleep_interrupt
 .text.uart_comx_enable
                0x0000000000023900       0x1c build/samus/RW/chip/lm4/uart.o
                0x0000000000023900                uart_comx_enable
 .text.uart_comx_putc_ok
                0x000000000002391c       0x24 build/samus/RW/chip/lm4/uart.o
                0x000000000002391c                uart_comx_putc_ok
 .text.uart_comx_putc
                0x0000000000023940        0xc build/samus/RW/chip/lm4/uart.o
                0x0000000000023940                uart_comx_putc
 .text.watchdog_reload
                0x000000000002394c       0x48 build/samus/RW/chip/lm4/watchdog.o
                0x000000000002394c                watchdog_reload
 .text.watchdog_freq_changed
                0x0000000000023994       0x24 build/samus/RW/chip/lm4/watchdog.o
 .text.irq_18_handler
                0x00000000000239b8       0x1a build/samus/RW/chip/lm4/watchdog.o
                0x00000000000239b8                irq_18_handler
 *fill*         0x00000000000239d2        0x2 
 .text.watchdog_init
                0x00000000000239d4       0x4c build/samus/RW/chip/lm4/watchdog.o
                0x00000000000239d4                watchdog_init
 .text.acpi_disable_burst_deferred
                0x0000000000023a20       0x24 build/samus/RW/common/acpi.o
 .text.acpi_ap_to_ec
                0x0000000000023a44      0x1c8 build/samus/RW/common/acpi.o
                0x0000000000023a44                acpi_ap_to_ec
 .text.command_adc
                0x0000000000023c0c       0x84 build/samus/RW/common/adc.o
 .text.als_task_disable
                0x0000000000023c90       0x10 build/samus/RW/common/als.o
 .text.als_task_enable
                0x0000000000023ca0       0x44 build/samus/RW/common/als.o
 .text.als_task_init
                0x0000000000023ce4       0x1a build/samus/RW/common/als.o
 *fill*         0x0000000000023cfe        0x2 
 .text.als_read
                0x0000000000023d00       0x14 build/samus/RW/common/als.o
                0x0000000000023d00                als_read
 .text.als_task
                0x0000000000023d14       0x34 build/samus/RW/common/als.o
                0x0000000000023d14                als_task
 .text.print_item_name
                0x0000000000023d48       0x10 build/samus/RW/common/battery.o
 .text.check_print_error
                0x0000000000023d58       0x2c build/samus/RW/common/battery.o
 .text.pending_cutoff_deferred
                0x0000000000023d84       0x24 build/samus/RW/common/battery.o
 .text.clear_pending_cutoff
                0x0000000000023da8       0x28 build/samus/RW/common/battery.o
 .text.check_pending_cutoff
                0x0000000000023dd0       0x30 build/samus/RW/common/battery.o
 .text.battery_command_cutoff
                0x0000000000023e00       0x54 build/samus/RW/common/battery.o
 .text.command_cutoff
                0x0000000000023e54       0x44 build/samus/RW/common/battery.o
 .text.print_battery_debug
                0x0000000000023e98      0x35c build/samus/RW/common/battery.o
                0x0000000000023e98                print_battery_debug
 .text.command_battery
                0x00000000000241f4       0x7c build/samus/RW/common/battery.o
 .text.battery_is_cut_off
                0x0000000000024270       0x10 build/samus/RW/common/battery.o
                0x0000000000024270                battery_is_cut_off
 .text.reset_current_limit
                0x0000000000024280       0x10 build/samus/RW/common/charge_state_v2.o
 .text.charge_command_current_limit
                0x0000000000024290       0x24 build/samus/RW/common/charge_state_v2.o
 .text.charger_init
                0x00000000000242b4       0x1c build/samus/RW/common/charge_state_v2.o
                0x00000000000242b4                charger_init
 .text.problem  0x00000000000242d0       0x6c build/samus/RW/common/charge_state_v2.o
 .text.dump_charge_state
                0x000000000002433c      0x1dc build/samus/RW/common/charge_state_v2.o
 .text.charge_request
                0x0000000000024518       0xac build/samus/RW/common/charge_state_v2.o
 .text.charge_command_charge_state
                0x00000000000245c4      0x1a4 build/samus/RW/common/charge_state_v2.o
 .text.command_chgstate
                0x0000000000024768       0x88 build/samus/RW/common/charge_state_v2.o
 .text.charge_wakeup
                0x00000000000247f0        0xc build/samus/RW/common/charge_state_v2.o
 .text.charge_command_charge_control
                0x00000000000247fc       0x74 build/samus/RW/common/charge_state_v2.o
 .text.charger_current_battery_params
                0x0000000000024870        0x8 build/samus/RW/common/charge_state_v2.o
                0x0000000000024870                charger_current_battery_params
 .text.get_desired_input_current
                0x0000000000024878       0x1a build/samus/RW/common/charge_state_v2.o
                0x0000000000024878                get_desired_input_current
 *fill*         0x0000000000024892        0x6 
 .text.charger_task
                0x0000000000024898      0x7f0 build/samus/RW/common/charge_state_v2.o
                0x0000000000024898                charger_task
 .text.charge_want_shutdown
                0x0000000000025088       0x24 build/samus/RW/common/charge_state_v2.o
                0x0000000000025088                charge_want_shutdown
 .text.charge_prevent_power_on
                0x00000000000250ac       0x5c build/samus/RW/common/charge_state_v2.o
                0x00000000000250ac                charge_prevent_power_on
 .text.charge_get_state
                0x0000000000025108       0x38 build/samus/RW/common/charge_state_v2.o
                0x0000000000025108                charge_get_state
 .text.charge_get_flags
                0x0000000000025140       0x24 build/samus/RW/common/charge_state_v2.o
                0x0000000000025140                charge_get_flags
 .text.charge_get_percent
                0x0000000000025164       0x14 build/samus/RW/common/charge_state_v2.o
                0x0000000000025164                charge_get_percent
 .text.charge_temp_sensor_get_val
                0x0000000000025178       0x20 build/samus/RW/common/charge_state_v2.o
                0x0000000000025178                charge_temp_sensor_get_val
 .text.charge_set_input_current_limit
                0x0000000000025198       0x2c build/samus/RW/common/charge_state_v2.o
                0x0000000000025198                charge_set_input_current_limit
 .text.dptf_disable_hook
                0x00000000000251c4       0x10 build/samus/RW/common/charger.o
 .text.print_item_name
                0x00000000000251d4       0x10 build/samus/RW/common/charger.o
 .text.check_print_error
                0x00000000000251e4       0x28 build/samus/RW/common/charger.o
 .text.dptf_set_charging_current_limit
                0x000000000002520c       0x10 build/samus/RW/common/charger.o
                0x000000000002520c                dptf_set_charging_current_limit
 .text.dptf_get_charging_current_limit
                0x000000000002521c        0xc build/samus/RW/common/charger.o
                0x000000000002521c                dptf_get_charging_current_limit
 .text.charger_closest_voltage
                0x0000000000025228       0x28 build/samus/RW/common/charger.o
                0x0000000000025228                charger_closest_voltage
 .text.charger_closest_current
                0x0000000000025250       0x3c build/samus/RW/common/charger.o
                0x0000000000025250                charger_closest_current
 .text.charger_get_params
                0x000000000002528c       0x64 build/samus/RW/common/charger.o
                0x000000000002528c                charger_get_params
 .text.print_charger_debug
                0x00000000000252f0      0x140 build/samus/RW/common/charger.o
                0x00000000000252f0                print_charger_debug
 .text.command_charger
                0x0000000000025430       0xbc build/samus/RW/common/charger.o
 .text.command_apreset
                0x00000000000254ec       0x4c build/samus/RW/common/chipset.o
 .text.command_apshutdown
                0x0000000000025538        0xa build/samus/RW/common/chipset.o
 *fill*         0x0000000000025542        0x2 
 .text.command_history
                0x0000000000025544       0x50 build/samus/RW/common/console.o
 .text.find_command
                0x0000000000025594       0x48 build/samus/RW/common/console.o
 .text.console_putc
                0x00000000000255dc        0x4 build/samus/RW/common/console.o
 .text.repeat_char
                0x00000000000255e0       0x14 build/samus/RW/common/console.o
 .text.command_help
                0x00000000000255f4      0x138 build/samus/RW/common/console.o
 .text.load_history
                0x000000000002572c       0x74 build/samus/RW/common/console.o
 .text.console_has_input
                0x00000000000257a0       0x1e build/samus/RW/common/console.o
                0x00000000000257a0                console_has_input
 *fill*         0x00000000000257be        0x2 
 .text.console_task
                0x00000000000257c0      0x530 build/samus/RW/common/console.o
                0x00000000000257c0                console_task
 .text.ucd_lb_queue_put
                0x0000000000025cf0       0x20 build/samus/RW/common/console_output.o
                0x0000000000025cf0                ucd_lb_queue_put
 .text.ucd_lb_queue_init
                0x0000000000025d10        0xc build/samus/RW/common/console_output.o
                0x0000000000025d10                ucd_lb_queue_init
 .text.ucd_lb_queue_puts
                0x0000000000025d1c       0x1c build/samus/RW/common/console_output.o
                0x0000000000025d1c                ucd_lb_queue_puts
 .text.cputs    0x0000000000025d38       0x28 build/samus/RW/common/console_output.o
                0x0000000000025d38                cputs
 .text.cprintf  0x0000000000025d60       0x3c build/samus/RW/common/console_output.o
                0x0000000000025d60                cprintf
 .text.command_ch
                0x0000000000025d9c       0xa8 build/samus/RW/common/console_output.o
 .text.cprints  0x0000000000025e44       0x64 build/samus/RW/common/console_output.o
                0x0000000000025e44                cprints
 .text.cflush   0x0000000000025ea8        0x4 build/samus/RW/common/console_output.o
                0x0000000000025ea8                cflush
 .text.hc_pwm_get_fan_target_rpm
                0x0000000000025eac       0x2c build/samus/RW/common/fan.o
 .text.cc_faninfo
                0x0000000000025ed8      0x154 build/samus/RW/common/fan.o
 .text.pwm_fan_resume
                0x000000000002602c       0x1c build/samus/RW/common/fan.o
 .text.set_enabled
                0x0000000000026048       0x2c build/samus/RW/common/fan.o
 .text.pwm_fan_preserve_state
                0x0000000000026074       0x30 build/samus/RW/common/fan.o
 .text.pwm_fan_second
                0x00000000000260a4       0x64 build/samus/RW/common/fan.o
 .text.set_duty_cycle
                0x0000000000026108       0x44 build/samus/RW/common/fan.o
 .text.cc_fanduty
                0x000000000002614c       0x6c build/samus/RW/common/fan.o
 .text.hc_pwm_set_fan_duty
                0x00000000000261b8       0x5c build/samus/RW/common/fan.o
 .text.hc_pwm_set_fan_target_rpm
                0x0000000000026214       0xd8 build/samus/RW/common/fan.o
 .text.hc_thermal_auto_fan_ctrl
                0x00000000000262ec       0x4c build/samus/RW/common/fan.o
 .text.pwm_fan_S3_S5
                0x0000000000026338       0x44 build/samus/RW/common/fan.o
 .text.pwm_fan_init
                0x000000000002637c       0xa0 build/samus/RW/common/fan.o
 .text.cc_fanauto
                0x000000000002641c       0x54 build/samus/RW/common/fan.o
 .text.fan_percent_to_rpm
                0x0000000000026470       0x2c build/samus/RW/common/fan.o
                0x0000000000026470                fan_percent_to_rpm
 .text.cc_fanset
                0x000000000002649c       0xc4 build/samus/RW/common/fan.o
 .text.fan_set_percent_needed
                0x0000000000026560       0x68 build/samus/RW/common/fan.o
                0x0000000000026560                fan_set_percent_needed
 .text.dptf_get_fan_duty_target
                0x00000000000265c8       0x34 build/samus/RW/common/fan.o
                0x00000000000265c8                dptf_get_fan_duty_target
 .text.dptf_set_fan_duty_target
                0x00000000000265fc       0x44 build/samus/RW/common/fan.o
                0x00000000000265fc                dptf_set_fan_duty_target
 .text.flash_command_get_info
                0x0000000000026640       0x78 build/samus/RW/common/flash.o
 .text.flash_command_region_info
                0x00000000000266b8       0x6e build/samus/RW/common/flash.o
 .text.flash_range_ok
                0x0000000000026726       0x22 build/samus/RW/common/flash.o
                0x0000000000026726                flash_range_ok
 .text.flash_dataptr
                0x0000000000026748       0x1c build/samus/RW/common/flash.o
                0x0000000000026748                flash_dataptr
 .text.flash_is_erased
                0x0000000000026764       0x30 build/samus/RW/common/flash.o
                0x0000000000026764                flash_is_erased
 .text.flash_read
                0x0000000000026794       0x26 build/samus/RW/common/flash.o
                0x0000000000026794                flash_read
 .text.flash_command_read
                0x00000000000267ba       0x50 build/samus/RW/common/flash.o
 .text.flash_write
                0x000000000002680a       0x36 build/samus/RW/common/flash.o
                0x000000000002680a                flash_write
 .text.flash_erase
                0x0000000000026840       0x34 build/samus/RW/common/flash.o
                0x0000000000026840                flash_erase
 .text.flash_protect_at_boot
                0x0000000000026874       0x72 build/samus/RW/common/flash.o
                0x0000000000026874                flash_protect_at_boot
 .text.flash_get_protect
                0x00000000000268e6       0x86 build/samus/RW/common/flash.o
                0x00000000000268e6                flash_get_protect
 .text.command_flash_info
                0x000000000002696c      0x130 build/samus/RW/common/flash.o
 .text.flash_command_write
                0x0000000000026a9c       0x7a build/samus/RW/common/flash.o
 .text.flash_command_erase
                0x0000000000026b16       0x66 build/samus/RW/common/flash.o
 .text.flash_set_protect
                0x0000000000026b7c       0x88 build/samus/RW/common/flash.o
                0x0000000000026b7c                flash_set_protect
 .text.command_flash_wp
                0x0000000000026c04       0x78 build/samus/RW/common/flash.o
 .text.flash_command_protect
                0x0000000000026c7c       0x98 build/samus/RW/common/flash.o
 .text.gesture_chipset_resume
                0x0000000000026d14        0xc build/samus/RW/common/gesture.o
 .text.gesture_chipset_suspend
                0x0000000000026d20       0x18 build/samus/RW/common/gesture.o
 .text.command_tap_info
                0x0000000000026d38       0x84 build/samus/RW/common/gesture.o
 .text.gesture_calc
                0x0000000000026dbc      0x2c0 build/samus/RW/common/gesture.o
                0x0000000000026dbc                gesture_calc
 .text.last_val_changed
                0x000000000002707c       0x6c build/samus/RW/common/gpio.o
 .text.find_signal_by_name
                0x00000000000270e8       0x3c build/samus/RW/common/gpio.o
 .text.gpio_command_get
                0x0000000000027124       0x98 build/samus/RW/common/gpio.o
 .text.gpio_command_set
                0x00000000000271bc       0x40 build/samus/RW/common/gpio.o
 .text.command_gpio_get
                0x00000000000271fc       0x94 build/samus/RW/common/gpio.o
 .text.command_gpio_set
                0x0000000000027290       0x54 build/samus/RW/common/gpio.o
 .text.gpio_config_pins
                0x00000000000272e4       0xa0 build/samus/RW/common/gpio.o
                0x00000000000272e4                gpio_config_pins
 .text.gpio_config_module
                0x0000000000027384        0xc build/samus/RW/common/gpio.o
                0x0000000000027384                gpio_config_module
 .text.gpio_set_flags
                0x0000000000027390       0x14 build/samus/RW/common/gpio.o
                0x0000000000027390                gpio_set_flags
 .text.hook_notify
                0x00000000000273a4       0x60 build/samus/RW/common/hooks.o
                0x00000000000273a4                hook_notify
 .text.hook_call_deferred
                0x0000000000027404       0x78 build/samus/RW/common/hooks.o
                0x0000000000027404                hook_call_deferred
 .text.hook_task
                0x000000000002747c      0x148 build/samus/RW/common/hooks.o
                0x000000000002747c                hook_task
 .text.host_packet_respond
                0x00000000000275c4       0x78 build/samus/RW/common/host_command.o
                0x00000000000275c4                host_packet_respond
 .text.host_command_proto_version
                0x000000000002763c       0x16 build/samus/RW/common/host_command.o
 .text.host_command_hello
                0x0000000000027652       0x3c build/samus/RW/common/host_command.o
 .text.host_command_read_test
                0x000000000002768e       0x64 build/samus/RW/common/host_command.o
 *fill*         0x00000000000276f2        0x2 
 .text.host_command_entering_mode
                0x00000000000276f4       0x28 build/samus/RW/common/host_command.o
 .text.host_command_get_features
                0x000000000002771c       0x26 build/samus/RW/common/host_command.o
 .text.host_command_test_protocol
                0x0000000000027742       0x58 build/samus/RW/common/host_command.o
 *fill*         0x000000000002779a        0x2 
 .text.command_hcdebug
                0x000000000002779c       0x48 build/samus/RW/common/host_command.o
 .text.host_command_get_cmd_versions
                0x00000000000277e4       0x5c build/samus/RW/common/host_command.o
 .text.host_get_memmap
                0x0000000000027840        0xc build/samus/RW/common/host_command.o
                0x0000000000027840                host_get_memmap
 .text.host_send_response
                0x000000000002784c        0x4 build/samus/RW/common/host_command.o
                0x000000000002784c                host_send_response
 .text.host_command_received
                0x0000000000027850       0x38 build/samus/RW/common/host_command.o
                0x0000000000027850                host_command_received
 .text.host_packet_receive
                0x0000000000027888      0x124 build/samus/RW/common/host_command.o
                0x0000000000027888                host_packet_receive
 .text.host_command_process
                0x00000000000279ac      0x12c build/samus/RW/common/host_command.o
                0x00000000000279ac                host_command_process
 .text.host_command_task
                0x0000000000027ad8       0xdc build/samus/RW/common/host_command.o
                0x0000000000027ad8                host_command_task
 .text.pd_host_command
                0x0000000000027bb4      0x254 build/samus/RW/common/host_command_master.o
                0x0000000000027bb4                pd_host_command
 .text.command_pd_mcu
                0x0000000000027e08       0xb8 build/samus/RW/common/host_command_master.o
 .text.pd_exchange_status
                0x0000000000027ec0       0xf4 build/samus/RW/common/host_command_pd.o
 .text.pd_get_active_charge_port
                0x0000000000027fb4        0xc build/samus/RW/common/host_command_pd.o
                0x0000000000027fb4                pd_get_active_charge_port
 .text.host_command_pd_send_status
                0x0000000000027fc0       0x14 build/samus/RW/common/host_command_pd.o
                0x0000000000027fc0                host_command_pd_send_status
 .text.pd_command_task
                0x0000000000027fd4       0x1a build/samus/RW/common/host_command_pd.o
                0x0000000000027fd4                pd_command_task
 *fill*         0x0000000000027fee        0x2 
 .text.host_event_get_b
                0x0000000000027ff0       0x24 build/samus/RW/common/host_event_commands.o
 .text.host_event_set_smi_mask
                0x0000000000028014       0x22 build/samus/RW/common/host_event_commands.o
 .text.host_event_set_sci_mask
                0x0000000000028036       0x22 build/samus/RW/common/host_event_commands.o
 .text.host_event_set_wake_mask
                0x0000000000028058       0x22 build/samus/RW/common/host_event_commands.o
 .text.host_event_get_smi_mask
                0x000000000002807a       0x26 build/samus/RW/common/host_event_commands.o
 .text.host_event_get_sci_mask
                0x00000000000280a0       0x26 build/samus/RW/common/host_event_commands.o
 .text.host_event_get_wake_mask
                0x00000000000280c6       0x26 build/samus/RW/common/host_event_commands.o
 .text.host_clear_events_b
                0x00000000000280ec       0x34 build/samus/RW/common/host_event_commands.o
 .text.host_event_clear_b
                0x0000000000028120       0x20 build/samus/RW/common/host_event_commands.o
 .text.host_get_next_event
                0x0000000000028140       0x34 build/samus/RW/common/host_event_commands.o
 .text.host_get_events
                0x0000000000028174        0xc build/samus/RW/common/host_event_commands.o
                0x0000000000028174                host_get_events
 .text.host_set_events
                0x0000000000028180       0x5c build/samus/RW/common/host_event_commands.o
                0x0000000000028180                host_set_events
 .text.host_clear_events
                0x00000000000281dc       0x44 build/samus/RW/common/host_event_commands.o
                0x00000000000281dc                host_clear_events
 .text.command_host_event
                0x0000000000028220      0x104 build/samus/RW/common/host_event_commands.o
 .text.host_event_clear
                0x0000000000028324       0x20 build/samus/RW/common/host_event_commands.o
 .text.host_throttle_cpu
                0x0000000000028344       0x10 build/samus/RW/common/host_event_commands.o
                0x0000000000028344                host_throttle_cpu
 .text.i2c_lock.part.0
                0x0000000000028354       0x30 build/samus/RW/common/i2c.o
 .text.i2c_xfer
                0x0000000000028384        0xa build/samus/RW/common/i2c.o
                0x0000000000028384                i2c_xfer
 *fill*         0x000000000002838e        0x2 
 .text.i2c_lock
                0x0000000000028390       0x38 build/samus/RW/common/i2c.o
                0x0000000000028390                i2c_lock
 .text.i2c_command_passthru
                0x00000000000283c8      0x15c build/samus/RW/common/i2c.o
 .text.command_scan
                0x0000000000028524       0xbc build/samus/RW/common/i2c.o
 .text.i2c_prepare_sysjump
                0x00000000000285e0       0x3c build/samus/RW/common/i2c.o
                0x00000000000285e0                i2c_prepare_sysjump
 .text.i2c_read16
                0x000000000002861c       0x5e build/samus/RW/common/i2c.o
                0x000000000002861c                i2c_read16
 .text.i2c_write16
                0x000000000002867a       0x50 build/samus/RW/common/i2c.o
                0x000000000002867a                i2c_write16
 .text.i2c_read8
                0x00000000000286ca       0x44 build/samus/RW/common/i2c.o
                0x00000000000286ca                i2c_read8
 *fill*         0x000000000002870e        0x2 
 .text.i2c_command_read
                0x0000000000028710       0x78 build/samus/RW/common/i2c.o
 .text.i2c_write8
                0x0000000000028788       0x3c build/samus/RW/common/i2c.o
                0x0000000000028788                i2c_write8
 .text.i2c_command_write
                0x00000000000287c4       0x70 build/samus/RW/common/i2c.o
 .text.command_i2cxfer
                0x0000000000028834      0x184 build/samus/RW/common/i2c.o
 .text.i2c_read_string
                0x00000000000289b8       0x74 build/samus/RW/common/i2c.o
                0x00000000000289b8                i2c_read_string
 .text.get_sda_from_i2c_port
                0x0000000000028a2c       0x64 build/samus/RW/common/i2c.o
                0x0000000000028a2c                get_sda_from_i2c_port
 .text.get_scl_from_i2c_port
                0x0000000000028a90       0x60 build/samus/RW/common/i2c.o
                0x0000000000028a90                get_scl_from_i2c_port
 .text.i2c_raw_set_scl
                0x0000000000028af0       0x1c build/samus/RW/common/i2c.o
                0x0000000000028af0                i2c_raw_set_scl
 .text.i2c_raw_set_sda
                0x0000000000028b0c       0x1c build/samus/RW/common/i2c.o
                0x0000000000028b0c                i2c_raw_set_sda
 .text.i2c_raw_mode
                0x0000000000028b28       0xb4 build/samus/RW/common/i2c.o
                0x0000000000028b28                i2c_raw_mode
 .text.i2c_unwedge
                0x0000000000028bdc       0xfc build/samus/RW/common/i2c.o
                0x0000000000028bdc                i2c_unwedge
 .text.kblog_put
                0x0000000000028cd8       0x28 build/samus/RW/common/keyboard_8042.o
 .text.command_codeset
                0x0000000000028d00       0x48 build/samus/RW/common/keyboard_8042.o
 .text.command_typematic
                0x0000000000028d48       0xc8 build/samus/RW/common/keyboard_8042.o
 .text.keyboard_preserve_state
                0x0000000000028e10       0x38 build/samus/RW/common/keyboard_8042.o
 .text.scancode_bytes
                0x0000000000028e48       0x90 build/samus/RW/common/keyboard_8042.o
 .text.command_keyboard_log
                0x0000000000028ed8       0xac build/samus/RW/common/keyboard_8042.o
 .text.command_8042_internal.isra.2
                0x0000000000028f84      0x130 build/samus/RW/common/keyboard_8042.o
 .text.reset_rate_and_delay
                0x00000000000290b4       0x1c build/samus/RW/common/keyboard_8042.o
 .text.i8042_send_to_host
                0x00000000000290d0       0x64 build/samus/RW/common/keyboard_8042.o
 .text.keyboard_host_write
                0x0000000000029134       0x30 build/samus/RW/common/keyboard_8042.o
                0x0000000000029134                keyboard_host_write
 .text.keyboard_clear_buffer
                0x0000000000029164       0x28 build/samus/RW/common/keyboard_8042.o
                0x0000000000029164                keyboard_clear_buffer
 .text.keyboard_enable
                0x000000000002918c       0x50 build/samus/RW/common/keyboard_8042.o
 .text.update_ctl_ram
                0x00000000000291dc       0x68 build/samus/RW/common/keyboard_8042.o
 .text.command_controller_ram
                0x0000000000029244       0x54 build/samus/RW/common/keyboard_8042.o
 .text.keyboard_restore_state
                0x0000000000029298       0x40 build/samus/RW/common/keyboard_8042.o
 .text.command_keyboard
                0x00000000000292d8       0x38 build/samus/RW/common/keyboard_8042.o
 .text.command_8042
                0x0000000000029310      0x134 build/samus/RW/common/keyboard_8042.o
 .text.keyboard_state_changed
                0x0000000000029444      0x1d0 build/samus/RW/common/keyboard_8042.o
                0x0000000000029444                keyboard_state_changed
 .text.keyboard_protocol_task
                0x0000000000029614      0x480 build/samus/RW/common/keyboard_8042.o
                0x0000000000029614                keyboard_protocol_task
 .text.keyboard_update_button
                0x0000000000029a94       0xc0 build/samus/RW/common/keyboard_8042.o
                0x0000000000029a94                keyboard_update_button
 .text.keyboard_power_button
                0x0000000000029b54       0x12 build/samus/RW/common/keyboard_8042.o
 *fill*         0x0000000000029b66        0x2 
 .text.keyboard_freq_change
                0x0000000000029b68       0x24 build/samus/RW/common/keyboard_scan.o
 .text.read_matrix
                0x0000000000029b8c       0x5c build/samus/RW/common/keyboard_scan.o
 .text.ensure_keyboard_scanned
                0x0000000000029be8       0x58 build/samus/RW/common/keyboard_scan.o
 .text.print_state
                0x0000000000029c40       0x48 build/samus/RW/common/keyboard_scan.o
 .text.command_ksstate
                0x0000000000029c88       0x7c build/samus/RW/common/keyboard_scan.o
 .text.simulate_key
                0x0000000000029d04       0x78 build/samus/RW/common/keyboard_scan.o
 .text.mkbp_command_simulate_key
                0x0000000000029d7c       0x2a build/samus/RW/common/keyboard_scan.o
 *fill*         0x0000000000029da6        0x2 
 .text.command_keyboard_press
                0x0000000000029da8       0xc8 build/samus/RW/common/keyboard_scan.o
 .text.keyboard_scan_enable
                0x0000000000029e70       0x3c build/samus/RW/common/keyboard_scan.o
                0x0000000000029e70                keyboard_scan_enable
 .text.keyboard_lid_change
                0x0000000000029eac       0x18 build/samus/RW/common/keyboard_scan.o
 .text.keyboard_scan_get_boot_key
                0x0000000000029ec4        0xc build/samus/RW/common/keyboard_scan.o
                0x0000000000029ec4                keyboard_scan_get_boot_key
 .text.keyboard_scan_init
                0x0000000000029ed0       0xe4 build/samus/RW/common/keyboard_scan.o
                0x0000000000029ed0                keyboard_scan_init
 .text.keyboard_scan_task
                0x0000000000029fb4      0x32c build/samus/RW/common/keyboard_scan.o
                0x0000000000029fb4                keyboard_scan_task
 .text.controller_write
                0x000000000002a2e0       0x34 build/samus/RW/common/lb_common.o
 .text.setrgb   0x000000000002a314       0xa4 build/samus/RW/common/lb_common.o
 .text.lb_set_rgb
                0x000000000002a3b8       0x2e build/samus/RW/common/lb_common.o
                0x000000000002a3b8                lb_set_rgb
 *fill*         0x000000000002a3e6        0x2 
 .text.lb_get_rgb
                0x000000000002a3e8       0x28 build/samus/RW/common/lb_common.o
                0x000000000002a3e8                lb_get_rgb
 .text.lb_set_brightness
                0x000000000002a410       0x3c build/samus/RW/common/lb_common.o
                0x000000000002a410                lb_set_brightness
 .text.lb_get_brightness
                0x000000000002a44c        0xc build/samus/RW/common/lb_common.o
                0x000000000002a44c                lb_get_brightness
 .text.lb_init  0x000000000002a458       0x8c build/samus/RW/common/lb_common.o
                0x000000000002a458                lb_init
 .text.lb_off   0x000000000002a4e4       0x38 build/samus/RW/common/lb_common.o
                0x000000000002a4e4                lb_off
 .text.lb_on    0x000000000002a51c       0x38 build/samus/RW/common/lb_common.o
                0x000000000002a51c                lb_on
 .text.lb_hc_cmd_dump
                0x000000000002a554       0x8c build/samus/RW/common/lb_common.o
                0x000000000002a554                lb_hc_cmd_dump
 .text.lb_hc_cmd_reg
                0x000000000002a5e0       0x22 build/samus/RW/common/lb_common.o
                0x000000000002a5e0                lb_hc_cmd_reg
 *fill*         0x000000000002a602        0x2 
 .text.hc_force_lid_open
                0x000000000002a604       0x24 build/samus/RW/common/lid_switch.o
 .text.lid_init
                0x000000000002a628       0x28 build/samus/RW/common/lid_switch.o
 .text.lid_switch_open
                0x000000000002a650       0x3c build/samus/RW/common/lid_switch.o
 .text.command_lidopen
                0x000000000002a68c        0xa build/samus/RW/common/lid_switch.o
 *fill*         0x000000000002a696        0x2 
 .text.lid_switch_close
                0x000000000002a698       0x3c build/samus/RW/common/lid_switch.o
 .text.command_lidclose
                0x000000000002a6d4        0xa build/samus/RW/common/lid_switch.o
 *fill*         0x000000000002a6de        0x2 
 .text.lid_change_deferred
                0x000000000002a6e0       0x34 build/samus/RW/common/lid_switch.o
 .text.lid_is_open
                0x000000000002a714        0xc build/samus/RW/common/lid_switch.o
                0x000000000002a714                lid_is_open
 .text.lid_interrupt
                0x000000000002a720       0x10 build/samus/RW/common/lid_switch.o
                0x000000000002a720                lid_interrupt
 .text.sequence_RUN
                0x000000000002a730        0x4 build/samus/RW/common/lightbar.o
 .text.lightbyte_SWAP_COLORS
                0x000000000002a734       0x2c build/samus/RW/common/lightbar.o
 .text.lightbyte_HALT
                0x000000000002a760        0x4 build/samus/RW/common/lightbar.o
 .text.lightbar_preserve_state
                0x000000000002a764       0x14 build/samus/RW/common/lightbar.o
 .text.decode_32
                0x000000000002a778       0x80 build/samus/RW/common/lightbar.o
 .text.lightbyte_SET_RAMP_DELAY
                0x000000000002a7f8        0xc build/samus/RW/common/lightbar.o
 .text.lightbyte_SET_WAIT_DELAY
                0x000000000002a804        0xc build/samus/RW/common/lightbar.o
 .text.decode_8
                0x000000000002a810       0x38 build/samus/RW/common/lightbar.o
 .text.lightbyte_SET_COLOR_RGB
                0x000000000002a848       0x78 build/samus/RW/common/lightbar.o
 .text.lightbyte_SET_COLOR_SINGLE
                0x000000000002a8c0       0x60 build/samus/RW/common/lightbar.o
 .text.lightbyte_JUMP_IF_CHARGING
                0x000000000002a920       0x28 build/samus/RW/common/lightbar.o
 .text.lightbyte_JUMP
                0x000000000002a948        0xc build/samus/RW/common/lightbar.o
 .text.lightbyte_SET_BRIGHTNESS
                0x000000000002a954       0x20 build/samus/RW/common/lightbar.o
 .text.my_blink_from_queue
                0x000000000002a974      0x130 build/samus/RW/common/lightbar.o
 .text.my_led_flash
                0x000000000002aaa4      0x270 build/samus/RW/common/lightbar.o
                0x000000000002aaa4                my_led_flash
 .text.lightbyte_ON
                0x000000000002ad14        0xa build/samus/RW/common/lightbar.o
 *fill*         0x000000000002ad1e        0x2 
 .text.sequence_PROGRAM
                0x000000000002ad20       0xc8 build/samus/RW/common/lightbar.o
 .text.lightbyte_WAIT
                0x000000000002ade8       0x30 build/samus/RW/common/lightbar.o
 .text.sequence_KONAMI
                0x000000000002ae18       0x70 build/samus/RW/common/lightbar.o
 .text.sequence_STOP
                0x000000000002ae88       0x48 build/samus/RW/common/lightbar.o
 .text.lightbyte_GET_COLORS
                0x000000000002aed0       0x24 build/samus/RW/common/lightbar.o
 .text.lightbyte_OFF
                0x000000000002aef4        0xa build/samus/RW/common/lightbar.o
 .text.sequence_S3S5
                0x000000000002aefe        0xa build/samus/RW/common/lightbar.o
 .text.sequence_ERROR
                0x000000000002af08       0x6c build/samus/RW/common/lightbar.o
 .text.sequence_S5S3
                0x000000000002af74       0x22 build/samus/RW/common/lightbar.o
 *fill*         0x000000000002af96        0x2 
 .text.cycle_010
                0x000000000002af98       0x40 build/samus/RW/common/lightbar.o
 .text.pulse_google_colors
                0x000000000002afd8       0xf0 build/samus/RW/common/lightbar.o
 .text.sequence_S0S3
                0x000000000002b0c8       0xa8 build/samus/RW/common/lightbar.o
 .text.get_battery_level
                0x000000000002b170       0xbc build/samus/RW/common/lightbar.o
 .text.lightbyte_JUMP_BATTERY
                0x000000000002b22c       0x44 build/samus/RW/common/lightbar.o
 .text.sequence_S0
                0x000000000002b270       0xf0 build/samus/RW/common/lightbar.o
 .text.sequence_S5
                0x000000000002b360      0x148 build/samus/RW/common/lightbar.o
 .text.sequence_S3S0
                0x000000000002b4a8       0x1c build/samus/RW/common/lightbar.o
 .text.sequence_S3
                0x000000000002b4c4      0x130 build/samus/RW/common/lightbar.o
 .text.sequence_TAP
                0x000000000002b5f4      0x244 build/samus/RW/common/lightbar.o
 .text.ramp_all_leds
                0x000000000002b838       0xa4 build/samus/RW/common/lightbar.o
 .text.lightbyte_CYCLE_ONCE
                0x000000000002b8dc       0x3c build/samus/RW/common/lightbar.o
 .text.lightbyte_CYCLE
                0x000000000002b918       0xc8 build/samus/RW/common/lightbar.o
 .text.lightbyte_RAMP_ONCE
                0x000000000002b9e0       0x34 build/samus/RW/common/lightbar.o
 .text.demo_battery_level
                0x000000000002ba14       0x58 build/samus/RW/common/lightbar.o
                0x000000000002ba14                demo_battery_level
 .text.demo_is_charging
                0x000000000002ba6c       0x20 build/samus/RW/common/lightbar.o
                0x000000000002ba6c                demo_is_charging
 .text.demo_brightness
                0x000000000002ba8c       0x28 build/samus/RW/common/lightbar.o
                0x000000000002ba8c                demo_brightness
 .text.lightbar_task
                0x000000000002bab4      0x178 build/samus/RW/common/lightbar.o
                0x000000000002bab4                lightbar_task
 .text.lightbar_sequence_f
                0x000000000002bc2c       0x58 build/samus/RW/common/lightbar.o
                0x000000000002bc2c                lightbar_sequence_f
 .text.demo_tap
                0x000000000002bc84       0x1c build/samus/RW/common/lightbar.o
                0x000000000002bc84                demo_tap
 .text.lightbar_startup
                0x000000000002bca0       0x18 build/samus/RW/common/lightbar.o
 .text.lightbar_resume
                0x000000000002bcb8       0x1c build/samus/RW/common/lightbar.o
 .text.lightbar_suspend
                0x000000000002bcd4       0x1c build/samus/RW/common/lightbar.o
 .text.lightbar_shutdown
                0x000000000002bcf0        0xc build/samus/RW/common/lightbar.o
 .text.lpc_cmd_lightbar
                0x000000000002bcfc      0x2cc build/samus/RW/common/lightbar.o
 .text.command_lightbar
                0x000000000002bfc8      0x3d0 build/samus/RW/common/lightbar.o
 .text.startup.main
                0x000000000002c398       0xa4 build/samus/RW/common/main.o
                0x000000000002c398                main
 .text.arc_cos  0x000000000002c43c       0x9c build/samus/RW/common/math_util.o
                0x000000000002c43c                arc_cos
 .text.int_sqrtf
                0x000000000002c4d8       0x74 build/samus/RW/common/math_util.o
                0x000000000002c4d8                int_sqrtf
 .text.vector_magnitude
                0x000000000002c54c       0x28 build/samus/RW/common/math_util.o
                0x000000000002c54c                vector_magnitude
 .text.cosine_of_angle_diff
                0x000000000002c574       0x88 build/samus/RW/common/math_util.o
                0x000000000002c574                cosine_of_angle_diff
 .text.rotate   0x000000000002c5fc       0x8c build/samus/RW/common/math_util.o
                0x000000000002c5fc                rotate
 .text.command_mem_dump
                0x000000000002c688      0x144 build/samus/RW/common/memory_commands.o
 .text.command_read_word
                0x000000000002c7cc      0x11c build/samus/RW/common/memory_commands.o
 .text.motion_lid_get_angle
                0x000000000002c8e8       0x14 build/samus/RW/common/motion_lid.o
                0x000000000002c8e8                motion_lid_get_angle
 .text.motion_lid_calc
                0x000000000002c8fc      0x110 build/samus/RW/common/motion_lid.o
                0x000000000002c8fc                motion_lid_calc
 .text.host_cmd_motion_lid
                0x000000000002ca0c       0x3a build/samus/RW/common/motion_lid.o
                0x000000000002ca0c                host_cmd_motion_lid
 *fill*         0x000000000002ca46        0x2 
 .text.host_sensor_id_to_real_sensor
                0x000000000002ca48       0x38 build/samus/RW/common/motion_sense.o
 .text.motion_sense_get_ec_config
                0x000000000002ca80       0x34 build/samus/RW/common/motion_sense.o
 .text.motion_sense_ec_rate
                0x000000000002cab4       0x30 build/samus/RW/common/motion_sense.o
 .text.command_accelrange
                0x000000000002cae4       0xbc build/samus/RW/common/motion_sense.o
 .text.command_accelresolution
                0x000000000002cba0       0xbc build/samus/RW/common/motion_sense.o
 .text.command_accel_read_xyz
                0x000000000002cc5c       0xc4 build/samus/RW/common/motion_sense.o
 .text.command_display_accel_info
                0x000000000002cd20       0x60 build/samus/RW/common/motion_sense.o
 .text.motion_sense_set_motion_intervals
                0x000000000002cd80       0x7c build/samus/RW/common/motion_sense.o
 .text.motion_sense_set_data_rate
                0x000000000002cdfc       0xb0 build/samus/RW/common/motion_sense.o
                0x000000000002cdfc                motion_sense_set_data_rate
 .text.motion_sense_init
                0x000000000002ceac       0x2e build/samus/RW/common/motion_sense.o
 *fill*         0x000000000002ceda        0x2 
 .text.command_accel_init
                0x000000000002cedc       0x5c build/samus/RW/common/motion_sense.o
 .text.motion_sense_switch_sensor_rate
                0x000000000002cf38       0x68 build/samus/RW/common/motion_sense.o
 .text.motion_sense_shutdown
                0x000000000002cfa0       0x60 build/samus/RW/common/motion_sense.o
 .text.motion_sense_suspend
                0x000000000002d000       0x18 build/samus/RW/common/motion_sense.o
 .text.motion_sense_resume
                0x000000000002d018       0x10 build/samus/RW/common/motion_sense.o
 .text.motion_sense_startup
                0x000000000002d028       0x2c build/samus/RW/common/motion_sense.o
 .text.host_cmd_motion_sense
                0x000000000002d054      0x2c4 build/samus/RW/common/motion_sense.o
 .text.command_accel_data_rate
                0x000000000002d318      0x118 build/samus/RW/common/motion_sense.o
 .text.my_lid_angle
                0x000000000002d430        0x4 build/samus/RW/common/motion_sense.o
                0x000000000002d430                my_lid_angle
 .text.motion_sense_task
                0x000000000002d434      0x208 build/samus/RW/common/motion_sense.o
                0x000000000002d434                motion_sense_task
 .text.panic_txchar
                0x000000000002d63c       0x20 build/samus/RW/common/panic_output.o
 .text.command_panicinfo
                0x000000000002d65c       0x58 build/samus/RW/common/panic_output.o
 .text.panic_puts
                0x000000000002d6b4       0x20 build/samus/RW/common/panic_output.o
                0x000000000002d6b4                panic_puts
 .text.panic_printf
                0x000000000002d6d4       0x30 build/samus/RW/common/panic_output.o
                0x000000000002d6d4                panic_printf
 .text.panic_reboot
                0x000000000002d704       0x18 build/samus/RW/common/panic_output.o
                0x000000000002d704                panic_reboot
 .text.panic_assert_fail
                0x000000000002d71c       0x30 build/samus/RW/common/panic_output.o
                0x000000000002d71c                panic_assert_fail
 .text.command_crash
                0x000000000002d74c       0xac build/samus/RW/common/panic_output.o
 .text.host_command_panic_info
                0x000000000002d7f8       0x50 build/samus/RW/common/panic_output.o
                0x000000000002d7f8                host_command_panic_info
 .text.panic_get_data
                0x000000000002d848       0x18 build/samus/RW/common/panic_output.o
                0x000000000002d848                panic_get_data
 .text.panic_init
                0x000000000002d860       0x22 build/samus/RW/common/panic_output.o
 *fill*         0x000000000002d882        0x2 
 .text.port80_command_read
                0x000000000002d884       0xb8 build/samus/RW/common/port80.o
                0x000000000002d884                port80_command_read
 .text.command_port80
                0x000000000002d93c      0x12c build/samus/RW/common/port80.o
 .text.port_80_write
                0x000000000002da68       0x68 build/samus/RW/common/port80.o
                0x000000000002da68                port_80_write
 .text.command_powerbtn
                0x000000000002dad0       0x78 build/samus/RW/common/power_button.o
 .text.power_button_signal_asserted
                0x000000000002db48       0x10 build/samus/RW/common/power_button.o
                0x000000000002db48                power_button_signal_asserted
 .text.power_button_change_deferred
                0x000000000002db58       0x78 build/samus/RW/common/power_button.o
 .text.power_button_init
                0x000000000002dbd0       0x2c build/samus/RW/common/power_button.o
 .text.power_button_is_pressed
                0x000000000002dbfc        0xc build/samus/RW/common/power_button.o
                0x000000000002dbfc                power_button_is_pressed
 .text.power_button_interrupt
                0x000000000002dc08       0x40 build/samus/RW/common/power_button.o
                0x000000000002dc08                power_button_interrupt
 .text.set_pwrbtn_to_pch
                0x000000000002dc48       0x60 build/samus/RW/common/power_button_x86.o
 .text.powerbtn_x86_charge
                0x000000000002dca8       0x1c build/samus/RW/common/power_button_x86.o
 .text.powerbtn_x86_changed
                0x000000000002dcc4       0x94 build/samus/RW/common/power_button_x86.o
 .text.power_button_pch_release
                0x000000000002dd58       0x2c build/samus/RW/common/power_button_x86.o
                0x000000000002dd58                power_button_pch_release
 .text.powerbtn_x86_init
                0x000000000002dd84       0x7c build/samus/RW/common/power_button_x86.o
 .text.power_button_pch_pulse
                0x000000000002de00       0x50 build/samus/RW/common/power_button_x86.o
                0x000000000002de00                power_button_pch_pulse
 .text.powerbtn_x86_lid_change
                0x000000000002de50       0x1a build/samus/RW/common/power_button_x86.o
 *fill*         0x000000000002de6a        0x2 
 .text.power_button_task
                0x000000000002de6c      0x1c8 build/samus/RW/common/power_button_x86.o
                0x000000000002de6c                power_button_task
 .text.snprintf_addchar
                0x000000000002e034       0x1a build/samus/RW/common/printf.o
 *fill*         0x000000000002e04e        0x2 
 .text.vfnprintf
                0x000000000002e050      0x3c4 build/samus/RW/common/printf.o
                0x000000000002e050                vfnprintf
 .text.snprintf
                0x000000000002e414       0x34 build/samus/RW/common/printf.o
                0x000000000002e414                snprintf
 .text.pwm_pin_init
                0x000000000002e448        0x8 build/samus/RW/common/pwm.o
 .text.print_channel
                0x000000000002e450       0x34 build/samus/RW/common/pwm.o
 .text.cc_pwm_duty
                0x000000000002e484       0x84 build/samus/RW/common/pwm.o
 .text.pwm_command_set_keyboard_backlight
                0x000000000002e508       0x10 build/samus/RW/common/pwm_kblight.o
                0x000000000002e508                pwm_command_set_keyboard_backlight
 .text.pwm_kblight_suspend
                0x000000000002e518        0x8 build/samus/RW/common/pwm_kblight.o
 .text.pwm_kblight_shutdown
                0x000000000002e520        0x8 build/samus/RW/common/pwm_kblight.o
 .text.pwm_command_get_keyboard_backlight
                0x000000000002e528       0x1e build/samus/RW/common/pwm_kblight.o
                0x000000000002e528                pwm_command_get_keyboard_backlight
 .text.pwm_kblight_init
                0x000000000002e546       0x44 build/samus/RW/common/pwm_kblight.o
 .text.pwm_kblight_preserve_state
                0x000000000002e58a       0x2c build/samus/RW/common/pwm_kblight.o
 .text.pwm_kblight_lid_change
                0x000000000002e5b6       0x12 build/samus/RW/common/pwm_kblight.o
 .text.command_kblight
                0x000000000002e5c8       0x3c build/samus/RW/common/pwm_kblight.o
 .text.queue_action_null
                0x000000000002e604        0x2 build/samus/RW/common/queue.o
 .text.queue_read_safe
                0x000000000002e606       0x42 build/samus/RW/common/queue.o
 .text.queue_init
                0x000000000002e648       0x74 build/samus/RW/common/queue.o
                0x000000000002e648                queue_init
 .text.queue_is_empty
                0x000000000002e6bc        0xe build/samus/RW/common/queue.o
                0x000000000002e6bc                queue_is_empty
 .text.queue_count
                0x000000000002e6ca        0xa build/samus/RW/common/queue.o
                0x000000000002e6ca                queue_count
 .text.queue_space
                0x000000000002e6d4        0xc build/samus/RW/common/queue.o
                0x000000000002e6d4                queue_space
 .text.queue_advance_head
                0x000000000002e6e0       0x24 build/samus/RW/common/queue.o
                0x000000000002e6e0                queue_advance_head
 .text.queue_advance_tail
                0x000000000002e704       0x24 build/samus/RW/common/queue.o
                0x000000000002e704                queue_advance_tail
 .text.queue_add_unit
                0x000000000002e728       0x3e build/samus/RW/common/queue.o
                0x000000000002e728                queue_add_unit
 .text.queue_add_memcpy
                0x000000000002e766       0x54 build/samus/RW/common/queue.o
                0x000000000002e766                queue_add_memcpy
 *fill*         0x000000000002e7ba        0x2 
 .text.queue_add_units
                0x000000000002e7bc        0xc build/samus/RW/common/queue.o
                0x000000000002e7bc                queue_add_units
 .text.queue_remove_unit
                0x000000000002e7c8       0x3e build/samus/RW/common/queue.o
                0x000000000002e7c8                queue_remove_unit
 .text.queue_remove_memcpy
                0x000000000002e806       0x3c build/samus/RW/common/queue.o
                0x000000000002e806                queue_remove_memcpy
 *fill*         0x000000000002e842        0x2 
 .text.queue_remove_units
                0x000000000002e844        0xc build/samus/RW/common/queue.o
                0x000000000002e844                queue_remove_units
 .text.queue_peek_memcpy
                0x000000000002e850       0x3a build/samus/RW/common/queue.o
                0x000000000002e850                queue_peek_memcpy
 *fill*         0x000000000002e88a        0x2 
 .text.queue_peek_units
                0x000000000002e88c       0x14 build/samus/RW/common/queue.o
                0x000000000002e88c                queue_peek_units
 .text.SHA256_transform
                0x000000000002e8a0      0x148 build/samus/RW/common/sha256.o
 .text.SHA256_init
                0x000000000002e9e8       0x4c build/samus/RW/common/sha256.o
                0x000000000002e9e8                SHA256_init
 .text.SHA256_update
                0x000000000002ea34       0x6c build/samus/RW/common/sha256.o
                0x000000000002ea34                SHA256_update
 .text.SHA256_final
                0x000000000002eaa0       0x86 build/samus/RW/common/sha256.o
                0x000000000002eaa0                SHA256_final
 *fill*         0x000000000002eb26        0x2 
 .text.shared_mem_size
                0x000000000002eb28       0x10 build/samus/RW/common/shared_mem.o
                0x000000000002eb28                shared_mem_size
 .text.command_shmem
                0x000000000002eb38       0x3c build/samus/RW/common/shared_mem.o
 .text.shared_mem_acquire
                0x000000000002eb74       0x38 build/samus/RW/common/shared_mem.o
                0x000000000002eb74                shared_mem_acquire
 .text.shared_mem_release
                0x000000000002ebac        0xc build/samus/RW/common/shared_mem.o
                0x000000000002ebac                shared_mem_release
 .text.switch_update
                0x000000000002ebb8       0x70 build/samus/RW/common/switch.o
 .text.switch_init
                0x000000000002ec28       0x2c build/samus/RW/common/switch.o
 .text.command_mmapinfo
                0x000000000002ec54       0x54 build/samus/RW/common/switch.o
 .text.switch_interrupt
                0x000000000002eca8        0xc build/samus/RW/common/switch.o
                0x000000000002eca8                switch_interrupt
 .text.system_get_image_copy
                0x000000000002ecb4       0x20 build/samus/RW/common/system.o
                0x000000000002ecb4                system_get_image_copy
 .text.command_system_lock
                0x000000000002ecd4       0x10 build/samus/RW/common/system.o
 .text.jump_to_image
                0x000000000002ece4       0x58 build/samus/RW/common/system.o
 .text.command_hibernate
                0x000000000002ed3c       0x60 build/samus/RW/common/system.o
 .text.command_reboot
                0x000000000002ed9c       0xc4 build/samus/RW/common/system.o
 .text.host_command_get_chip_info
                0x000000000002ee60       0x3c build/samus/RW/common/system.o
 .text.host_command_build_info
                0x000000000002ee9c       0x20 build/samus/RW/common/system.o
 .text.host_command_vbnvcontext
                0x000000000002eebc       0x3e build/samus/RW/common/system.o
                0x000000000002eebc                host_command_vbnvcontext
 *fill*         0x000000000002eefa        0x2 
 .text.command_sleepmask
                0x000000000002eefc       0x7c build/samus/RW/common/system.o
 .text.system_is_locked
                0x000000000002ef78       0x24 build/samus/RW/common/system.o
                0x000000000002ef78                system_is_locked
 .text.system_usable_ram_end
                0x000000000002ef9c       0x10 build/samus/RW/common/system.o
                0x000000000002ef9c                system_usable_ram_end
 .text.system_get_reset_flags
                0x000000000002efac        0xc build/samus/RW/common/system.o
                0x000000000002efac                system_get_reset_flags
 .text.system_set_reset_flags
                0x000000000002efb8       0x10 build/samus/RW/common/system.o
                0x000000000002efb8                system_set_reset_flags
 .text.system_print_reset_flags
                0x000000000002efc8       0x60 build/samus/RW/common/system.o
                0x000000000002efc8                system_print_reset_flags
 .text.system_jumped_to_this_image
                0x000000000002f028        0xc build/samus/RW/common/system.o
                0x000000000002f028                system_jumped_to_this_image
 .text.system_add_jump_tag
                0x000000000002f034       0x5c build/samus/RW/common/system.o
                0x000000000002f034                system_add_jump_tag
 .text.system_get_jump_tag
                0x000000000002f090       0x50 build/samus/RW/common/system.o
                0x000000000002f090                system_get_jump_tag
 .text.system_disable_jump
                0x000000000002f0e0       0xcc build/samus/RW/common/system.o
                0x000000000002f0e0                system_disable_jump
 .text.system_get_image_used
                0x000000000002f1ac       0x36 build/samus/RW/common/system.o
                0x000000000002f1ac                system_get_image_used
 *fill*         0x000000000002f1e2        0x2 
 .text.system_unsafe_to_overwrite
                0x000000000002f1e4       0x50 build/samus/RW/common/system.o
                0x000000000002f1e4                system_unsafe_to_overwrite
 .text.system_get_image_copy_string
                0x000000000002f234       0x2c build/samus/RW/common/system.o
                0x000000000002f234                system_get_image_copy_string
 .text.command_sysinfo
                0x000000000002f260       0xc0 build/samus/RW/common/system.o
 .text.system_run_image_copy
                0x000000000002f320       0xa4 build/samus/RW/common/system.o
                0x000000000002f320                system_run_image_copy
 .text.handle_pending_reboot
                0x000000000002f3c4       0x54 build/samus/RW/common/system.o
 .text.system_common_shutdown
                0x000000000002f418        0xc build/samus/RW/common/system.o
 .text.host_command_reboot
                0x000000000002f424       0x5c build/samus/RW/common/system.o
                0x000000000002f424                host_command_reboot
 .text.command_sysjump
                0x000000000002f480       0x9c build/samus/RW/common/system.o
 .text.system_get_version
                0x000000000002f51c       0xd8 build/samus/RW/common/system.o
                0x000000000002f51c                system_get_version
 .text.host_command_get_version
                0x000000000002f5f4       0x68 build/samus/RW/common/system.o
 .text.system_get_board_version
                0x000000000002f65c       0x2c build/samus/RW/common/system.o
                0x000000000002f65c                system_get_board_version
 .text.host_command_get_board_version
                0x000000000002f688       0x1a build/samus/RW/common/system.o
                0x000000000002f688                host_command_get_board_version
 *fill*         0x000000000002f6a2        0x2 
 .text.command_version
                0x000000000002f6a4       0x78 build/samus/RW/common/system.o
 .text.system_get_build_info
                0x000000000002f71c        0x8 build/samus/RW/common/system.o
                0x000000000002f71c                system_get_build_info
 .text.system_common_pre_init
                0x000000000002f724       0xac build/samus/RW/common/system.o
                0x000000000002f724                system_common_pre_init
 .text.temp_sensor_init
                0x000000000002f7d0       0x46 build/samus/RW/common/temp_sensor.o
 *fill*         0x000000000002f816        0x2 
 .text.temp_sensor_command_get_info
                0x000000000002f818       0x38 build/samus/RW/common/temp_sensor.o
                0x000000000002f818                temp_sensor_command_get_info
 .text.temp_sensor_read
                0x000000000002f850       0x1c build/samus/RW/common/temp_sensor.o
                0x000000000002f850                temp_sensor_read
 .text.update_mapped_memory
                0x000000000002f86c       0x4c build/samus/RW/common/temp_sensor.o
 .text.command_temps
                0x000000000002f8b8       0xd8 build/samus/RW/common/temp_sensor.o
 .text.thermal_command_set_threshold
                0x000000000002f990       0x38 build/samus/RW/common/thermal.o
 .text.thermal_command_get_threshold
                0x000000000002f9c8       0x3c build/samus/RW/common/thermal.o
 .text.dptf_init
                0x000000000002fa04       0x30 build/samus/RW/common/thermal.o
 .text.command_thermalget
                0x000000000002fa34       0xc8 build/samus/RW/common/thermal.o
 .text.command_dptftemp
                0x000000000002fafc       0xa4 build/samus/RW/common/thermal.o
 .text.command_thermalset
                0x000000000002fba0       0xdc build/samus/RW/common/thermal.o
 .text.dptf_query_next_sensor_event
                0x000000000002fc7c       0x40 build/samus/RW/common/thermal.o
                0x000000000002fc7c                dptf_query_next_sensor_event
 .text.dptf_set_temp_threshold
                0x000000000002fcbc       0x90 build/samus/RW/common/thermal.o
                0x000000000002fcbc                dptf_set_temp_threshold
 .text.thermal_fan_percent
                0x000000000002fd4c       0x20 build/samus/RW/common/thermal.o
                0x000000000002fd4c                thermal_fan_percent
 .text.thermal_control
                0x000000000002fd6c      0x2e0 build/samus/RW/common/thermal.o
 .text.command_apthrottle
                0x000000000003004c       0x4c build/samus/RW/common/throttle_ap.o
 .text.throttle_ap
                0x0000000000030098       0x7c build/samus/RW/common/throttle_ap.o
                0x0000000000030098                throttle_ap
 .text.udelay   0x0000000000030114       0x16 build/samus/RW/common/timer.o
                0x0000000000030114                udelay
 .text.command_wait
                0x000000000003012a       0x2e build/samus/RW/common/timer.o
 .text.timer_arm
                0x0000000000030158       0x78 build/samus/RW/common/timer.o
                0x0000000000030158                timer_arm
 .text.timer_cancel
                0x00000000000301d0       0x40 build/samus/RW/common/timer.o
                0x00000000000301d0                timer_cancel
 .text.usleep   0x0000000000030210       0x70 build/samus/RW/common/timer.o
                0x0000000000030210                usleep
 .text.get_time
                0x0000000000030280       0x24 build/samus/RW/common/timer.o
                0x0000000000030280                get_time
 .text.timestamp_expired
                0x00000000000302a4       0x22 build/samus/RW/common/timer.o
                0x00000000000302a4                timestamp_expired
 *fill*         0x00000000000302c6        0x2 
 .text.process_timers
                0x00000000000302c8       0xcc build/samus/RW/common/timer.o
                0x00000000000302c8                process_timers
 .text.timer_sysjump
                0x0000000000030394       0x1c build/samus/RW/common/timer.o
 .text.command_get_time
                0x00000000000303b0       0x24 build/samus/RW/common/timer.o
 .text.force_time
                0x00000000000303d4       0x18 build/samus/RW/common/timer.o
                0x00000000000303d4                force_time
 .text.timer_print_info
                0x00000000000303ec       0x98 build/samus/RW/common/timer.o
                0x00000000000303ec                timer_print_info
 .text.command_timer_info
                0x0000000000030484        0xa build/samus/RW/common/timer.o
                0x0000000000030484                command_timer_info
 *fill*         0x000000000003048e        0x2 
 .text.timer_init
                0x0000000000030490       0x38 build/samus/RW/common/timer.o
                0x0000000000030490                timer_init
 .text.__tx_char
                0x00000000000304c8       0x5c build/samus/RW/common/uart_buffering.o
 .text.host_command_console_snapshot
                0x0000000000030524       0x40 build/samus/RW/common/uart_buffering.o
 .text.console_read_helper
                0x0000000000030564       0x50 build/samus/RW/common/uart_buffering.o
 .text.host_command_console_read
                0x00000000000305b4       0x30 build/samus/RW/common/uart_buffering.o
 .text.uart_process_output
                0x00000000000305e4       0x4c build/samus/RW/common/uart_buffering.o
                0x00000000000305e4                uart_process_output
 .text.uart_process_input
                0x0000000000030630       0x68 build/samus/RW/common/uart_buffering.o
                0x0000000000030630                uart_process_input
 .text.uart_putc
                0x0000000000030698       0x28 build/samus/RW/common/uart_buffering.o
                0x0000000000030698                uart_putc
 .text.uart_puts
                0x00000000000306c0       0x34 build/samus/RW/common/uart_buffering.o
                0x00000000000306c0                uart_puts
 .text.uart_vprintf
                0x00000000000306f4       0x28 build/samus/RW/common/uart_buffering.o
                0x00000000000306f4                uart_vprintf
 .text.uart_flush_output
                0x000000000003071c       0x40 build/samus/RW/common/uart_buffering.o
                0x000000000003071c                uart_flush_output
 .text.uart_getc
                0x000000000003075c       0x3c build/samus/RW/common/uart_buffering.o
                0x000000000003075c                uart_getc
 .text.uart_buffer_empty
                0x0000000000030798       0x14 build/samus/RW/common/uart_buffering.o
                0x0000000000030798                uart_buffer_empty
 .text.usb_charge_set_enabled
                0x00000000000307ac        0xc build/samus/RW/common/usb_port_power_smart.o
 .text.usb_charge_preserve_state
                0x00000000000307b8       0x2c build/samus/RW/common/usb_port_power_smart.o
 .text.usb_charge_set_control_mode
                0x00000000000307e4       0x3e build/samus/RW/common/usb_port_power_smart.o
 *fill*         0x0000000000030822        0x2 
 .text.usb_charge_set_mode
                0x0000000000030824       0x80 build/samus/RW/common/usb_port_power_smart.o
                0x0000000000030824                usb_charge_set_mode
 .text.command_set_mode
                0x00000000000308a4       0x68 build/samus/RW/common/usb_port_power_smart.o
 .text.usb_charge_command_set_mode
                0x000000000003090c       0x16 build/samus/RW/common/usb_port_power_smart.o
 .text.usb_charge_init
                0x0000000000030922       0x40 build/samus/RW/common/usb_port_power_smart.o
 .text.usb_charge_resume
                0x0000000000030962       0x16 build/samus/RW/common/usb_port_power_smart.o
 .text.usb_charge_shutdown
                0x0000000000030978       0x16 build/samus/RW/common/usb_port_power_smart.o
 .text.strlen   0x000000000003098e       0x10 build/samus/RW/common/util.o
                0x000000000003098e                strlen
 .text.isspace  0x000000000003099e       0x1a build/samus/RW/common/util.o
                0x000000000003099e                isspace
 .text.isalpha  0x00000000000309b8       0x10 build/samus/RW/common/util.o
                0x00000000000309b8                isalpha
 .text.isprint  0x00000000000309c8        0xc build/samus/RW/common/util.o
                0x00000000000309c8                isprint
 .text.tolower  0x00000000000309d4        0xc build/samus/RW/common/util.o
                0x00000000000309d4                tolower
 .text.strncasecmp.part.1
                0x00000000000309e0       0x52 build/samus/RW/common/util.o
 .text.strcasecmp
                0x0000000000030a32       0x36 build/samus/RW/common/util.o
                0x0000000000030a32                strcasecmp
 .text.strncasecmp
                0x0000000000030a68        0xa build/samus/RW/common/util.o
                0x0000000000030a68                strncasecmp
 .text.strtoi   0x0000000000030a72       0xb6 build/samus/RW/common/util.o
                0x0000000000030a72                strtoi
 .text.parse_bool
                0x0000000000030b28       0x6c build/samus/RW/common/util.o
                0x0000000000030b28                parse_bool
 .text.memcpy   0x0000000000030b94       0x4e build/samus/RW/common/util.o
                0x0000000000030b94                memcpy
 .text.memset   0x0000000000030be2       0x44 build/samus/RW/common/util.o
                0x0000000000030be2                memset
 .text.memmove  0x0000000000030c26       0x5c build/samus/RW/common/util.o
                0x0000000000030c26                memmove
 .text.strzcpy  0x0000000000030c82       0x28 build/samus/RW/common/util.o
                0x0000000000030c82                strzcpy
 .text.uint64divmod
                0x0000000000030caa       0xce build/samus/RW/common/util.o
                0x0000000000030caa                uint64divmod
 .text.cond_init
                0x0000000000030d78        0xa build/samus/RW/common/util.o
                0x0000000000030d78                cond_init
 .text.cond_is  0x0000000000030d82       0x10 build/samus/RW/common/util.o
                0x0000000000030d82                cond_is
 .text.cond_set
                0x0000000000030d92       0x2e build/samus/RW/common/util.o
                0x0000000000030d92                cond_set
 .text.cond_went
                0x0000000000030dc0       0x20 build/samus/RW/common/util.o
                0x0000000000030dc0                cond_went
 .text.vboot_hash_start
                0x0000000000030de0       0x84 build/samus/RW/common/vboot_hash.o
 .text.vboot_hash_init
                0x0000000000030e64       0x1a build/samus/RW/common/vboot_hash.o
 *fill*         0x0000000000030e7e        0x2 
 .text.fill_response.part.1
                0x0000000000030e80       0x6c build/samus/RW/common/vboot_hash.o
 .text.vboot_hash_in_progress
                0x0000000000030eec        0xc build/samus/RW/common/vboot_hash.o
                0x0000000000030eec                vboot_hash_in_progress
 .text.vboot_hash_abort
                0x0000000000030ef8       0x28 build/samus/RW/common/vboot_hash.o
                0x0000000000030ef8                vboot_hash_abort
 .text.vboot_hash_next_chunk
                0x0000000000030f20       0x78 build/samus/RW/common/vboot_hash.o
 .text.command_hash
                0x0000000000030f98      0x140 build/samus/RW/common/vboot_hash.o
 .text.host_command_vboot_hash
                0x00000000000310d8       0xec build/samus/RW/common/vboot_hash.o
 .text.vboot_hash_invalidate
                0x00000000000311c4       0x40 build/samus/RW/common/vboot_hash.o
                0x00000000000311c4                vboot_hash_invalidate
 .text.wireless_get
                0x0000000000031204       0x20 build/samus/RW/common/wireless.o
 .text.wireless_enable
                0x0000000000031224       0x1c build/samus/RW/common/wireless.o
 .text.wireless_enable_cmd
                0x0000000000031240       0x50 build/samus/RW/common/wireless.o
 .text.command_wireless
                0x0000000000031290       0x60 build/samus/RW/common/wireless.o
 .text.wireless_set_state
                0x00000000000312f0       0x30 build/samus/RW/common/wireless.o
                0x00000000000312f0                wireless_set_state
 .text.cpu_init
                0x0000000000031320       0x18 build/samus/RW/core/cortex-m/cpu.o
                0x0000000000031320                cpu_init
 .text.mpu_config_region.part.0
                0x0000000000031338       0x6c build/samus/RW/core/cortex-m/mpu.o
 .text.mpu_enable
                0x00000000000313a4       0x10 build/samus/RW/core/cortex-m/mpu.o
                0x00000000000313a4                mpu_enable
 .text.mpu_disable
                0x00000000000313b4       0x10 build/samus/RW/core/cortex-m/mpu.o
                0x00000000000313b4                mpu_disable
 .text.mpu_get_type
                0x00000000000313c4        0xc build/samus/RW/core/cortex-m/mpu.o
                0x00000000000313c4                mpu_get_type
 .text.mpu_protect_ram
                0x00000000000313d0       0x3c build/samus/RW/core/cortex-m/mpu.o
                0x00000000000313d0                mpu_protect_ram
 .text.mpu_lock_ro_flash
                0x000000000003140c       0x1a build/samus/RW/core/cortex-m/mpu.o
                0x000000000003140c                mpu_lock_ro_flash
 .text.mpu_lock_rw_flash
                0x0000000000031426       0x1a build/samus/RW/core/cortex-m/mpu.o
                0x0000000000031426                mpu_lock_rw_flash
 .text.mpu_pre_init
                0x0000000000031440       0x3c build/samus/RW/core/cortex-m/mpu.o
                0x0000000000031440                mpu_pre_init
 .text.print_reg
                0x000000000003147c       0x78 build/samus/RW/core/cortex-m/panic.o
 .text.do_separate
                0x00000000000314f4       0x1c build/samus/RW/core/cortex-m/panic.o
 .text.panic_data_print
                0x0000000000031510      0x1c8 build/samus/RW/core/cortex-m/panic.o
                0x0000000000031510                panic_data_print
 .text.report_panic
                0x00000000000316d8      0x11c build/samus/RW/core/cortex-m/panic.o
                0x00000000000316d8                report_panic
 .text.exception_panic
                0x00000000000317f4       0x24 build/samus/RW/core/cortex-m/panic.o
                0x00000000000317f4                exception_panic
 .text.software_panic
                0x0000000000031818        0xa build/samus/RW/core/cortex-m/panic.o
                0x0000000000031818                software_panic
 *fill*         0x0000000000031822        0x2 
 .text.panic_set_reason
                0x0000000000031824       0x40 build/samus/RW/core/cortex-m/panic.o
                0x0000000000031824                panic_set_reason
 .text.panic_get_reason
                0x0000000000031864       0x40 build/samus/RW/core/cortex-m/panic.o
                0x0000000000031864                panic_get_reason
 .text.bus_fault_handler
                0x00000000000318a4       0x10 build/samus/RW/core/cortex-m/panic.o
                0x00000000000318a4                bus_fault_handler
 .text          0x00000000000318b4       0x74 build/samus/RW/core/cortex-m/switch.o
                0x00000000000318b4                __switchto
                0x00000000000318ee                __task_start
 .text.interrupt_disable
                0x0000000000031928        0x4 build/samus/RW/core/cortex-m/task.o
                0x0000000000031928                interrupt_disable
 .text.interrupt_enable
                0x000000000003192c        0x4 build/samus/RW/core/cortex-m/task.o
                0x000000000003192c                interrupt_enable
 .text.in_interrupt_context
                0x0000000000031930        0xa build/samus/RW/core/cortex-m/task.o
                0x0000000000031930                in_interrupt_context
 *fill*         0x000000000003193a        0x2 
 .text.__wait_evt
                0x000000000003193c       0xa4 build/samus/RW/core/cortex-m/task.o
 .text.get_interrupt_context
                0x00000000000319e0        0xa build/samus/RW/core/cortex-m/task.o
                0x00000000000319e0                get_interrupt_context
 *fill*         0x00000000000319ea        0x2 
 .text.task_get_current
                0x00000000000319ec       0x20 build/samus/RW/core/cortex-m/task.o
                0x00000000000319ec                task_get_current
 .text.task_get_event_bitmap
                0x0000000000031a0c       0x14 build/samus/RW/core/cortex-m/task.o
                0x0000000000031a0c                task_get_event_bitmap
 .text.task_start_called
                0x0000000000031a20        0xc build/samus/RW/core/cortex-m/task.o
                0x0000000000031a20                task_start_called
 .text.svc_handler
                0x0000000000031a2c      0x164 build/samus/RW/core/cortex-m/task.o
                0x0000000000031a2c                svc_handler
 .text.__schedule
                0x0000000000031b90        0x4 build/samus/RW/core/cortex-m/task.o
                0x0000000000031b90                __schedule
 .text.task_start_irq_handler
                0x0000000000031b94       0x4c build/samus/RW/core/cortex-m/task.o
                0x0000000000031b94                task_start_irq_handler
 .text.task_resched_if_needed
                0x0000000000031be0       0x20 build/samus/RW/core/cortex-m/task.o
                0x0000000000031be0                task_resched_if_needed
 .text.task_set_event
                0x0000000000031c00       0x84 build/samus/RW/core/cortex-m/task.o
                0x0000000000031c00                task_set_event
 .text.task_wait_event
                0x0000000000031c84        0x6 build/samus/RW/core/cortex-m/task.o
                0x0000000000031c84                task_wait_event
 *fill*         0x0000000000031c8a        0x2 
 .text.task_exit_trap
                0x0000000000031c8c       0x2c build/samus/RW/core/cortex-m/task.o
 .text.task_wait_event_mask
                0x0000000000031cb8       0x70 build/samus/RW/core/cortex-m/task.o
                0x0000000000031cb8                task_wait_event_mask
 .text.task_enable_all_tasks
                0x0000000000031d28       0x14 build/samus/RW/core/cortex-m/task.o
                0x0000000000031d28                task_enable_all_tasks
 .text.task_enable_irq
                0x0000000000031d3c       0x38 build/samus/RW/core/cortex-m/task.o
                0x0000000000031d3c                task_enable_irq
 .text.task_disable_irq
                0x0000000000031d74       0x2c build/samus/RW/core/cortex-m/task.o
                0x0000000000031d74                task_disable_irq
 .text.task_clear_pending_irq
                0x0000000000031da0       0x2c build/samus/RW/core/cortex-m/task.o
                0x0000000000031da0                task_clear_pending_irq
 .text.task_trigger_irq
                0x0000000000031dcc        0xc build/samus/RW/core/cortex-m/task.o
                0x0000000000031dcc                task_trigger_irq
 .text.mutex_lock
                0x0000000000031dd8       0x78 build/samus/RW/core/cortex-m/task.o
                0x0000000000031dd8                mutex_lock
 .text.mutex_unlock
                0x0000000000031e50       0x50 build/samus/RW/core/cortex-m/task.o
                0x0000000000031e50                mutex_unlock
 .text.task_print_list
                0x0000000000031ea0       0xa4 build/samus/RW/core/cortex-m/task.o
                0x0000000000031ea0                task_print_list
 .text.command_task_info
                0x0000000000031f44       0xc4 build/samus/RW/core/cortex-m/task.o
                0x0000000000031f44                command_task_info
 .text.task_pre_init
                0x0000000000032008      0x10c build/samus/RW/core/cortex-m/task.o
                0x0000000000032008                task_pre_init
 .text.task_start
                0x0000000000032114       0x38 build/samus/RW/core/cortex-m/task.o
                0x0000000000032114                task_start
 .text.__aeabi_uldivmod
                0x000000000003214c       0xa0 build/samus/RW/core/cortex-m/uldivmod.o
                0x000000000003214c                __aeabi_uldivmod
 .text.watchdog_trace
                0x00000000000321ec       0x50 build/samus/RW/core/cortex-m/watchdog.o
                0x00000000000321ec                watchdog_trace
 .text.find_param_index
                0x000000000003223c       0x2a build/samus/RW/driver/accel_kionix.o
 *fill*         0x0000000000032266        0x2 
 .text.get_range
                0x0000000000032268       0x10 build/samus/RW/driver/accel_kionix.o
 .text.get_resolution
                0x0000000000032278       0x14 build/samus/RW/driver/accel_kionix.o
 .text.get_data_rate
                0x000000000003228c       0x14 build/samus/RW/driver/accel_kionix.o
 .text.set_offset
                0x00000000000322a0       0x12 build/samus/RW/driver/accel_kionix.o
 .text.get_offset
                0x00000000000322b2       0x18 build/samus/RW/driver/accel_kionix.o
 *fill*         0x00000000000322ca        0x2 
 .text.read     0x00000000000322cc       0xe8 build/samus/RW/driver/accel_kionix.o
 .text.enable_sensor
                0x00000000000323b4       0x3e build/samus/RW/driver/accel_kionix.o
 .text.disable_sensor
                0x00000000000323f2       0x3a build/samus/RW/driver/accel_kionix.o
 .text.set_range
                0x000000000003242c       0x7c build/samus/RW/driver/accel_kionix.o
 .text.set_resolution
                0x00000000000324a8       0x7c build/samus/RW/driver/accel_kionix.o
 .text.init     0x0000000000032524       0xe8 build/samus/RW/driver/accel_kionix.o
 .text.set_data_rate
                0x000000000003260c       0x8c build/samus/RW/driver/accel_kionix.o
 .text.get_reg_val
                0x0000000000032698       0x2e build/samus/RW/driver/accelgyro_lsm6ds0.o
 .text.get_range
                0x00000000000326c6        0x6 build/samus/RW/driver/accelgyro_lsm6ds0.o
 .text.set_resolution
                0x00000000000326cc        0x4 build/samus/RW/driver/accelgyro_lsm6ds0.o
 .text.get_resolution
                0x00000000000326d0        0x4 build/samus/RW/driver/accelgyro_lsm6ds0.o
 .text.get_data_rate
                0x00000000000326d4        0x6 build/samus/RW/driver/accelgyro_lsm6ds0.o
 .text.set_offset
                0x00000000000326da       0x12 build/samus/RW/driver/accelgyro_lsm6ds0.o
 .text.get_offset
                0x00000000000326ec       0x18 build/samus/RW/driver/accelgyro_lsm6ds0.o
 .text.read     0x0000000000032704      0x110 build/samus/RW/driver/accelgyro_lsm6ds0.o
 .text.set_data_rate
                0x0000000000032814       0xd0 build/samus/RW/driver/accelgyro_lsm6ds0.o
 .text.set_range
                0x00000000000328e4       0x98 build/samus/RW/driver/accelgyro_lsm6ds0.o
 .text.init     0x000000000003297c       0xb0 build/samus/RW/driver/accelgyro_lsm6ds0.o
 .text.isl29035_init
                0x0000000000032a2c        0xc build/samus/RW/driver/als_isl29035.o
                0x0000000000032a2c                isl29035_init
 .text.isl29035_read_lux
                0x0000000000032a38       0x40 build/samus/RW/driver/als_isl29035.o
                0x0000000000032a38                isl29035_read_lux
 .text.command_fastcharge
                0x0000000000032a78       0x40 build/samus/RW/driver/battery/samus.o
 .text.battery_get_info
                0x0000000000032ab8        0x8 build/samus/RW/driver/battery/samus.o
                0x0000000000032ab8                battery_get_info
 .text.charger_profile_override
                0x0000000000032ac0       0xe4 build/samus/RW/driver/battery/samus.o
                0x0000000000032ac0                charger_profile_override
 .text.charger_profile_override_get_param
                0x0000000000032ba4       0x18 build/samus/RW/driver/battery/samus.o
                0x0000000000032ba4                charger_profile_override_get_param
 .text.charger_profile_override_set_param
                0x0000000000032bbc       0x14 build/samus/RW/driver/battery/samus.o
                0x0000000000032bbc                charger_profile_override_set_param
 .text.battery_get_disconnect_state
                0x0000000000032bd0       0x90 build/samus/RW/driver/battery/samus.o
                0x0000000000032bd0                battery_get_disconnect_state
 .text.board_cut_off_battery
                0x0000000000032c60       0x58 build/samus/RW/driver/battery/samus.o
                0x0000000000032c60                board_cut_off_battery
 .text.command_battfake
                0x0000000000032cb8       0x48 build/samus/RW/driver/battery/smart.o
 .text.sb_read  0x0000000000032d00       0x1e build/samus/RW/driver/battery/smart.o
                0x0000000000032d00                sb_read
 .text.sb_write
                0x0000000000032d1e       0x1e build/samus/RW/driver/battery/smart.o
                0x0000000000032d1e                sb_write
 .text.sb_read_string
                0x0000000000032d3c       0x30 build/samus/RW/driver/battery/smart.o
                0x0000000000032d3c                sb_read_string
 .text.battery_get_mode
                0x0000000000032d6c        0x8 build/samus/RW/driver/battery/smart.o
                0x0000000000032d6c                battery_get_mode
 .text.battery_force_mah_mode
                0x0000000000032d74       0x20 build/samus/RW/driver/battery/smart.o
 .text.battery_state_of_charge_abs
                0x0000000000032d94        0x8 build/samus/RW/driver/battery/smart.o
                0x0000000000032d94                battery_state_of_charge_abs
 .text.battery_remaining_capacity
                0x0000000000032d9c       0x18 build/samus/RW/driver/battery/smart.o
                0x0000000000032d9c                battery_remaining_capacity
 .text.battery_full_charge_capacity
                0x0000000000032db4       0x18 build/samus/RW/driver/battery/smart.o
                0x0000000000032db4                battery_full_charge_capacity
 .text.battery_time_to_empty
                0x0000000000032dcc        0x8 build/samus/RW/driver/battery/smart.o
                0x0000000000032dcc                battery_time_to_empty
 .text.battery_time_to_full
                0x0000000000032dd4        0x8 build/samus/RW/driver/battery/smart.o
                0x0000000000032dd4                battery_time_to_full
 .text.battery_status
                0x0000000000032ddc        0x8 build/samus/RW/driver/battery/smart.o
                0x0000000000032ddc                battery_status
 .text.battery_cycle_count
                0x0000000000032de4        0x8 build/samus/RW/driver/battery/smart.o
                0x0000000000032de4                battery_cycle_count
 .text.battery_design_capacity
                0x0000000000032dec       0x18 build/samus/RW/driver/battery/smart.o
                0x0000000000032dec                battery_design_capacity
 .text.battery_design_voltage
                0x0000000000032e04        0x8 build/samus/RW/driver/battery/smart.o
                0x0000000000032e04                battery_design_voltage
 .text.battery_serial_number
                0x0000000000032e0c        0x8 build/samus/RW/driver/battery/smart.o
                0x0000000000032e0c                battery_serial_number
 .text.battery_manufacturer_name
                0x0000000000032e14       0x16 build/samus/RW/driver/battery/smart.o
                0x0000000000032e14                battery_manufacturer_name
 .text.battery_device_name
                0x0000000000032e2a       0x16 build/samus/RW/driver/battery/smart.o
                0x0000000000032e2a                battery_device_name
 .text.battery_device_chemistry
                0x0000000000032e40       0x16 build/samus/RW/driver/battery/smart.o
                0x0000000000032e40                battery_device_chemistry
 *fill*         0x0000000000032e56        0x2 
 .text.battery_get_params
                0x0000000000032e58      0x128 build/samus/RW/driver/battery/smart.o
                0x0000000000032e58                battery_get_params
 .text.charger_set_input_current
                0x0000000000032f80       0x1c build/samus/RW/driver/charger/bq24773.o
                0x0000000000032f80                charger_set_input_current
 .text.charger_get_input_current
                0x0000000000032f9c       0x24 build/samus/RW/driver/charger/bq24773.o
                0x0000000000032f9c                charger_get_input_current
 .text.charger_manufacturer_id
                0x0000000000032fc0        0x8 build/samus/RW/driver/charger/bq24773.o
                0x0000000000032fc0                charger_manufacturer_id
 .text.charger_device_id
                0x0000000000032fc8        0xc build/samus/RW/driver/charger/bq24773.o
                0x0000000000032fc8                charger_device_id
 .text.charger_get_option
                0x0000000000032fd4        0xc build/samus/RW/driver/charger/bq24773.o
                0x0000000000032fd4                charger_get_option
 .text.charger_set_option
                0x0000000000032fe0        0xc build/samus/RW/driver/charger/bq24773.o
                0x0000000000032fe0                charger_set_option
 .text.charger_get_info
                0x0000000000032fec        0x8 build/samus/RW/driver/charger/bq24773.o
                0x0000000000032fec                charger_get_info
 .text.charger_get_status
                0x0000000000032ff4       0x24 build/samus/RW/driver/charger/bq24773.o
                0x0000000000032ff4                charger_get_status
 .text.charger_set_mode
                0x0000000000033018       0x26 build/samus/RW/driver/charger/bq24773.o
                0x0000000000033018                charger_set_mode
 .text.charger_get_current
                0x000000000003303e       0x24 build/samus/RW/driver/charger/bq24773.o
                0x000000000003303e                charger_get_current
 .text.charger_set_current
                0x0000000000033062       0x1c build/samus/RW/driver/charger/bq24773.o
                0x0000000000033062                charger_set_current
 .text.charger_get_voltage
                0x000000000003307e        0xc build/samus/RW/driver/charger/bq24773.o
                0x000000000003307e                charger_get_voltage
 .text.charger_set_voltage
                0x000000000003308a       0x16 build/samus/RW/driver/charger/bq24773.o
                0x000000000003308a                charger_set_voltage
 .text.charger_post_init
                0x00000000000330a0       0x6c build/samus/RW/driver/charger/bq24773.o
                0x00000000000330a0                charger_post_init
 .text.charger_discharge_on_ac
                0x000000000003310c       0x22 build/samus/RW/driver/charger/bq24773.o
                0x000000000003310c                charger_discharge_on_ac
 *fill*         0x000000000003312e        0x2 
 .text.tmp006_init
                0x0000000000033130       0x9c build/samus/RW/driver/temp_sensor/tmp006.o
 .text.tmp006_get_calibration
                0x00000000000331cc      0x144 build/samus/RW/driver/temp_sensor/tmp006.o
                0x00000000000331cc                tmp006_get_calibration
 .text.tmp006_set_calibration
                0x0000000000033310      0x15c build/samus/RW/driver/temp_sensor/tmp006.o
                0x0000000000033310                tmp006_set_calibration
 .text.tmp006_get_raw
                0x000000000003346c       0x48 build/samus/RW/driver/temp_sensor/tmp006.o
                0x000000000003346c                tmp006_get_raw
 .text.command_sensor_info
                0x00000000000334b4      0x14c build/samus/RW/driver/temp_sensor/tmp006.o
 .text.tmp006_poll
                0x0000000000033600       0xb0 build/samus/RW/driver/temp_sensor/tmp006.o
 .text.tmp006_get_val
                0x00000000000336b0      0x174 build/samus/RW/driver/temp_sensor/tmp006.o
                0x00000000000336b0                tmp006_get_val
 .text.host_command_pause_in_s5
                0x0000000000033824       0x44 build/samus/RW/power/common.o
 .text.command_powerinfo
                0x0000000000033868       0x2c build/samus/RW/power/common.o
 .text.power_update_signals
                0x0000000000033894       0x58 build/samus/RW/power/common.o
 .text.host_command_hibernation_delay
                0x00000000000338ec       0x78 build/samus/RW/power/common.o
 .text.command_hibernation_delay
                0x0000000000033964       0x8c build/samus/RW/power/common.o
 .text.command_powerindebug
                0x00000000000339f0       0x90 build/samus/RW/power/common.o
 .text.command_pause_in_s5
                0x0000000000033a80       0x40 build/samus/RW/power/common.o
 .text.power_ac_change
                0x0000000000033ac0       0x54 build/samus/RW/power/common.o
 .text.power_lid_change
                0x0000000000033b14        0xc build/samus/RW/power/common.o
 .text.power_get_signals
                0x0000000000033b20        0xc build/samus/RW/power/common.o
                0x0000000000033b20                power_get_signals
 .text.power_has_signals
                0x0000000000033b2c       0x28 build/samus/RW/power/common.o
                0x0000000000033b2c                power_has_signals
 .text.power_wait_signals
                0x0000000000033b54       0x48 build/samus/RW/power/common.o
                0x0000000000033b54                power_wait_signals
 .text.power_set_state
                0x0000000000033b9c       0x2c build/samus/RW/power/common.o
                0x0000000000033b9c                power_set_state
 .text.power_common_init
                0x0000000000033bc8       0x2c build/samus/RW/power/common.o
 .text.chipset_in_state
                0x0000000000033bf4       0x24 build/samus/RW/power/common.o
                0x0000000000033bf4                chipset_in_state
 .text.chipset_exit_hard_off
                0x0000000000033c18       0x30 build/samus/RW/power/common.o
                0x0000000000033c18                chipset_exit_hard_off
 .text.chipset_task
                0x0000000000033c48       0xfc build/samus/RW/power/common.o
                0x0000000000033c48                chipset_task
 .text.power_signal_interrupt
                0x0000000000033d44       0x16 build/samus/RW/power/common.o
                0x0000000000033d44                power_signal_interrupt
 *fill*         0x0000000000033d5a        0x2 
 .text.power_get_pause_in_s5
                0x0000000000033d5c        0xc build/samus/RW/power/common.o
                0x0000000000033d5c                power_get_pause_in_s5
 .text.power_get_pause_in_s5.__stub
                0x0000000000033d68       0x10 linker stubs

.glue_7         0x0000000000033d78        0x0
 .glue_7        0x0000000000033d78        0x0 linker stubs

.glue_7t        0x0000000000033d78        0x0
 .glue_7t       0x0000000000033d78        0x0 linker stubs

.vfp11_veneer   0x0000000000033d78        0x0
 .vfp11_veneer  0x0000000000033d78        0x0 linker stubs

.v4_bx          0x0000000000033d78        0x0
 .v4_bx         0x0000000000033d78        0x0 linker stubs

.iplt           0x0000000000033d78        0x0
 .iplt          0x0000000000033d78        0x0 build/samus/RW/board/samus/board.o
                0x0000000000033d78                . = ALIGN (0x4)

.rodata         0x0000000000033d78     0x7568
                0x0000000000033d78                __irqprio = .
 *(.rodata.irqprio)
 .rodata.irqprio
                0x0000000000033d78        0x8 build/samus/RW/chip/lm4/adc.o
                0x0000000000033d78                prio_17
                0x0000000000033d7a                prio_16
                0x0000000000033d7c                prio_15
                0x0000000000033d7e                prio_14
 .rodata.irqprio
                0x0000000000033d80       0x1c build/samus/RW/chip/lm4/gpio.o
                0x0000000000033d80                prio_124
                0x0000000000033d82                prio_116
                0x0000000000033d84                prio_112
                0x0000000000033d86                prio_111
                0x0000000000033d88                prio_56
                0x0000000000033d8a                prio_54
                0x0000000000033d8c                prio_32
                0x0000000000033d8e                prio_31
                0x0000000000033d90                prio_30
                0x0000000000033d92                prio_4
                0x0000000000033d94                prio_3
                0x0000000000033d96                prio_2
                0x0000000000033d98                prio_1
                0x0000000000033d9a                prio_0
 .rodata.irqprio
                0x0000000000033d9c        0x2 build/samus/RW/chip/lm4/hwtimer.o
                0x0000000000033d9c                prio_94
 .rodata.irqprio
                0x0000000000033d9e        0xc build/samus/RW/chip/lm4/i2c.o
                0x0000000000033d9e                prio_110
                0x0000000000033da0                prio_109
                0x0000000000033da2                prio_69
                0x0000000000033da4                prio_68
                0x0000000000033da6                prio_37
                0x0000000000033da8                prio_8
 .rodata.irqprio
                0x0000000000033daa        0x2 build/samus/RW/chip/lm4/keyboard_raw.o
                0x0000000000033daa                prio_55
 .rodata.irqprio
                0x0000000000033dac        0x2 build/samus/RW/chip/lm4/lpc.o
                0x0000000000033dac                prio_108
 .rodata.irqprio
                0x0000000000033dae        0x2 build/samus/RW/chip/lm4/system.o
                0x0000000000033dae                prio_43
 .rodata.irqprio
                0x0000000000033db0        0x4 build/samus/RW/chip/lm4/uart.o
                0x0000000000033db0                prio_33
                0x0000000000033db2                prio_5
 .rodata.irqprio
                0x0000000000033db4        0x2 build/samus/RW/chip/lm4/watchdog.o
                0x0000000000033db4                prio_18
                0x0000000000033db6                __irqprio_end = .
                0x0000000000033db8                . = ALIGN (0x4)
 *fill*         0x0000000000033db6        0x2 
                0x0000000000033db8                __cmds = .
 *(SORT(.rodata.cmds*))
 .rodata.cmds.8042
                0x0000000000033db8       0x10 build/samus/RW/common/keyboard_8042.o
                0x0000000000033db8                __con_cmd_8042
 .rodata.cmds.accelinfo
                0x0000000000033dc8       0x10 build/samus/RW/common/motion_sense.o
                0x0000000000033dc8                __con_cmd_accelinfo
 .rodata.cmds.accelinit
                0x0000000000033dd8       0x10 build/samus/RW/common/motion_sense.o
                0x0000000000033dd8                __con_cmd_accelinit
 .rodata.cmds.accelrange
                0x0000000000033de8       0x10 build/samus/RW/common/motion_sense.o
                0x0000000000033de8                __con_cmd_accelrange
 .rodata.cmds.accelrate
                0x0000000000033df8       0x10 build/samus/RW/common/motion_sense.o
                0x0000000000033df8                __con_cmd_accelrate
 .rodata.cmds.accelread
                0x0000000000033e08       0x10 build/samus/RW/common/motion_sense.o
                0x0000000000033e08                __con_cmd_accelread
 .rodata.cmds.accelres
                0x0000000000033e18       0x10 build/samus/RW/common/motion_sense.o
                0x0000000000033e18                __con_cmd_accelres
 .rodata.cmds.adc
                0x0000000000033e28       0x10 build/samus/RW/common/adc.o
                0x0000000000033e28                __con_cmd_adc
 .rodata.cmds.apreset
                0x0000000000033e38       0x10 build/samus/RW/common/chipset.o
                0x0000000000033e38                __con_cmd_apreset
 .rodata.cmds.apshutdown
                0x0000000000033e48       0x10 build/samus/RW/common/chipset.o
                0x0000000000033e48                __con_cmd_apshutdown
 .rodata.cmds.apthrottle
                0x0000000000033e58       0x10 build/samus/RW/common/throttle_ap.o
                0x0000000000033e58                __con_cmd_apthrottle
 .rodata.cmds.battery
                0x0000000000033e68       0x10 build/samus/RW/common/battery.o
                0x0000000000033e68                __con_cmd_battery
 .rodata.cmds.battfake
                0x0000000000033e78       0x10 build/samus/RW/driver/battery/smart.o
                0x0000000000033e78                __con_cmd_battfake
 .rodata.cmds.bkboost
                0x0000000000033e88       0x10 build/samus/RW/board/samus/extpower.o
                0x0000000000033e88                __con_cmd_bkboost
 .rodata.cmds.chan
                0x0000000000033e98       0x10 build/samus/RW/common/console_output.o
                0x0000000000033e98                __con_cmd_chan
 .rodata.cmds.charger
                0x0000000000033ea8       0x10 build/samus/RW/common/charger.o
                0x0000000000033ea8                __con_cmd_charger
 .rodata.cmds.chgstate
                0x0000000000033eb8       0x10 build/samus/RW/common/charge_state_v2.o
                0x0000000000033eb8                __con_cmd_chgstate
 .rodata.cmds.codeset
                0x0000000000033ec8       0x10 build/samus/RW/common/keyboard_8042.o
                0x0000000000033ec8                __con_cmd_codeset
 .rodata.cmds.crash
                0x0000000000033ed8       0x10 build/samus/RW/common/panic_output.o
                0x0000000000033ed8                __con_cmd_crash
 .rodata.cmds.ctrlram
                0x0000000000033ee8       0x10 build/samus/RW/common/keyboard_8042.o
                0x0000000000033ee8                __con_cmd_ctrlram
 .rodata.cmds.cutoff
                0x0000000000033ef8       0x10 build/samus/RW/common/battery.o
                0x0000000000033ef8                __con_cmd_cutoff
 .rodata.cmds.dptftemp
                0x0000000000033f08       0x10 build/samus/RW/common/thermal.o
                0x0000000000033f08                __con_cmd_dptftemp
 .rodata.cmds.dsleep
                0x0000000000033f18       0x10 build/samus/RW/chip/lm4/clock.o
                0x0000000000033f18                __con_cmd_dsleep
 .rodata.cmds.fanauto
                0x0000000000033f28       0x10 build/samus/RW/common/fan.o
                0x0000000000033f28                __con_cmd_fanauto
 .rodata.cmds.fanduty
                0x0000000000033f38       0x10 build/samus/RW/common/fan.o
                0x0000000000033f38                __con_cmd_fanduty
 .rodata.cmds.faninfo
                0x0000000000033f48       0x10 build/samus/RW/common/fan.o
                0x0000000000033f48                __con_cmd_faninfo
 .rodata.cmds.fanset
                0x0000000000033f58       0x10 build/samus/RW/common/fan.o
                0x0000000000033f58                __con_cmd_fanset
 .rodata.cmds.fastcharge
                0x0000000000033f68       0x10 build/samus/RW/driver/battery/samus.o
                0x0000000000033f68                __con_cmd_fastcharge
 .rodata.cmds.flashinfo
                0x0000000000033f78       0x10 build/samus/RW/common/flash.o
                0x0000000000033f78                __con_cmd_flashinfo
 .rodata.cmds.flashwp
                0x0000000000033f88       0x10 build/samus/RW/common/flash.o
                0x0000000000033f88                __con_cmd_flashwp
 .rodata.cmds.gettime
                0x0000000000033f98       0x10 build/samus/RW/common/timer.o
                0x0000000000033f98                __con_cmd_gettime
 .rodata.cmds.gpioget
                0x0000000000033fa8       0x10 build/samus/RW/common/gpio.o
                0x0000000000033fa8                __con_cmd_gpioget
 .rodata.cmds.gpioset
                0x0000000000033fb8       0x10 build/samus/RW/common/gpio.o
                0x0000000000033fb8                __con_cmd_gpioset
 .rodata.cmds.hash
                0x0000000000033fc8       0x10 build/samus/RW/common/vboot_hash.o
                0x0000000000033fc8                __con_cmd_hash
 .rodata.cmds.hcdebug
                0x0000000000033fd8       0x10 build/samus/RW/common/host_command.o
                0x0000000000033fd8                __con_cmd_hcdebug
 .rodata.cmds.help
                0x0000000000033fe8       0x10 build/samus/RW/common/console.o
                0x0000000000033fe8                __con_cmd_help
 .rodata.cmds.hibdelay
                0x0000000000033ff8       0x10 build/samus/RW/power/common.o
                0x0000000000033ff8                __con_cmd_hibdelay
 .rodata.cmds.hibernate
                0x0000000000034008       0x10 build/samus/RW/common/system.o
                0x0000000000034008                __con_cmd_hibernate
 .rodata.cmds.history
                0x0000000000034018       0x10 build/samus/RW/common/console.o
                0x0000000000034018                __con_cmd_history
 .rodata.cmds.hostevent
                0x0000000000034028       0x10 build/samus/RW/common/host_event_commands.o
                0x0000000000034028                __con_cmd_hostevent
 .rodata.cmds.i2cscan
                0x0000000000034038       0x10 build/samus/RW/common/i2c.o
                0x0000000000034038                __con_cmd_i2cscan
 .rodata.cmds.i2cxfer
                0x0000000000034048       0x10 build/samus/RW/common/i2c.o
                0x0000000000034048                __con_cmd_i2cxfer
 .rodata.cmds.idlestats
                0x0000000000034058       0x10 build/samus/RW/chip/lm4/clock.o
                0x0000000000034058                __con_cmd_idlestats
 .rodata.cmds.kbd
                0x0000000000034068       0x10 build/samus/RW/common/keyboard_8042.o
                0x0000000000034068                __con_cmd_kbd
 .rodata.cmds.kblight
                0x0000000000034078       0x10 build/samus/RW/common/pwm_kblight.o
                0x0000000000034078                __con_cmd_kblight
 .rodata.cmds.kblog
                0x0000000000034088       0x10 build/samus/RW/common/keyboard_8042.o
                0x0000000000034088                __con_cmd_kblog
 .rodata.cmds.kbpress
                0x0000000000034098       0x10 build/samus/RW/common/keyboard_scan.o
                0x0000000000034098                __con_cmd_kbpress
 .rodata.cmds.ksstate
                0x00000000000340a8       0x10 build/samus/RW/common/keyboard_scan.o
                0x00000000000340a8                __con_cmd_ksstate
 .rodata.cmds.lidclose
                0x00000000000340b8       0x10 build/samus/RW/common/lid_switch.o
                0x00000000000340b8                __con_cmd_lidclose
 .rodata.cmds.lidopen
                0x00000000000340c8       0x10 build/samus/RW/common/lid_switch.o
                0x00000000000340c8                __con_cmd_lidopen
 .rodata.cmds.lightbar
                0x00000000000340d8       0x10 build/samus/RW/common/lightbar.o
                0x00000000000340d8                __con_cmd_lightbar
 .rodata.cmds.md
                0x00000000000340e8       0x10 build/samus/RW/common/memory_commands.o
                0x00000000000340e8                __con_cmd_md
 .rodata.cmds.mmapinfo
                0x00000000000340f8       0x10 build/samus/RW/common/switch.o
                0x00000000000340f8                __con_cmd_mmapinfo
 .rodata.cmds.panicinfo
                0x0000000000034108       0x10 build/samus/RW/common/panic_output.o
                0x0000000000034108                __con_cmd_panicinfo
 .rodata.cmds.pause_in_s5
                0x0000000000034118       0x10 build/samus/RW/power/common.o
                0x0000000000034118                __con_cmd_pause_in_s5
 .rodata.cmds.pdcmd
                0x0000000000034128       0x10 build/samus/RW/common/host_command_master.o
                0x0000000000034128                __con_cmd_pdcmd
 .rodata.cmds.pecitemp
                0x0000000000034138       0x10 build/samus/RW/chip/lm4/peci.o
                0x0000000000034138                __con_cmd_pecitemp
 .rodata.cmds.port80
                0x0000000000034148       0x10 build/samus/RW/common/port80.o
                0x0000000000034148                __con_cmd_port80
 .rodata.cmds.powerbtn
                0x0000000000034158       0x10 build/samus/RW/common/power_button.o
                0x0000000000034158                __con_cmd_powerbtn
 .rodata.cmds.powerindebug
                0x0000000000034168       0x10 build/samus/RW/power/common.o
                0x0000000000034168                __con_cmd_powerindebug
 .rodata.cmds.powerinfo
                0x0000000000034178       0x10 build/samus/RW/power/common.o
                0x0000000000034178                __con_cmd_powerinfo
 .rodata.cmds.pwmduty
                0x0000000000034188       0x10 build/samus/RW/common/pwm.o
                0x0000000000034188                __con_cmd_pwmduty
 .rodata.cmds.reboot
                0x0000000000034198       0x10 build/samus/RW/common/system.o
                0x0000000000034198                __con_cmd_reboot
 .rodata.cmds.rtc
                0x00000000000341a8       0x10 build/samus/RW/chip/lm4/system.o
                0x00000000000341a8                __con_cmd_rtc
 .rodata.cmds.rw
                0x00000000000341b8       0x10 build/samus/RW/common/memory_commands.o
                0x00000000000341b8                __con_cmd_rw
 .rodata.cmds.shmem
                0x00000000000341c8       0x10 build/samus/RW/common/shared_mem.o
                0x00000000000341c8                __con_cmd_shmem
 .rodata.cmds.sleepmask
                0x00000000000341d8       0x10 build/samus/RW/common/system.o
                0x00000000000341d8                __con_cmd_sleepmask
 .rodata.cmds.sysinfo
                0x00000000000341e8       0x10 build/samus/RW/common/system.o
                0x00000000000341e8                __con_cmd_sysinfo
 .rodata.cmds.sysjump
                0x00000000000341f8       0x10 build/samus/RW/common/system.o
                0x00000000000341f8                __con_cmd_sysjump
 .rodata.cmds.syslock
                0x0000000000034208       0x10 build/samus/RW/common/system.o
                0x0000000000034208                __con_cmd_syslock
 .rodata.cmds.tapinfo
                0x0000000000034218       0x10 build/samus/RW/common/gesture.o
                0x0000000000034218                __con_cmd_tapinfo
 .rodata.cmds.taskinfo
                0x0000000000034228       0x10 build/samus/RW/core/cortex-m/task.o
                0x0000000000034228                __con_cmd_taskinfo
 .rodata.cmds.temps
                0x0000000000034238       0x10 build/samus/RW/common/temp_sensor.o
                0x0000000000034238                __con_cmd_temps
 .rodata.cmds.thermalget
                0x0000000000034248       0x10 build/samus/RW/common/thermal.o
                0x0000000000034248                __con_cmd_thermalget
 .rodata.cmds.thermalset
                0x0000000000034258       0x10 build/samus/RW/common/thermal.o
                0x0000000000034258                __con_cmd_thermalset
 .rodata.cmds.timerinfo
                0x0000000000034268       0x10 build/samus/RW/common/timer.o
                0x0000000000034268                __con_cmd_timerinfo
 .rodata.cmds.tmp006
                0x0000000000034278       0x10 build/samus/RW/driver/temp_sensor/tmp006.o
                0x0000000000034278                __con_cmd_tmp006
 .rodata.cmds.typematic
                0x0000000000034288       0x10 build/samus/RW/common/keyboard_8042.o
                0x0000000000034288                __con_cmd_typematic
 .rodata.cmds.usbchargemode
                0x0000000000034298       0x10 build/samus/RW/common/usb_port_power_smart.o
                0x0000000000034298                __con_cmd_usbchargemode
 .rodata.cmds.version
                0x00000000000342a8       0x10 build/samus/RW/common/system.o
                0x00000000000342a8                __con_cmd_version
 .rodata.cmds.waitms
                0x00000000000342b8       0x10 build/samus/RW/common/timer.o
                0x00000000000342b8                __con_cmd_waitms
 .rodata.cmds.wireless
                0x00000000000342c8       0x10 build/samus/RW/common/wireless.o
                0x00000000000342c8                __con_cmd_wireless
                0x00000000000342d8                __cmds_end = .
                0x00000000000342d8                . = ALIGN (0x4)
                0x00000000000342d8                __extension_cmds = .
 *(.rodata.extensioncmds)
                0x00000000000342d8                __extension_cmds_end = .
                0x00000000000342d8                . = ALIGN (0x4)
                0x00000000000342d8                __hcmds = .
 *(.rodata.hcmds)
 .rodata.hcmds  0x00000000000342d8        0xc build/samus/RW/board/samus/panel.o
                0x00000000000342d8                __host_cmd_EC_CMD_SWITCH_ENABLE_BKLIGHT
 .rodata.hcmds  0x00000000000342e4        0xc build/samus/RW/chip/lm4/lpc.o
                0x00000000000342e4                __host_cmd_EC_CMD_GET_PROTOCOL_INFO
 .rodata.hcmds  0x00000000000342f0       0x18 build/samus/RW/chip/lm4/system.o
                0x00000000000342f0                __host_cmd_EC_CMD_RTC_SET_VALUE
                0x00000000000342fc                __host_cmd_EC_CMD_RTC_GET_VALUE
 .rodata.hcmds  0x0000000000034308        0xc build/samus/RW/common/battery.o
                0x0000000000034308                __host_cmd_EC_CMD_BATTERY_CUT_OFF
 .rodata.hcmds  0x0000000000034314       0x24 build/samus/RW/common/charge_state_v2.o
                0x0000000000034314                __host_cmd_EC_CMD_CHARGE_STATE
                0x0000000000034320                __host_cmd_EC_CMD_CHARGE_CURRENT_LIMIT
                0x000000000003432c                __host_cmd_EC_CMD_CHARGE_CONTROL
 .rodata.hcmds  0x0000000000034338       0x30 build/samus/RW/common/fan.o
                0x0000000000034338                __host_cmd_EC_CMD_THERMAL_AUTO_FAN_CTRL
                0x0000000000034344                __host_cmd_EC_CMD_PWM_SET_FAN_DUTY
                0x0000000000034350                __host_cmd_EC_CMD_PWM_SET_FAN_TARGET_RPM
                0x000000000003435c                __host_cmd_EC_CMD_PWM_GET_FAN_TARGET_RPM
 .rodata.hcmds  0x0000000000034368       0x48 build/samus/RW/common/flash.o
                0x0000000000034368                __host_cmd_EC_CMD_FLASH_REGION_INFO
                0x0000000000034374                __host_cmd_EC_CMD_FLASH_PROTECT
                0x0000000000034380                __host_cmd_EC_CMD_FLASH_ERASE
                0x000000000003438c                __host_cmd_EC_CMD_FLASH_WRITE
                0x0000000000034398                __host_cmd_EC_CMD_FLASH_READ
                0x00000000000343a4                __host_cmd_EC_CMD_FLASH_INFO
 .rodata.hcmds  0x00000000000343b0       0x18 build/samus/RW/common/gpio.o
                0x00000000000343b0                __host_cmd_EC_CMD_GPIO_SET
                0x00000000000343bc                __host_cmd_EC_CMD_GPIO_GET
 .rodata.hcmds  0x00000000000343c8       0x54 build/samus/RW/common/host_command.o
                0x00000000000343c8                __host_cmd_EC_CMD_GET_FEATURES
                0x00000000000343d4                __host_cmd_EC_CMD_TEST_PROTOCOL
                0x00000000000343e0                __host_cmd_EC_CMD_ENTERING_MODE
                0x00000000000343ec                __host_cmd_EC_CMD_GET_CMD_VERSIONS
                0x00000000000343f8                __host_cmd_EC_CMD_READ_TEST
                0x0000000000034404                __host_cmd_EC_CMD_HELLO
                0x0000000000034410                __host_cmd_EC_CMD_PROTO_VERSION
 .rodata.hcmds  0x000000000003441c       0x6c build/samus/RW/common/host_event_commands.o
                0x000000000003441c                __host_cmd_EC_CMD_HOST_EVENT_CLEAR_B
                0x0000000000034428                __host_cmd_EC_CMD_HOST_EVENT_CLEAR
                0x0000000000034434                __host_cmd_EC_CMD_HOST_EVENT_GET_B
                0x0000000000034440                __host_cmd_EC_CMD_HOST_EVENT_SET_WAKE_MASK
                0x000000000003444c                __host_cmd_EC_CMD_HOST_EVENT_SET_SCI_MASK
                0x0000000000034458                __host_cmd_EC_CMD_HOST_EVENT_SET_SMI_MASK
                0x0000000000034464                __host_cmd_EC_CMD_HOST_EVENT_GET_WAKE_MASK
                0x0000000000034470                __host_cmd_EC_CMD_HOST_EVENT_GET_SCI_MASK
                0x000000000003447c                __host_cmd_EC_CMD_HOST_EVENT_GET_SMI_MASK
 .rodata.hcmds  0x0000000000034488       0x24 build/samus/RW/common/i2c.o
                0x0000000000034488                __host_cmd_EC_CMD_I2C_PASSTHRU
                0x0000000000034494                __host_cmd_EC_CMD_I2C_WRITE
                0x00000000000344a0                __host_cmd_EC_CMD_I2C_READ
 .rodata.hcmds  0x00000000000344ac        0xc build/samus/RW/common/keyboard_scan.o
                0x00000000000344ac                __host_cmd_EC_CMD_MKBP_SIMULATE_KEY
 .rodata.hcmds  0x00000000000344b8        0xc build/samus/RW/common/lid_switch.o
                0x00000000000344b8                __host_cmd_EC_CMD_FORCE_LID_OPEN
 .rodata.hcmds  0x00000000000344c4        0xc build/samus/RW/common/lightbar.o
                0x00000000000344c4                __host_cmd_EC_CMD_LIGHTBAR_CMD
 .rodata.hcmds  0x00000000000344d0        0xc build/samus/RW/common/motion_sense.o
                0x00000000000344d0                __host_cmd_EC_CMD_MOTION_SENSE_CMD
 .rodata.hcmds  0x00000000000344dc        0xc build/samus/RW/common/panic_output.o
                0x00000000000344dc                __host_cmd_EC_CMD_GET_PANIC_INFO
 .rodata.hcmds  0x00000000000344e8        0xc build/samus/RW/common/port80.o
                0x00000000000344e8                __host_cmd_EC_CMD_PORT80_READ
 .rodata.hcmds  0x00000000000344f4       0x18 build/samus/RW/common/pwm_kblight.o
                0x00000000000344f4                __host_cmd_EC_CMD_PWM_SET_KEYBOARD_BACKLIGHT
                0x0000000000034500                __host_cmd_EC_CMD_PWM_GET_KEYBOARD_BACKLIGHT
 .rodata.hcmds  0x000000000003450c       0x48 build/samus/RW/common/system.o
                0x000000000003450c                __host_cmd_EC_CMD_REBOOT_EC
                0x0000000000034518                __host_cmd_EC_CMD_VBNV_CONTEXT
                0x0000000000034524                __host_cmd_EC_CMD_GET_BOARD_VERSION
                0x0000000000034530                __host_cmd_EC_CMD_GET_CHIP_INFO
                0x000000000003453c                __host_cmd_EC_CMD_GET_BUILD_INFO
                0x0000000000034548                __host_cmd_EC_CMD_GET_VERSION
 .rodata.hcmds  0x0000000000034554        0xc build/samus/RW/common/temp_sensor.o
                0x0000000000034554                __host_cmd_EC_CMD_TEMP_SENSOR_GET_INFO
 .rodata.hcmds  0x0000000000034560       0x18 build/samus/RW/common/thermal.o
                0x0000000000034560                __host_cmd_EC_CMD_THERMAL_GET_THRESHOLD
                0x000000000003456c                __host_cmd_EC_CMD_THERMAL_SET_THRESHOLD
 .rodata.hcmds  0x0000000000034578       0x18 build/samus/RW/common/uart_buffering.o
                0x0000000000034578                __host_cmd_EC_CMD_CONSOLE_READ
                0x0000000000034584                __host_cmd_EC_CMD_CONSOLE_SNAPSHOT
 .rodata.hcmds  0x0000000000034590        0xc build/samus/RW/common/usb_port_power_smart.o
                0x0000000000034590                __host_cmd_EC_CMD_USB_CHARGE_SET_MODE
 .rodata.hcmds  0x000000000003459c        0xc build/samus/RW/common/vboot_hash.o
                0x000000000003459c                __host_cmd_EC_CMD_VBOOT_HASH
 .rodata.hcmds  0x00000000000345a8        0xc build/samus/RW/common/wireless.o
                0x00000000000345a8                __host_cmd_EC_CMD_SWITCH_ENABLE_WIRELESS
 .rodata.hcmds  0x00000000000345b4       0x24 build/samus/RW/driver/temp_sensor/tmp006.o
                0x00000000000345b4                __host_cmd_EC_CMD_TMP006_GET_RAW
                0x00000000000345c0                __host_cmd_EC_CMD_TMP006_SET_CALIBRATION
                0x00000000000345cc                __host_cmd_EC_CMD_TMP006_GET_CALIBRATION
 .rodata.hcmds  0x00000000000345d8       0x18 build/samus/RW/power/common.o
                0x00000000000345d8                __host_cmd_EC_CMD_GSV_PAUSE_IN_S5
                0x00000000000345e4                __host_cmd_EC_CMD_HIBERNATION_DELAY
                0x00000000000345f0                __hcmds_end = .
                0x00000000000345f0                . = ALIGN (0x4)
                0x00000000000345f0                __mkbp_evt_srcs = .
 *(.rodata.evtsrcs)
 .rodata.evtsrcs
                0x00000000000345f0        0x8 build/samus/RW/common/host_event_commands.o
                0x00000000000345f0                __evt_src_EC_MKBP_EVENT_HOST_EVENT
                0x00000000000345f8                __mkbp_evt_srcs_end = .
                0x00000000000345f8                . = ALIGN (0x4)
                0x00000000000345f8                __hooks_init = .
 *(.rodata.HOOK_INIT)
 .rodata.HOOK_INIT
                0x00000000000345f8        0x8 build/samus/RW/board/samus/board.o
                0x00000000000345f8                __hook_HOOK_INIT_board_init
 .rodata.HOOK_INIT
                0x0000000000034600        0x8 build/samus/RW/board/samus/extpower.o
                0x0000000000034600                __hook_HOOK_INIT_extpower_init
 .rodata.HOOK_INIT
                0x0000000000034608        0x8 build/samus/RW/board/samus/panel.o
                0x0000000000034608                __hook_HOOK_INIT_backlight_init
 .rodata.HOOK_INIT
                0x0000000000034610        0x8 build/samus/RW/chip/lm4/adc.o
                0x0000000000034610                __hook_HOOK_INIT_adc_init
 .rodata.HOOK_INIT
                0x0000000000034618        0x8 build/samus/RW/chip/lm4/fan.o
                0x0000000000034618                __hook_HOOK_INIT_fan_init
 .rodata.HOOK_INIT
                0x0000000000034620        0x8 build/samus/RW/chip/lm4/gpio.o
                0x0000000000034620                __hook_HOOK_INIT_gpio_init
 .rodata.HOOK_INIT
                0x0000000000034628        0x8 build/samus/RW/chip/lm4/i2c.o
                0x0000000000034628                __hook_HOOK_INIT_i2c_init
 .rodata.HOOK_INIT
                0x0000000000034630        0x8 build/samus/RW/chip/lm4/lpc.o
                0x0000000000034630                __hook_HOOK_INIT_lpc_init
 .rodata.HOOK_INIT
                0x0000000000034638        0x8 build/samus/RW/chip/lm4/peci.o
                0x0000000000034638                __hook_HOOK_INIT_peci_init
 .rodata.HOOK_INIT
                0x0000000000034640        0x8 build/samus/RW/chip/lm4/pwm.o
                0x0000000000034640                __hook_HOOK_INIT_pwm_init
 .rodata.HOOK_INIT
                0x0000000000034648        0x8 build/samus/RW/common/als.o
                0x0000000000034648                __hook_HOOK_INIT_als_task_init
 .rodata.HOOK_INIT
                0x0000000000034650        0x8 build/samus/RW/common/charge_state_v2.o
                0x0000000000034650                __hook_HOOK_INIT_charger_init
 .rodata.HOOK_INIT
                0x0000000000034658        0x8 build/samus/RW/common/fan.o
                0x0000000000034658                __hook_HOOK_INIT_pwm_fan_init
 .rodata.HOOK_INIT
                0x0000000000034660        0x8 build/samus/RW/common/keyboard_8042.o
                0x0000000000034660                __hook_HOOK_INIT_keyboard_restore_state
 .rodata.HOOK_INIT
                0x0000000000034668        0x8 build/samus/RW/common/lid_switch.o
                0x0000000000034668                __hook_HOOK_INIT_lid_init
 .rodata.HOOK_INIT
                0x0000000000034670        0x8 build/samus/RW/common/motion_sense.o
                0x0000000000034670                __hook_HOOK_INIT_motion_sense_startup
 .rodata.HOOK_INIT
                0x0000000000034678        0x8 build/samus/RW/common/panic_output.o
                0x0000000000034678                __hook_HOOK_INIT_panic_init
 .rodata.HOOK_INIT
                0x0000000000034680        0x8 build/samus/RW/common/power_button.o
                0x0000000000034680                __hook_HOOK_INIT_power_button_init
 .rodata.HOOK_INIT
                0x0000000000034688        0x8 build/samus/RW/common/power_button_x86.o
                0x0000000000034688                __hook_HOOK_INIT_powerbtn_x86_init
 .rodata.HOOK_INIT
                0x0000000000034690        0x8 build/samus/RW/common/pwm.o
                0x0000000000034690                __hook_HOOK_INIT_pwm_pin_init
 .rodata.HOOK_INIT
                0x0000000000034698        0x8 build/samus/RW/common/pwm_kblight.o
                0x0000000000034698                __hook_HOOK_INIT_pwm_kblight_init
 .rodata.HOOK_INIT
                0x00000000000346a0        0x8 build/samus/RW/common/switch.o
                0x00000000000346a0                __hook_HOOK_INIT_switch_init
 .rodata.HOOK_INIT
                0x00000000000346a8        0x8 build/samus/RW/common/temp_sensor.o
                0x00000000000346a8                __hook_HOOK_INIT_temp_sensor_init
 .rodata.HOOK_INIT
                0x00000000000346b0        0x8 build/samus/RW/common/thermal.o
                0x00000000000346b0                __hook_HOOK_INIT_dptf_init
 .rodata.HOOK_INIT
                0x00000000000346b8        0x8 build/samus/RW/common/usb_port_power_smart.o
                0x00000000000346b8                __hook_HOOK_INIT_usb_charge_init
 .rodata.HOOK_INIT
                0x00000000000346c0        0x8 build/samus/RW/common/vboot_hash.o
                0x00000000000346c0                __hook_HOOK_INIT_vboot_hash_init
 .rodata.HOOK_INIT
                0x00000000000346c8        0x8 build/samus/RW/driver/temp_sensor/tmp006.o
                0x00000000000346c8                __hook_HOOK_INIT_tmp006_init
 .rodata.HOOK_INIT
                0x00000000000346d0        0x8 build/samus/RW/power/common.o
                0x00000000000346d0                __hook_HOOK_INIT_power_common_init
                0x00000000000346d8                __hooks_init_end = .
                0x00000000000346d8                __hooks_pre_freq_change = .
 *(.rodata.HOOK_PRE_FREQ_CHANGE)
                0x00000000000346d8                __hooks_pre_freq_change_end = .
                0x00000000000346d8                __hooks_freq_change = .
 *(.rodata.HOOK_FREQ_CHANGE)
 .rodata.HOOK_FREQ_CHANGE
                0x00000000000346d8        0x8 build/samus/RW/chip/lm4/hwtimer.o
                0x00000000000346d8                __hook_HOOK_FREQ_CHANGE_update_prescaler
 .rodata.HOOK_FREQ_CHANGE
                0x00000000000346e0        0x8 build/samus/RW/chip/lm4/i2c.o
                0x00000000000346e0                __hook_HOOK_FREQ_CHANGE_i2c_freq_changed
 .rodata.HOOK_FREQ_CHANGE
                0x00000000000346e8        0x8 build/samus/RW/chip/lm4/peci.o
                0x00000000000346e8                __hook_HOOK_FREQ_CHANGE_peci_freq_changed
 .rodata.HOOK_FREQ_CHANGE
                0x00000000000346f0        0x8 build/samus/RW/chip/lm4/watchdog.o
                0x00000000000346f0                __hook_HOOK_FREQ_CHANGE_watchdog_freq_changed
 .rodata.HOOK_FREQ_CHANGE
                0x00000000000346f8        0x8 build/samus/RW/common/keyboard_scan.o
                0x00000000000346f8                __hook_HOOK_FREQ_CHANGE_keyboard_freq_change
                0x0000000000034700                __hooks_freq_change_end = .
                0x0000000000034700                __hooks_sysjump = .
 *(.rodata.HOOK_SYSJUMP)
 .rodata.HOOK_SYSJUMP
                0x0000000000034700        0x8 build/samus/RW/chip/lm4/lpc.o
                0x0000000000034700                __hook_HOOK_SYSJUMP_lpc_sysjump
 .rodata.HOOK_SYSJUMP
                0x0000000000034708        0x8 build/samus/RW/common/fan.o
                0x0000000000034708                __hook_HOOK_SYSJUMP_pwm_fan_preserve_state
 .rodata.HOOK_SYSJUMP
                0x0000000000034710        0x8 build/samus/RW/common/keyboard_8042.o
                0x0000000000034710                __hook_HOOK_SYSJUMP_keyboard_preserve_state
 .rodata.HOOK_SYSJUMP
                0x0000000000034718        0x8 build/samus/RW/common/lightbar.o
                0x0000000000034718                __hook_HOOK_SYSJUMP_lightbar_preserve_state
 .rodata.HOOK_SYSJUMP
                0x0000000000034720        0x8 build/samus/RW/common/pwm_kblight.o
                0x0000000000034720                __hook_HOOK_SYSJUMP_pwm_kblight_preserve_state
 .rodata.HOOK_SYSJUMP
                0x0000000000034728        0x8 build/samus/RW/common/timer.o
                0x0000000000034728                __hook_HOOK_SYSJUMP_timer_sysjump
 .rodata.HOOK_SYSJUMP
                0x0000000000034730        0x8 build/samus/RW/common/usb_port_power_smart.o
                0x0000000000034730                __hook_HOOK_SYSJUMP_usb_charge_preserve_state
                0x0000000000034738                __hooks_sysjump_end = .
                0x0000000000034738                __hooks_chipset_pre_init = .
 *(.rodata.HOOK_CHIPSET_PRE_INIT)
 .rodata.HOOK_CHIPSET_PRE_INIT
                0x0000000000034738        0x8 build/samus/RW/board/samus/extpower.o
                0x0000000000034738                __hook_HOOK_CHIPSET_PRE_INIT_extpower_buffer_to_pch
                0x0000000000034740                __hooks_chipset_pre_init_end = .
                0x0000000000034740                __hooks_chipset_startup = .
 *(.rodata.HOOK_CHIPSET_STARTUP)
 .rodata.HOOK_CHIPSET_STARTUP
                0x0000000000034740        0x8 build/samus/RW/common/lightbar.o
                0x0000000000034740                __hook_HOOK_CHIPSET_STARTUP_lightbar_startup
                0x0000000000034748                __hooks_chipset_startup_end = .
                0x0000000000034748                __hooks_chipset_resume = .
 *(.rodata.HOOK_CHIPSET_RESUME)
 .rodata.HOOK_CHIPSET_RESUME
                0x0000000000034748        0x8 build/samus/RW/board/samus/extpower.o
                0x0000000000034748                __hook_HOOK_CHIPSET_RESUME_cancel_charging_cutoff
 .rodata.HOOK_CHIPSET_RESUME
                0x0000000000034750        0x8 build/samus/RW/chip/lm4/lpc.o
                0x0000000000034750                __hook_HOOK_CHIPSET_RESUME_lpc_resume
 .rodata.HOOK_CHIPSET_RESUME
                0x0000000000034758        0x8 build/samus/RW/common/als.o
                0x0000000000034758                __hook_HOOK_CHIPSET_RESUME_als_task_enable
 .rodata.HOOK_CHIPSET_RESUME
                0x0000000000034760        0x8 build/samus/RW/common/charge_state_v2.o
                0x0000000000034760                __hook_HOOK_CHIPSET_RESUME_charge_wakeup
 .rodata.HOOK_CHIPSET_RESUME
                0x0000000000034768        0x8 build/samus/RW/common/fan.o
                0x0000000000034768                __hook_HOOK_CHIPSET_RESUME_pwm_fan_resume
 .rodata.HOOK_CHIPSET_RESUME
                0x0000000000034770        0x8 build/samus/RW/common/gesture.o
                0x0000000000034770                __hook_HOOK_CHIPSET_RESUME_gesture_chipset_resume
 .rodata.HOOK_CHIPSET_RESUME
                0x0000000000034778        0x8 build/samus/RW/common/lightbar.o
                0x0000000000034778                __hook_HOOK_CHIPSET_RESUME_lightbar_resume
 .rodata.HOOK_CHIPSET_RESUME
                0x0000000000034780        0x8 build/samus/RW/common/motion_sense.o
                0x0000000000034780                __hook_HOOK_CHIPSET_RESUME_motion_sense_resume
 .rodata.HOOK_CHIPSET_RESUME
                0x0000000000034788        0x8 build/samus/RW/common/usb_port_power_smart.o
                0x0000000000034788                __hook_HOOK_CHIPSET_RESUME_usb_charge_resume
                0x0000000000034790                __hooks_chipset_resume_end = .
                0x0000000000034790                __hooks_chipset_suspend = .
 *(.rodata.HOOK_CHIPSET_SUSPEND)
 .rodata.HOOK_CHIPSET_SUSPEND
                0x0000000000034790        0x8 build/samus/RW/board/samus/extpower.o
                0x0000000000034790                __hook_HOOK_CHIPSET_SUSPEND_check_charging_cutoff
 .rodata.HOOK_CHIPSET_SUSPEND
                0x0000000000034798        0x8 build/samus/RW/common/als.o
                0x0000000000034798                __hook_HOOK_CHIPSET_SUSPEND_als_task_disable
 .rodata.HOOK_CHIPSET_SUSPEND
                0x00000000000347a0        0x8 build/samus/RW/common/charge_state_v2.o
                0x00000000000347a0                __hook_HOOK_CHIPSET_SUSPEND_reset_current_limit
 .rodata.HOOK_CHIPSET_SUSPEND
                0x00000000000347a8        0x8 build/samus/RW/common/charger.o
                0x00000000000347a8                __hook_HOOK_CHIPSET_SUSPEND_dptf_disable_hook
 .rodata.HOOK_CHIPSET_SUSPEND
                0x00000000000347b0        0x8 build/samus/RW/common/fan.o
                0x00000000000347b0                __hook_HOOK_CHIPSET_SUSPEND_pwm_fan_S3_S5
 .rodata.HOOK_CHIPSET_SUSPEND
                0x00000000000347b8        0x8 build/samus/RW/common/gesture.o
                0x00000000000347b8                __hook_HOOK_CHIPSET_SUSPEND_gesture_chipset_suspend
 .rodata.HOOK_CHIPSET_SUSPEND
                0x00000000000347c0        0x8 build/samus/RW/common/lightbar.o
                0x00000000000347c0                __hook_HOOK_CHIPSET_SUSPEND_lightbar_suspend
 .rodata.HOOK_CHIPSET_SUSPEND
                0x00000000000347c8        0x8 build/samus/RW/common/motion_sense.o
                0x00000000000347c8                __hook_HOOK_CHIPSET_SUSPEND_motion_sense_suspend
 .rodata.HOOK_CHIPSET_SUSPEND
                0x00000000000347d0        0x8 build/samus/RW/common/pwm_kblight.o
                0x00000000000347d0                __hook_HOOK_CHIPSET_SUSPEND_pwm_kblight_suspend
                0x00000000000347d8                __hooks_chipset_suspend_end = .
                0x00000000000347d8                __hooks_chipset_shutdown = .
 *(.rodata.HOOK_CHIPSET_SHUTDOWN)
 .rodata.HOOK_CHIPSET_SHUTDOWN
                0x00000000000347d8        0x8 build/samus/RW/board/samus/extpower.o
                0x00000000000347d8                __hook_HOOK_CHIPSET_SHUTDOWN_extpower_shutdown
 .rodata.HOOK_CHIPSET_SHUTDOWN
                0x00000000000347e0        0x8 build/samus/RW/common/battery.o
                0x00000000000347e0                __hook_HOOK_CHIPSET_SHUTDOWN_check_pending_cutoff
 .rodata.HOOK_CHIPSET_SHUTDOWN
                0x00000000000347e8        0x8 build/samus/RW/common/charge_state_v2.o
                0x00000000000347e8                __hook_HOOK_CHIPSET_SHUTDOWN_reset_current_limit
 .rodata.HOOK_CHIPSET_SHUTDOWN
                0x00000000000347f0        0x8 build/samus/RW/common/charger.o
                0x00000000000347f0                __hook_HOOK_CHIPSET_SHUTDOWN_dptf_disable_hook
 .rodata.HOOK_CHIPSET_SHUTDOWN
                0x00000000000347f8        0x8 build/samus/RW/common/fan.o
                0x00000000000347f8                __hook_HOOK_CHIPSET_SHUTDOWN_pwm_fan_S3_S5
 .rodata.HOOK_CHIPSET_SHUTDOWN
                0x0000000000034800        0x8 build/samus/RW/common/lightbar.o
                0x0000000000034800                __hook_HOOK_CHIPSET_SHUTDOWN_lightbar_shutdown
 .rodata.HOOK_CHIPSET_SHUTDOWN
                0x0000000000034808        0x8 build/samus/RW/common/motion_sense.o
                0x0000000000034808                __hook_HOOK_CHIPSET_SHUTDOWN_motion_sense_shutdown
 .rodata.HOOK_CHIPSET_SHUTDOWN
                0x0000000000034810        0x8 build/samus/RW/common/pwm_kblight.o
                0x0000000000034810                __hook_HOOK_CHIPSET_SHUTDOWN_pwm_kblight_shutdown
 .rodata.HOOK_CHIPSET_SHUTDOWN
                0x0000000000034818        0x8 build/samus/RW/common/system.o
                0x0000000000034818                __hook_HOOK_CHIPSET_SHUTDOWN_system_common_shutdown
 .rodata.HOOK_CHIPSET_SHUTDOWN
                0x0000000000034820        0x8 build/samus/RW/common/usb_port_power_smart.o
                0x0000000000034820                __hook_HOOK_CHIPSET_SHUTDOWN_usb_charge_shutdown
                0x0000000000034828                __hooks_chipset_shutdown_end = .
                0x0000000000034828                __hooks_ac_change = .
 *(.rodata.HOOK_AC_CHANGE)
 .rodata.HOOK_AC_CHANGE
                0x0000000000034828        0x8 build/samus/RW/common/battery.o
                0x0000000000034828                __hook_HOOK_AC_CHANGE_clear_pending_cutoff
 .rodata.HOOK_AC_CHANGE
                0x0000000000034830        0x8 build/samus/RW/common/charge_state_v2.o
                0x0000000000034830                __hook_HOOK_AC_CHANGE_charge_wakeup
 .rodata.HOOK_AC_CHANGE
                0x0000000000034838        0x8 build/samus/RW/power/common.o
                0x0000000000034838                __hook_HOOK_AC_CHANGE_power_ac_change
                0x0000000000034840                __hooks_ac_change_end = .
                0x0000000000034840                __hooks_lid_change = .
 *(.rodata.HOOK_LID_CHANGE)
 .rodata.HOOK_LID_CHANGE
                0x0000000000034840       0x10 build/samus/RW/board/samus/panel.o
                0x0000000000034840                __hook_HOOK_LID_CHANGE_printstmt
                0x0000000000034848                __hook_HOOK_LID_CHANGE_update_backlight
 .rodata.HOOK_LID_CHANGE
                0x0000000000034850        0x8 build/samus/RW/common/keyboard_scan.o
                0x0000000000034850                __hook_HOOK_LID_CHANGE_keyboard_lid_change
 .rodata.HOOK_LID_CHANGE
                0x0000000000034858        0x8 build/samus/RW/common/power_button_x86.o
                0x0000000000034858                __hook_HOOK_LID_CHANGE_powerbtn_x86_lid_change
 .rodata.HOOK_LID_CHANGE
                0x0000000000034860        0x8 build/samus/RW/common/pwm_kblight.o
                0x0000000000034860                __hook_HOOK_LID_CHANGE_pwm_kblight_lid_change
 .rodata.HOOK_LID_CHANGE
                0x0000000000034868        0x8 build/samus/RW/common/switch.o
                0x0000000000034868                __hook_HOOK_LID_CHANGE_switch_update
 .rodata.HOOK_LID_CHANGE
                0x0000000000034870        0x8 build/samus/RW/power/common.o
                0x0000000000034870                __hook_HOOK_LID_CHANGE_power_lid_change
                0x0000000000034878                __hooks_lid_change_end = .
                0x0000000000034878                __hooks_pwrbtn_change = .
 *(.rodata.HOOK_POWER_BUTTON_CHANGE)
 .rodata.HOOK_POWER_BUTTON_CHANGE
                0x0000000000034878        0x8 build/samus/RW/common/keyboard_8042.o
                0x0000000000034878                __hook_HOOK_POWER_BUTTON_CHANGE_keyboard_power_button
 .rodata.HOOK_POWER_BUTTON_CHANGE
                0x0000000000034880        0x8 build/samus/RW/common/power_button_x86.o
                0x0000000000034880                __hook_HOOK_POWER_BUTTON_CHANGE_powerbtn_x86_changed
 .rodata.HOOK_POWER_BUTTON_CHANGE
                0x0000000000034888        0x8 build/samus/RW/common/switch.o
                0x0000000000034888                __hook_HOOK_POWER_BUTTON_CHANGE_switch_update
                0x0000000000034890                __hooks_pwrbtn_change_end = .
                0x0000000000034890                __hooks_charge_state_change = .
 *(.rodata.HOOK_CHARGE_STATE_CHANGE)
 .rodata.HOOK_CHARGE_STATE_CHANGE
                0x0000000000034890        0x8 build/samus/RW/common/power_button_x86.o
                0x0000000000034890                __hook_HOOK_CHARGE_STATE_CHANGE_powerbtn_x86_charge
                0x0000000000034898                __hooks_charge_state_change_end = .
                0x0000000000034898                __hooks_battery_soc_change = .
 *(.rodata.HOOK_BATTERY_SOC_CHANGE)
 .rodata.HOOK_BATTERY_SOC_CHANGE
                0x0000000000034898        0x8 build/samus/RW/board/samus/extpower.o
                0x0000000000034898                __hook_HOOK_BATTERY_SOC_CHANGE_batt_soc_change
                0x00000000000348a0                __hooks_battery_soc_change_end = .
                0x00000000000348a0                __hooks_tick = .
 *(.rodata.HOOK_TICK)
 .rodata.HOOK_TICK
                0x00000000000348a0        0x8 build/samus/RW/chip/lm4/lpc.o
                0x00000000000348a0                __hook_HOOK_TICK_lpc_tick
 .rodata.HOOK_TICK
                0x00000000000348a8        0x8 build/samus/RW/chip/lm4/peci.o
                0x00000000000348a8                __hook_HOOK_TICK_peci_temp_sensor_poll
 .rodata.HOOK_TICK
                0x00000000000348b0        0x8 build/samus/RW/chip/lm4/watchdog.o
                0x00000000000348b0                __hook_HOOK_TICK_watchdog_reload
                0x00000000000348b8                __hooks_tick_end = .
                0x00000000000348b8                __hooks_second = .
 *(.rodata.HOOK_SECOND)
 .rodata.HOOK_SECOND
                0x00000000000348b8        0x8 build/samus/RW/chip/lm4/chip_temp_sensor.o
                0x00000000000348b8                __hook_HOOK_SECOND_chip_temp_sensor_poll
 .rodata.HOOK_SECOND
                0x00000000000348c0        0x8 build/samus/RW/common/fan.o
                0x00000000000348c0                __hook_HOOK_SECOND_pwm_fan_second
 .rodata.HOOK_SECOND
                0x00000000000348c8        0x8 build/samus/RW/common/lightbar.o
                0x00000000000348c8                __hook_HOOK_SECOND_my_led_flash
 .rodata.HOOK_SECOND
                0x00000000000348d0        0x8 build/samus/RW/common/temp_sensor.o
                0x00000000000348d0                __hook_HOOK_SECOND_update_mapped_memory
 .rodata.HOOK_SECOND
                0x00000000000348d8        0x8 build/samus/RW/common/thermal.o
                0x00000000000348d8                __hook_HOOK_SECOND_thermal_control
 .rodata.HOOK_SECOND
                0x00000000000348e0        0x8 build/samus/RW/driver/temp_sensor/tmp006.o
                0x00000000000348e0                __hook_HOOK_SECOND_tmp006_poll
                0x00000000000348e8                __hooks_second_end = .
                0x00000000000348e8                __deferred_funcs = .
 *(.rodata.deferred)
 .rodata.deferred
                0x00000000000348e8        0x8 build/samus/RW/board/samus/extpower.o
                0x00000000000348e8                __deferred_allow_min_charging
                0x00000000000348ec                __deferred_allow_max_request
 .rodata.deferred
                0x00000000000348f0        0x4 build/samus/RW/board/samus/panel.o
                0x00000000000348f0                __deferred_lp8555_enable_pwm_mode
 .rodata.deferred
                0x00000000000348f4        0x4 build/samus/RW/common/acpi.o
                0x00000000000348f4                __deferred_acpi_disable_burst_deferred
 .rodata.deferred
                0x00000000000348f8        0x4 build/samus/RW/common/battery.o
                0x00000000000348f8                __deferred_pending_cutoff_deferred
 .rodata.deferred
                0x00000000000348fc        0x4 build/samus/RW/common/lid_switch.o
                0x00000000000348fc                __deferred_lid_change_deferred
 .rodata.deferred
                0x0000000000034900        0x4 build/samus/RW/common/lightbar.o
                0x0000000000034900                __deferred_my_blink_from_queue
 .rodata.deferred
                0x0000000000034904        0x4 build/samus/RW/common/power_button.o
                0x0000000000034904                __deferred_power_button_change_deferred
 .rodata.deferred
                0x0000000000034908        0x4 build/samus/RW/common/switch.o
                0x0000000000034908                __deferred_switch_update
 .rodata.deferred
                0x000000000003490c        0x4 build/samus/RW/common/vboot_hash.o
                0x000000000003490c                __deferred_vboot_hash_next_chunk
                0x0000000000034910                __deferred_funcs_end = .
                0x0000000000034910                __usb_desc = .
 *(.rodata.usb_desc_conf)
 *(SORT(.rodata.usb_desc*))
                0x0000000000034910                __usb_desc_end = .
                0x0000000000034910                . = ALIGN (0x4)
 *(.rodata.usb_ep)
                0x0000000000034910                . = ALIGN (0x4)
 *(.rodata*)
 .rodata        0x0000000000034910      0x878 build/samus/RW/board/samus/board.o
                0x0000000000034910                motion_sensor_count
                0x0000000000034914                lid_standard_ref
                0x0000000000034938                base_standard_ref
                0x000000000003495c                temp_sensors
                0x0000000000034a88                tmp006_sensors
                0x0000000000034ab8                i2c_ports_used
                0x0000000000034abc                i2c_ports
                0x0000000000034aec                fans
                0x0000000000034b24                pwm_channels
                0x0000000000034b2c                adc_channels
                0x0000000000034b74                power_signal_list
                0x0000000000034be0                gpio_ih_count
                0x0000000000034be4                gpio_irq_handlers
                0x0000000000034c2c                gpio_alt_funcs_count
                0x0000000000034c30                gpio_alt_funcs
                0x0000000000034cd8                gpio_list
 .rodata.str1.1
                0x0000000000035188      0x55c build/samus/RW/board/samus/board.o
 .rodata        0x00000000000356e4        0x8 build/samus/RW/board/samus/extpower.o
 .rodata.str1.1
                0x00000000000356ec       0x78 build/samus/RW/board/samus/extpower.o
 .rodata.str1.1
                0x0000000000035764       0x8e build/samus/RW/board/samus/panel.o
 *fill*         0x00000000000357f2        0x2 
 .rodata        0x00000000000357f4       0x28 build/samus/RW/board/samus/power_sequence.o
 .rodata.str1.1
                0x000000000003581c       0xf2 build/samus/RW/board/samus/power_sequence.o
 *fill*         0x000000000003590e        0x2 
 .rodata        0x0000000000035910       0x14 build/samus/RW/chip/lm4/adc.o
 .rodata.str1.1
                0x0000000000035924       0x2d build/samus/RW/chip/lm4/adc.o
 *fill*         0x0000000000035951        0x3 
 .rodata        0x0000000000035954       0x14 build/samus/RW/chip/lm4/clock.o
 .rodata.str1.1
                0x0000000000035968      0x294 build/samus/RW/chip/lm4/clock.o
                                        0x295 (size before relaxing)
 .rodata        0x0000000000035bfc       0x50 build/samus/RW/chip/lm4/gpio.o
 .rodata        0x0000000000035c4c       0x18 build/samus/RW/chip/lm4/i2c.o
 .rodata.str1.1
                0x0000000000035c64       0x32 build/samus/RW/chip/lm4/i2c.o
 .rodata.str1.1
                0x0000000000035c96       0x48 build/samus/RW/chip/lm4/lpc.o
                                         0x4c (size before relaxing)
 *fill*         0x0000000000035cde        0x2 
 .rodata        0x0000000000035ce0        0xc build/samus/RW/chip/lm4/peci.o
 .rodata.str1.1
                0x0000000000035cec       0x41 build/samus/RW/chip/lm4/peci.o
 *fill*         0x0000000000035d2d        0x3 
 .rodata        0x0000000000035d30        0x4 build/samus/RW/chip/lm4/system.o
 .rodata.str1.1
                0x0000000000035d34       0x98 build/samus/RW/chip/lm4/system.o
                                         0x9c (size before relaxing)
 .rodata.str1.1
                0x0000000000035dcc       0x81 build/samus/RW/common/acpi.o
 *fill*         0x0000000000035e4d        0x3 
 .rodata        0x0000000000035e50        0x4 build/samus/RW/common/adc.o
 .rodata.str1.1
                0x0000000000035e54       0x27 build/samus/RW/common/adc.o
 .rodata.str1.1
                0x0000000000035e7b       0x2c build/samus/RW/common/als.o
 *fill*         0x0000000000035ea7        0x1 
 .rodata        0x0000000000035ea8       0x40 build/samus/RW/common/battery.o
 .rodata.str1.1
                0x0000000000035ee8      0x2e3 build/samus/RW/common/battery.o
                                        0x309 (size before relaxing)
 *fill*         0x00000000000361cb        0x1 
 .rodata        0x00000000000361cc       0x6c build/samus/RW/common/charge_state_v2.o
 .rodata.str1.1
                0x0000000000036238      0x570 build/samus/RW/common/charge_state_v2.o
                                        0x57f (size before relaxing)
 .rodata        0x00000000000367a8        0x8 build/samus/RW/common/charger.o
 .rodata.str1.1
                0x00000000000367b0       0xd9 build/samus/RW/common/charger.o
                                         0xff (size before relaxing)
 *fill*         0x0000000000036889        0x3 
 .rodata        0x000000000003688c       0x14 build/samus/RW/common/chipset.o
 .rodata.str1.1
                0x00000000000368a0       0x51 build/samus/RW/common/chipset.o
 *fill*         0x00000000000368f1        0x3 
 .rodata        0x00000000000368f4       0x38 build/samus/RW/common/console.o
 .rodata.str1.1
                0x000000000003692c      0x1bf build/samus/RW/common/console.o
                                        0x1cf (size before relaxing)
 *fill*         0x0000000000036aeb        0x1 
 .rodata        0x0000000000036aec       0x88 build/samus/RW/common/console_output.o
 .rodata.str1.1
                0x0000000000036b74      0x139 build/samus/RW/common/console_output.o
                                        0x163 (size before relaxing)
 *fill*         0x0000000000036cad        0x3 
 .rodata        0x0000000000036cb0       0x30 build/samus/RW/common/fan.o
 .rodata.str1.1
                0x0000000000036ce0      0x1c0 build/samus/RW/common/fan.o
                                        0x1c9 (size before relaxing)
 .rodata        0x0000000000036ea0       0x14 build/samus/RW/common/flash.o
 .rodata.str1.1
                0x0000000000036eb4      0x120 build/samus/RW/common/flash.o
                                        0x13e (size before relaxing)
 .rodata        0x0000000000036fd4        0x8 build/samus/RW/common/gesture.o
 .rodata.str1.1
                0x0000000000036fdc       0xd4 build/samus/RW/common/gesture.o
                                         0xdb (size before relaxing)
 .rodata        0x00000000000370b0       0x10 build/samus/RW/common/gpio.o
 .rodata.str1.1
                0x00000000000370c0       0x36 build/samus/RW/common/gpio.o
                                         0x3d (size before relaxing)
 *fill*         0x00000000000370f6        0x2 
 .rodata        0x00000000000370f8       0x80 build/samus/RW/common/hooks.o
 .rodata        0x0000000000037178       0x2c build/samus/RW/common/host_command.o
 .rodata.str1.1
                0x00000000000371a4      0x109 build/samus/RW/common/host_command.o
                                        0x114 (size before relaxing)
 *fill*         0x00000000000372ad        0x3 
 .rodata        0x00000000000372b0        0x8 build/samus/RW/common/host_command_master.o
 .rodata.str1.1
                0x00000000000372b8      0x170 build/samus/RW/common/host_command_master.o
                                        0x178 (size before relaxing)
 .rodata        0x0000000000037428       0x14 build/samus/RW/common/host_command_pd.o
 .rodata.str1.1
                0x000000000003743c       0x56 build/samus/RW/common/host_command_pd.o
 *fill*         0x0000000000037492        0x2 
 .rodata        0x0000000000037494        0xc build/samus/RW/common/host_event_commands.o
 .rodata.str1.1
                0x00000000000374a0      0x100 build/samus/RW/common/host_event_commands.o
                                        0x104 (size before relaxing)
 .rodata        0x00000000000375a0       0x40 build/samus/RW/common/i2c.o
 .rodata.str1.1
                0x00000000000375e0      0x178 build/samus/RW/common/i2c.o
                                        0x180 (size before relaxing)
 .rodata        0x0000000000037758       0xc8 build/samus/RW/common/keyboard_8042.o
 .rodata.str1.1
                0x0000000000037820      0x41a build/samus/RW/common/keyboard_8042.o
                                        0x449 (size before relaxing)
 *fill*         0x0000000000037c3a        0x2 
 .rodata        0x0000000000037c3c      0x1f8 build/samus/RW/common/keyboard_8042_sharedlib.o
                0x0000000000037c3c                buttons_8042
                0x0000000000037c94                scancode_set2
                0x0000000000037d64                scancode_set1
 .rodata        0x0000000000037e34       0x18 build/samus/RW/common/keyboard_scan.o
 .rodata.str1.1
                0x0000000000037e4c      0x171 build/samus/RW/common/keyboard_scan.o
                                        0x181 (size before relaxing)
 *fill*         0x0000000000037fbd        0x3 
 .rodata        0x0000000000037fc0       0x40 build/samus/RW/common/lb_common.o
 .rodata.str1.1
                0x0000000000038000       0x30 build/samus/RW/common/lb_common.o
                                         0x36 (size before relaxing)
 .rodata        0x0000000000038030       0x14 build/samus/RW/common/lid_switch.o
 .rodata.str1.1
                0x0000000000038044       0xad build/samus/RW/common/lid_switch.o
 *fill*         0x00000000000380f1        0x3 
 .rodata        0x00000000000380f4      0x3f0 build/samus/RW/common/lightbar.o
 .rodata.str1.1
                0x00000000000384e4      0x798 build/samus/RW/common/lightbar.o
                                        0x7e4 (size before relaxing)
 .rodata.str1.1
                0x0000000000038c7c       0x87 build/samus/RW/common/main.o
                                         0x8a (size before relaxing)
 *fill*         0x0000000000038d03        0x1 
 .rodata        0x0000000000038d04       0x9c build/samus/RW/common/math_util.o
 .rodata.str1.1
                0x0000000000038da0       0x13 build/samus/RW/common/math_util.o
                                         0x15 (size before relaxing)
 *fill*         0x0000000000038db3        0x1 
 .rodata        0x0000000000038db4        0x8 build/samus/RW/common/memory_commands.o
 .rodata.str1.1
                0x0000000000038dbc      0x122 build/samus/RW/common/memory_commands.o
                                        0x133 (size before relaxing)
 *fill*         0x0000000000038ede        0x2 
 .rodata        0x0000000000038ee0       0x58 build/samus/RW/common/motion_lid.o
                0x0000000000038ee0                acc_orient
                0x0000000000038f34                p_acc_orient
 .rodata        0x0000000000038f38       0x5c build/samus/RW/common/motion_sense.o
 .rodata.str1.1
                0x0000000000038f94      0x2b8 build/samus/RW/common/motion_sense.o
                                        0x2be (size before relaxing)
 .rodata        0x000000000003924c       0x3c build/samus/RW/common/panic_output.o
 .rodata.str1.1
                0x0000000000039288      0x168 build/samus/RW/common/panic_output.o
                                        0x177 (size before relaxing)
 .rodata        0x00000000000393f0        0x8 build/samus/RW/common/port80.o
 .rodata.str1.1
                0x00000000000393f8       0xda build/samus/RW/common/port80.o
                                         0xe3 (size before relaxing)
 *fill*         0x00000000000394d2        0x2 
 .rodata        0x00000000000394d4        0xc build/samus/RW/common/power_button.o
 .rodata.str1.1
                0x00000000000394e0       0xbb build/samus/RW/common/power_button.o
                                         0xcc (size before relaxing)
 *fill*         0x000000000003959b        0x1 
 .rodata        0x000000000003959c       0x2c build/samus/RW/common/power_button_x86.o
 .rodata.str1.1
                0x00000000000395c8      0x159 build/samus/RW/common/power_button_x86.o
                                        0x181 (size before relaxing)
 *fill*         0x0000000000039721        0x3 
 .rodata        0x0000000000039724        0x8 build/samus/RW/common/printf.o
 .rodata.str1.1
                0x000000000003972c        0x7 build/samus/RW/common/printf.o
 *fill*         0x0000000000039733        0x1 
 .rodata        0x0000000000039734        0x8 build/samus/RW/common/pwm.o
 .rodata.str1.1
                0x000000000003973c       0x83 build/samus/RW/common/pwm.o
 *fill*         0x00000000000397bf        0x1 
 .rodata        0x00000000000397c0        0x8 build/samus/RW/common/pwm_kblight.o
 .rodata.str1.1
                0x00000000000397c8       0x31 build/samus/RW/common/pwm_kblight.o
                                         0x39 (size before relaxing)
 *fill*         0x00000000000397f9        0x3 
 .rodata        0x00000000000397fc       0x14 build/samus/RW/common/queue.o
                0x0000000000039808                queue_policy_null
 .rodata.str1.1
                0x0000000000039810       0x58 build/samus/RW/common/queue.o
 .rodata        0x0000000000039868      0x100 build/samus/RW/common/sha256.o
 .rodata        0x0000000000039968        0x8 build/samus/RW/common/shared_mem.o
 .rodata.str1.1
                0x0000000000039970       0x38 build/samus/RW/common/shared_mem.o
 .rodata        0x00000000000399a8       0x24 build/samus/RW/common/switch.o
 .rodata.str1.1
                0x00000000000399cc       0x6f build/samus/RW/common/switch.o
                                         0x74 (size before relaxing)
 *fill*         0x0000000000039a3b        0x1 
 .rodata        0x0000000000039a3c       0x84 build/samus/RW/common/system.o
 .rodata.str1.1
                0x0000000000039ac0      0x3b5 build/samus/RW/common/system.o
                                        0x3f9 (size before relaxing)
 *fill*         0x0000000000039e75        0x3 
 .rodata        0x0000000000039e78        0x8 build/samus/RW/common/temp_sensor.o
 .rodata.str1.1
                0x0000000000039e80       0x57 build/samus/RW/common/temp_sensor.o
                                         0x59 (size before relaxing)
 *fill*         0x0000000000039ed7        0x1 
 .rodata        0x0000000000039ed8       0x24 build/samus/RW/common/thermal.o
 .rodata.str1.1
                0x0000000000039efc      0x275 build/samus/RW/common/thermal.o
                                        0x284 (size before relaxing)
 *fill*         0x000000000003a171        0x3 
 .rodata        0x000000000003a174        0xc build/samus/RW/common/throttle_ap.o
 .rodata.str1.1
                0x000000000003a180       0x6f build/samus/RW/common/throttle_ap.o
                                         0x76 (size before relaxing)
 *fill*         0x000000000003a1ef        0x1 
 .rodata        0x000000000003a1f0       0x40 build/samus/RW/common/timer.o
 .rodata.str1.1
                0x000000000003a230       0xe5 build/samus/RW/common/timer.o
                                         0xed (size before relaxing)
 *fill*         0x000000000003a315        0x3 
 .rodata        0x000000000003a318       0x10 build/samus/RW/common/usb_port_power_smart.o
 .rodata.str1.1
                0x000000000003a328       0x57 build/samus/RW/common/usb_port_power_smart.o
 .rodata.str1.1
                0x000000000003a37f        0x4 build/samus/RW/common/util.o
                                          0xf (size before relaxing)
 *fill*         0x000000000003a383        0x1 
 .rodata        0x000000000003a384        0x8 build/samus/RW/common/vboot_hash.o
 .rodata.str1.1
                0x000000000003a38c       0xf1 build/samus/RW/common/vboot_hash.o
                                        0x103 (size before relaxing)
 .rodata.buildinfo
                0x000000000003a47d       0x42 build/samus/RW/common/version.o
                0x000000000003a47d                build_info
 *fill*         0x000000000003a4bf        0x1 
 .rodata        0x000000000003a4c0        0xc build/samus/RW/common/wireless.o
 .rodata.str1.1
                0x000000000003a4cc       0x4f build/samus/RW/common/wireless.o
 *fill*         0x000000000003a51b        0x1 
 .rodata        0x000000000003a51c       0xa8 build/samus/RW/core/cortex-m/panic.o
 .rodata.str1.1
                0x000000000003a5c4      0x2ae build/samus/RW/core/cortex-m/panic.o
                                        0x2c0 (size before relaxing)
 *fill*         0x000000000003a872        0x2 
 .rodata        0x000000000003a874      0x120 build/samus/RW/core/cortex-m/task.o
 .rodata.str1.1
                0x000000000003a994      0x275 build/samus/RW/core/cortex-m/task.o
 .rodata.str1.1
                0x000000000003ac09       0x45 build/samus/RW/core/cortex-m/watchdog.o
 *fill*         0x000000000003ac4e        0x2 
 .rodata        0x000000000003ac50       0xbc build/samus/RW/driver/accel_kionix.o
                0x000000000003ace0                kionix_accel_drv
 .rodata.str1.1
                0x000000000003ad0c       0x27 build/samus/RW/driver/accel_kionix.o
 *fill*         0x000000000003ad33        0x1 
 .rodata        0x000000000003ad34       0xd4 build/samus/RW/driver/accelgyro_lsm6ds0.o
                0x000000000003ad34                gyro_on_odr
                0x000000000003ad6c                gyro_off_odr
                0x000000000003ada4                dps_ranges
                0x000000000003addc                lsm6ds0_drv
 .rodata.str1.1
                0x000000000003ae08       0x64 build/samus/RW/driver/accelgyro_lsm6ds0.o
 .rodata        0x000000000003ae6c       0x24 build/samus/RW/driver/battery/samus.o
 .rodata.str1.1
                0x000000000003ae90       0x39 build/samus/RW/driver/battery/samus.o
                                         0x40 (size before relaxing)
 *fill*         0x000000000003aec9        0x3 
 .rodata        0x000000000003aecc        0xc build/samus/RW/driver/battery/smart.o
 .rodata.str1.1
                0x000000000003aed8       0xa3 build/samus/RW/driver/battery/smart.o
 *fill*         0x000000000003af7b        0x1 
 .rodata        0x000000000003af7c       0x18 build/samus/RW/driver/charger/bq24773.o
 .rodata.str1.1
                0x000000000003af94        0x8 build/samus/RW/driver/charger/bq24773.o
 .rodata        0x000000000003af9c        0x8 build/samus/RW/driver/temp_sensor/tmp006.o
 .rodata.str1.1
                0x000000000003afa4       0xe6 build/samus/RW/driver/temp_sensor/tmp006.o
 *fill*         0x000000000003b08a        0x2 
 .rodata        0x000000000003b08c       0x68 build/samus/RW/power/common.o
 .rodata.str1.1
                0x000000000003b0f4      0x1eb build/samus/RW/power/common.o
                                        0x21a (size before relaxing)
                0x000000000003b2e0                . = ALIGN (0x4)
 *fill*         0x000000000003b2df        0x1 
                0x000000000003b2e0                __ro_end = .
                0x000000000000000a                __deferred_funcs_count = ((__deferred_funcs_end - __deferred_funcs) / 0x4)
                0x0000000000000001                ASSERT ((__deferred_funcs_count <= 0xa), Increase DEFERRABLE_MAX_COUNT)

.rel.dyn        0x000000000003b2e0        0x0
 .rel.iplt      0x000000000003b2e0        0x0 build/samus/RW/board/samus/board.o

.bss            0x0000000020000000     0x6e70
                0x0000000020000000                . = ALIGN (0x200)
                0x0000000020000000                __bss_start = .
 *(.bss.big_align)
                0x0000000020000000                . = ALIGN (0x8)
 *(.bss.system_stack)
 .bss.system_stack
                0x0000000020000000     0x1000 build/samus/RW/core/cortex-m/init.o
                0x0000000020001000                stack_end
 *(.bss)
 .bss           0x0000000020001000       0x34 build/samus/RW/board/samus/board.o
                0x0000000020001004                g_saved_data
 .bss           0x0000000020001034       0x2c build/samus/RW/board/samus/extpower.o
 .bss           0x0000000020001060        0x4 build/samus/RW/board/samus/power_sequence.o
 .bss           0x0000000020001064       0x10 build/samus/RW/chip/lm4/adc.o
 *fill*         0x0000000020001074        0x4 
 .bss           0x0000000020001078       0x20 build/samus/RW/chip/lm4/clock.o
 .bss           0x0000000020001098        0x8 build/samus/RW/chip/lm4/flash.o
                0x0000000020001098                all_protected
                0x000000002000109c                stuck_locked
 .bss           0x00000000200010a0       0xd8 build/samus/RW/chip/lm4/i2c.o
 .bss           0x0000000020001178      0x150 build/samus/RW/chip/lm4/lpc.o
 .bss           0x00000000200012c8       0x14 build/samus/RW/chip/lm4/peci.o
 .bss           0x00000000200012dc       0x18 build/samus/RW/chip/lm4/system.o
 .bss           0x00000000200012f4        0x4 build/samus/RW/chip/lm4/uart.o
 .bss           0x00000000200012f8        0x4 build/samus/RW/chip/lm4/watchdog.o
 .bss           0x00000000200012fc        0xc build/samus/RW/common/acpi.o
 .bss           0x0000000020001308        0x1 build/samus/RW/common/battery.o
 *fill*         0x0000000020001309        0x7 
 .bss           0x0000000020001310       0xb0 build/samus/RW/common/charge_state_v2.o
 .bss           0x00000000200013c0      0x2e8 build/samus/RW/common/console.o
 .bss           0x00000000200016a8      0x408 build/samus/RW/common/console_output.o
 .bss           0x0000000020001ab0       0x10 build/samus/RW/common/fan.o
 .bss           0x0000000020001ac0      0x188 build/samus/RW/common/gesture.o
 .bss           0x0000000020001c48        0xc build/samus/RW/common/gpio.o
 *fill*         0x0000000020001c54        0x4 
 .bss           0x0000000020001c58       0x58 build/samus/RW/common/hooks.o
 .bss           0x0000000020001cb0       0x38 build/samus/RW/common/host_command.o
 .bss           0x0000000020001ce8      0x208 build/samus/RW/common/host_command_master.o
 .bss           0x0000000020001ef0        0x4 build/samus/RW/common/host_command_pd.o
 .bss           0x0000000020001ef4        0x8 build/samus/RW/common/host_event_commands.o
 .bss           0x0000000020001efc       0x38 build/samus/RW/common/i2c.o
 *fill*         0x0000000020001f34        0x4 
 .bss           0x0000000020001f38       0x80 build/samus/RW/common/keyboard_8042.o
 .bss           0x0000000020001fb8        0x8 build/samus/RW/common/keyboard_scan.o
 .bss           0x0000000020001fc0        0xc build/samus/RW/common/lb_common.o
 .bss           0x0000000020001fcc        0x8 build/samus/RW/common/lid_switch.o
 .bss           0x0000000020001fd4      0x27c build/samus/RW/common/lightbar.o
 .bss           0x0000000020002250        0x8 build/samus/RW/common/motion_lid.o
 .bss           0x0000000020002258       0x18 build/samus/RW/common/motion_sense.o
 .bss           0x0000000020002270        0x4 build/samus/RW/common/port80.o
 .bss           0x0000000020002274        0x8 build/samus/RW/common/power_button.o
 *fill*         0x000000002000227c        0x4 
 .bss           0x0000000020002280       0x10 build/samus/RW/common/power_button_x86.o
 .bss           0x0000000020002290        0x8 build/samus/RW/common/shared_mem.o
 .bss           0x0000000020002298        0x8 build/samus/RW/common/switch.o
 .bss           0x00000000200022a0       0x1c build/samus/RW/common/system.o
                0x00000000200022b0                sleep_mask
 .bss           0x00000000200022bc       0xf8 build/samus/RW/common/thermal.o
 .bss           0x00000000200023b4       0x10 build/samus/RW/common/throttle_ap.o
 *fill*         0x00000000200023c4        0x4 
 .bss           0x00000000200023c8       0x80 build/samus/RW/common/timer.o
 .bss           0x0000000020002448     0x20a4 build/samus/RW/common/uart_buffering.o
 .bss           0x00000000200044ec        0x4 build/samus/RW/common/usb_port_power_smart.o
 .bss           0x00000000200044f0       0xe0 build/samus/RW/common/vboot_hash.o
 .bss           0x00000000200045d0        0x4 build/samus/RW/core/cortex-m/panic.o
 *fill*         0x00000000200045d4        0x4 
 .bss           0x00000000200045d8     0x26e0 build/samus/RW/core/cortex-m/task.o
                0x0000000020004970                task_stacks
                0x0000000020006c70                scratchpad
 .bss           0x0000000020006cb8       0x14 build/samus/RW/driver/battery/samus.o
 .bss           0x0000000020006ccc      0x180 build/samus/RW/driver/temp_sensor/tmp006.o
 *fill*         0x0000000020006e4c        0x4 
 .bss           0x0000000020006e50       0x20 build/samus/RW/power/common.o

.bss.slow       0x0000000020006e70      0x3dc
 *(.bss.slow)
 .bss.slow      0x0000000020006e70       0x14 build/samus/RW/common/acpi.o
 *fill*         0x0000000020006e84        0x4 
 .bss.slow      0x0000000020006e88       0x80 build/samus/RW/common/charge_state_v2.o
 .bss.slow      0x0000000020006f08      0x100 build/samus/RW/common/host_command_master.o
 .bss.slow      0x0000000020007008      0x13c build/samus/RW/common/keyboard_scan.o
 .bss.slow      0x0000000020007144      0x108 build/samus/RW/common/port80.o
                0x000000002000724c                . = ALIGN (0x4)
                0x000000002000724c                __bss_end = .

.data           0x0000000020007250      0x434 load address 0x000000000003b2e0
                0x0000000020007250                . = ALIGN (0x4)
                0x0000000020007250                __data_start = .
 *(.data.tasks)
 *(.data)
 .data          0x0000000020007250      0x2c8 build/samus/RW/board/samus/board.o
                0x0000000020007250                motion_sensors
                0x00000000200073a0                g_kxcj9_data
                0x00000000200073bc                keyscan_config
                0x00000000200073dc                thermal_params
                0x0000000020007508                als
 .data          0x0000000020007518        0x4 build/samus/RW/board/samus/extpower.o
 .data          0x000000002000751c        0x4 build/samus/RW/chip/lm4/chip_temp_sensor.o
 .data          0x0000000020007520        0x8 build/samus/RW/chip/lm4/clock.o
 .data          0x0000000020007528       0x10 build/samus/RW/chip/lm4/system.o
 .data          0x0000000020007538        0x4 build/samus/RW/common/als.o
 .data          0x000000002000753c        0x8 build/samus/RW/common/charge_state_v2.o
 .data          0x0000000020007544        0x4 build/samus/RW/common/charger.o
 .data          0x0000000020007548       0x1c build/samus/RW/common/console_output.o
                0x0000000020007548                ucd_lb_queue
 *fill*         0x0000000020007564        0x4 
 .data          0x0000000020007568       0x10 build/samus/RW/common/hooks.o
 .data          0x0000000020007578        0x1 build/samus/RW/common/host_command.o
 *fill*         0x0000000020007579        0x3 
 .data          0x000000002000757c        0x8 build/samus/RW/common/host_command_pd.o
 .data          0x0000000020007584       0x24 build/samus/RW/common/keyboard_8042.o
 .data          0x00000000200075a8        0x1 build/samus/RW/common/keyboard_scan.o
 *fill*         0x00000000200075a9        0x3 
 .data          0x00000000200075ac        0x4 build/samus/RW/common/lb_common.o
 .data          0x00000000200075b0       0x70 build/samus/RW/common/lightbar.o
                0x00000000200075b0                blink_state
 .data          0x0000000020007620        0x8 build/samus/RW/common/motion_lid.o
                0x0000000020007620                accel_base
                0x0000000020007624                accel_lid
 .data          0x0000000020007628        0x4 build/samus/RW/common/motion_sense.o
                0x0000000020007628                motion_min_interval
 .data          0x000000002000762c        0x4 build/samus/RW/common/port80.o
 .data          0x0000000020007630        0x4 build/samus/RW/common/power_button.o
 .data          0x0000000020007634        0x4 build/samus/RW/common/timer.o
 .data          0x0000000020007638        0x4 build/samus/RW/common/wireless.o
 .data          0x000000002000763c        0x4 build/samus/RW/core/cortex-m/panic.o
 .data          0x0000000020007640        0x8 build/samus/RW/core/cortex-m/task.o
 .data          0x0000000020007648        0x8 build/samus/RW/driver/battery/samus.o
 .data          0x0000000020007650        0x4 build/samus/RW/driver/battery/smart.o
 .data          0x0000000020007654        0x4 build/samus/RW/power/common.o
                0x0000000020007660                . = ALIGN (0x20)
 *fill*         0x0000000020007658        0x8 
                0x0000000020007660                __iram_text_start = .
 *(.iram.text)
 .iram.text     0x0000000020007660        0xc build/samus/RW/chip/lm4/system.o
                0x0000000020007660                __enter_hibernate
                0x0000000020007680                . = ALIGN (0x20)
 *fill*         0x000000002000766c       0x14 
                0x0000000020007680                __iram_text_end = .
                0x0000000020007680                __data_end = .
                0x0000000020007680                __shared_mem_buf = .
                0x0000000020007680                . = ALIGN (0x4)
                0x0000000020007680        0x1 BYTE 0x45
                0x0000000020007681        0x1 BYTE 0x4e
                0x0000000020007682        0x1 BYTE 0x44
                0x0000000020007683        0x1 BYTE 0xea
                0x000000000001b714                __hey_flash_used = ((LOADADDR (.data) + SIZEOF (.data)) - 0x20000)
                0x0000000000000001                ASSERT ((0x20000 >= ((LOADADDR (.data) + SIZEOF (.data)) - 0x20000)), No room left in the flash)

.igot.plt       0x0000000020007684        0x0 load address 0x000000000003b714
 .igot.plt      0x0000000020007684        0x0 build/samus/RW/board/samus/board.o

/DISCARD/
 *(.google)
 *(.ARM.*)
OUTPUT(build/samus/RW/ec.RW.elf elf32-littlearm)

.debug_info     0x0000000000000000    0x4e836
 .debug_info    0x0000000000000000     0x14de build/samus/RW/board/samus/board.o
 .debug_info    0x00000000000014de     0x1398 build/samus/RW/board/samus/extpower.o
 .debug_info    0x0000000000002876      0xb77 build/samus/RW/board/samus/panel.o
 .debug_info    0x00000000000033ed     0x18d3 build/samus/RW/board/samus/power_sequence.o
 .debug_info    0x0000000000004cc0      0xb39 build/samus/RW/chip/lm4/adc.o
 .debug_info    0x00000000000057f9      0x258 build/samus/RW/chip/lm4/chip_temp_sensor.o
 .debug_info    0x0000000000005a51      0xf1d build/samus/RW/chip/lm4/clock.o
 .debug_info    0x000000000000696e      0x69b build/samus/RW/chip/lm4/fan.o
 .debug_info    0x0000000000007009      0x60d build/samus/RW/chip/lm4/flash.o
 .debug_info    0x0000000000007616      0xf21 build/samus/RW/chip/lm4/gpio.o
 .debug_info    0x0000000000008537      0x3c1 build/samus/RW/chip/lm4/hwtimer.o
 .debug_info    0x00000000000088f8     0x1322 build/samus/RW/chip/lm4/i2c.o
 .debug_info    0x0000000000009c1a      0x47c build/samus/RW/chip/lm4/jtag.o
 .debug_info    0x000000000000a096      0x2d7 build/samus/RW/chip/lm4/keyboard_raw.o
 .debug_info    0x000000000000a36d     0x1a7b build/samus/RW/chip/lm4/lpc.o
 .debug_info    0x000000000000bde8      0x7ad build/samus/RW/chip/lm4/peci.o
 .debug_info    0x000000000000c595      0x32c build/samus/RW/chip/lm4/pwm.o
 .debug_info    0x000000000000c8c1     0x1370 build/samus/RW/chip/lm4/system.o
 .debug_info    0x000000000000dc31      0xc5c build/samus/RW/chip/lm4/uart.o
 .debug_info    0x000000000000e88d      0x3e5 build/samus/RW/chip/lm4/watchdog.o
 .debug_info    0x000000000000ec72      0x779 build/samus/RW/common/acpi.o
 .debug_info    0x000000000000f3eb      0x5ff build/samus/RW/common/adc.o
 .debug_info    0x000000000000f9ea      0x710 build/samus/RW/common/als.o
 .debug_info    0x00000000000100fa     0x1586 build/samus/RW/common/battery.o
 .debug_info    0x0000000000011680     0x2958 build/samus/RW/common/charge_state_v2.o
 .debug_info    0x0000000000013fd8      0xc79 build/samus/RW/common/charger.o
 .debug_info    0x0000000000014c51      0x407 build/samus/RW/common/chipset.o
 .debug_info    0x0000000000015058     0x11f4 build/samus/RW/common/console.o
 .debug_info    0x000000000001624c      0xa59 build/samus/RW/common/console_output.o
 .debug_info    0x0000000000016ca5     0x1f2c build/samus/RW/common/fan.o
 .debug_info    0x0000000000018bd1     0x1734 build/samus/RW/common/flash.o
 .debug_info    0x000000000001a305      0xc8c build/samus/RW/common/gesture.o
 .debug_info    0x000000000001af91     0x117f build/samus/RW/common/gpio.o
 .debug_info    0x000000000001c110      0x8e1 build/samus/RW/common/hooks.o
 .debug_info    0x000000000001c9f1     0x16f0 build/samus/RW/common/host_command.o
 .debug_info    0x000000000001e0e1      0xbc1 build/samus/RW/common/host_command_master.o
 .debug_info    0x000000000001eca2      0x830 build/samus/RW/common/host_command_pd.o
 .debug_info    0x000000000001f4d2      0xfb6 build/samus/RW/common/host_event_commands.o
 .debug_info    0x0000000000020488     0x2646 build/samus/RW/common/i2c.o
 .debug_info    0x0000000000022ace     0x2ced build/samus/RW/common/keyboard_8042.o
 .debug_info    0x00000000000257bb      0x191 build/samus/RW/common/keyboard_8042_sharedlib.o
 .debug_info    0x000000000002594c     0x1b26 build/samus/RW/common/keyboard_scan.o
 .debug_info    0x0000000000027472     0x16f5 build/samus/RW/common/lb_common.o
 .debug_info    0x0000000000028b67      0xc66 build/samus/RW/common/lid_switch.o
 .debug_info    0x00000000000297cd     0x4f4e build/samus/RW/common/lightbar.o
 .debug_info    0x000000000002e71b      0x3e5 build/samus/RW/common/main.o
 .debug_info    0x000000000002eb00      0x526 build/samus/RW/common/math_util.o
 .debug_info    0x000000000002f026      0x7ce build/samus/RW/common/memory_commands.o
 .debug_info    0x000000000002f7f4     0x1048 build/samus/RW/common/motion_lid.o
 .debug_info    0x000000000003083c     0x2aaf build/samus/RW/common/motion_sense.o
 .debug_info    0x00000000000332eb      0xe6c build/samus/RW/common/panic_output.o
 .debug_info    0x0000000000034157      0x989 build/samus/RW/common/port80.o
 .debug_info    0x0000000000034ae0      0xcb9 build/samus/RW/common/power_button.o
 .debug_info    0x0000000000035799      0xea8 build/samus/RW/common/power_button_x86.o
 .debug_info    0x0000000000036641      0x696 build/samus/RW/common/printf.o
 .debug_info    0x0000000000036cd7      0x6cd build/samus/RW/common/pwm.o
 .debug_info    0x00000000000373a4      0xa58 build/samus/RW/common/pwm_kblight.o
 .debug_info    0x0000000000037dfc      0xbaf build/samus/RW/common/queue.o
 .debug_info    0x00000000000389ab      0x469 build/samus/RW/common/sha256.o
 .debug_info    0x0000000000038e14      0x4bf build/samus/RW/common/shared_mem.o
 .debug_info    0x00000000000392d3      0x867 build/samus/RW/common/switch.o
 .debug_info    0x0000000000039b3a     0x27ca build/samus/RW/common/system.o
 .debug_info    0x000000000003c304      0xaaa build/samus/RW/common/temp_sensor.o
 .debug_info    0x000000000003cdae     0x17c4 build/samus/RW/common/thermal.o
 .debug_info    0x000000000003e572      0x5d9 build/samus/RW/common/throttle_ap.o
 .debug_info    0x000000000003eb4b      0xf6a build/samus/RW/common/timer.o
 .debug_info    0x000000000003fab5      0x95e build/samus/RW/common/uart_buffering.o
 .debug_info    0x0000000000040413      0xed6 build/samus/RW/common/usb_port_power_smart.o
 .debug_info    0x00000000000412e9      0xbe3 build/samus/RW/common/util.o
 .debug_info    0x0000000000041ecc     0x103a build/samus/RW/common/vboot_hash.o
 .debug_info    0x0000000000042f06      0x152 build/samus/RW/common/version.o
 .debug_info    0x0000000000043058      0x9c1 build/samus/RW/common/wireless.o
 .debug_info    0x0000000000043a19       0xe9 build/samus/RW/core/cortex-m/cpu.o
 .debug_info    0x0000000000043b02       0x65 build/samus/RW/core/cortex-m/init.o
 .debug_info    0x0000000000043b67      0x6dc build/samus/RW/core/cortex-m/mpu.o
 .debug_info    0x0000000000044243      0xc4b build/samus/RW/core/cortex-m/panic.o
 .debug_info    0x0000000000044e8e       0x67 build/samus/RW/core/cortex-m/switch.o
 .debug_info    0x0000000000044ef5     0x1771 build/samus/RW/core/cortex-m/task.o
 .debug_info    0x0000000000046666       0x69 build/samus/RW/core/cortex-m/uldivmod.o
 .debug_info    0x00000000000466cf      0x1b0 build/samus/RW/core/cortex-m/watchdog.o
 .debug_info    0x000000000004687f     0x15e1 build/samus/RW/driver/accel_kionix.o
 .debug_info    0x0000000000047e60     0x14fd build/samus/RW/driver/accelgyro_lsm6ds0.o
 .debug_info    0x000000000004935d      0x24c build/samus/RW/driver/als_isl29035.o
 .debug_info    0x00000000000495a9      0xc9b build/samus/RW/driver/battery/samus.o
 .debug_info    0x000000000004a244     0x11f3 build/samus/RW/driver/battery/smart.o
 .debug_info    0x000000000004b437      0x9f8 build/samus/RW/driver/charger/bq24773.o
 .debug_info    0x000000000004be2f     0x1321 build/samus/RW/driver/temp_sensor/tmp006.o
 .debug_info    0x000000000004d150     0x16e6 build/samus/RW/power/common.o

.debug_abbrev   0x0000000000000000     0xf9d0
 .debug_abbrev  0x0000000000000000      0x250 build/samus/RW/board/samus/board.o
 .debug_abbrev  0x0000000000000250      0x3d2 build/samus/RW/board/samus/extpower.o
 .debug_abbrev  0x0000000000000622      0x222 build/samus/RW/board/samus/panel.o
 .debug_abbrev  0x0000000000000844      0x2e3 build/samus/RW/board/samus/power_sequence.o
 .debug_abbrev  0x0000000000000b27      0x314 build/samus/RW/chip/lm4/adc.o
 .debug_abbrev  0x0000000000000e3b      0x11a build/samus/RW/chip/lm4/chip_temp_sensor.o
 .debug_abbrev  0x0000000000000f55      0x3d0 build/samus/RW/chip/lm4/clock.o
 .debug_abbrev  0x0000000000001325      0x24b build/samus/RW/chip/lm4/fan.o
 .debug_abbrev  0x0000000000001570      0x280 build/samus/RW/chip/lm4/flash.o
 .debug_abbrev  0x00000000000017f0      0x32d build/samus/RW/chip/lm4/gpio.o
 .debug_abbrev  0x0000000000001b1d      0x238 build/samus/RW/chip/lm4/hwtimer.o
 .debug_abbrev  0x0000000000001d55      0x3a0 build/samus/RW/chip/lm4/i2c.o
 .debug_abbrev  0x00000000000020f5      0x195 build/samus/RW/chip/lm4/jtag.o
 .debug_abbrev  0x000000000000228a      0x1c5 build/samus/RW/chip/lm4/keyboard_raw.o
 .debug_abbrev  0x000000000000244f      0x4e8 build/samus/RW/chip/lm4/lpc.o
 .debug_abbrev  0x0000000000002937      0x235 build/samus/RW/chip/lm4/peci.o
 .debug_abbrev  0x0000000000002b6c      0x1c0 build/samus/RW/chip/lm4/pwm.o
 .debug_abbrev  0x0000000000002d2c      0x4a9 build/samus/RW/chip/lm4/system.o
 .debug_abbrev  0x00000000000031d5      0x364 build/samus/RW/chip/lm4/uart.o
 .debug_abbrev  0x0000000000003539      0x1df build/samus/RW/chip/lm4/watchdog.o
 .debug_abbrev  0x0000000000003718      0x252 build/samus/RW/common/acpi.o
 .debug_abbrev  0x000000000000396a      0x1ad build/samus/RW/common/adc.o
 .debug_abbrev  0x0000000000003b17      0x2a8 build/samus/RW/common/als.o
 .debug_abbrev  0x0000000000003dbf      0x396 build/samus/RW/common/battery.o
 .debug_abbrev  0x0000000000004155      0x576 build/samus/RW/common/charge_state_v2.o
 .debug_abbrev  0x00000000000046cb      0x2aa build/samus/RW/common/charger.o
 .debug_abbrev  0x0000000000004975      0x159 build/samus/RW/common/chipset.o
 .debug_abbrev  0x0000000000004ace      0x3a5 build/samus/RW/common/console.o
 .debug_abbrev  0x0000000000004e73      0x2cc build/samus/RW/common/console_output.o
 .debug_abbrev  0x000000000000513f      0x4a0 build/samus/RW/common/fan.o
 .debug_abbrev  0x00000000000055df      0x37c build/samus/RW/common/flash.o
 .debug_abbrev  0x000000000000595b      0x273 build/samus/RW/common/gesture.o
 .debug_abbrev  0x0000000000005bce      0x36d build/samus/RW/common/gpio.o
 .debug_abbrev  0x0000000000005f3b      0x255 build/samus/RW/common/hooks.o
 .debug_abbrev  0x0000000000006190      0x4fb build/samus/RW/common/host_command.o
 .debug_abbrev  0x000000000000668b      0x248 build/samus/RW/common/host_command_master.o
 .debug_abbrev  0x00000000000068d3      0x295 build/samus/RW/common/host_command_pd.o
 .debug_abbrev  0x0000000000006b68      0x31a build/samus/RW/common/host_event_commands.o
 .debug_abbrev  0x0000000000006e82      0x4e2 build/samus/RW/common/i2c.o
 .debug_abbrev  0x0000000000007364      0x4dc build/samus/RW/common/keyboard_8042.o
 .debug_abbrev  0x0000000000007840       0xa4 build/samus/RW/common/keyboard_8042_sharedlib.o
 .debug_abbrev  0x00000000000078e4      0x4dd build/samus/RW/common/keyboard_scan.o
 .debug_abbrev  0x0000000000007dc1      0x389 build/samus/RW/common/lb_common.o
 .debug_abbrev  0x000000000000814a      0x2af build/samus/RW/common/lid_switch.o
 .debug_abbrev  0x00000000000083f9      0x57d build/samus/RW/common/lightbar.o
 .debug_abbrev  0x0000000000008976      0x103 build/samus/RW/common/main.o
 .debug_abbrev  0x0000000000008a79      0x1ed build/samus/RW/common/math_util.o
 .debug_abbrev  0x0000000000008c66      0x22d build/samus/RW/common/memory_commands.o
 .debug_abbrev  0x0000000000008e93      0x2ef build/samus/RW/common/motion_lid.o
 .debug_abbrev  0x0000000000009182      0x535 build/samus/RW/common/motion_sense.o
 .debug_abbrev  0x00000000000096b7      0x371 build/samus/RW/common/panic_output.o
 .debug_abbrev  0x0000000000009a28      0x2a5 build/samus/RW/common/port80.o
 .debug_abbrev  0x0000000000009ccd      0x2f1 build/samus/RW/common/power_button.o
 .debug_abbrev  0x0000000000009fbe      0x35d build/samus/RW/common/power_button_x86.o
 .debug_abbrev  0x000000000000a31b      0x34c build/samus/RW/common/printf.o
 .debug_abbrev  0x000000000000a667      0x1db build/samus/RW/common/pwm.o
 .debug_abbrev  0x000000000000a842      0x28e build/samus/RW/common/pwm_kblight.o
 .debug_abbrev  0x000000000000aad0      0x207 build/samus/RW/common/queue.o
 .debug_abbrev  0x000000000000acd7      0x1a7 build/samus/RW/common/sha256.o
 .debug_abbrev  0x000000000000ae7e      0x1c6 build/samus/RW/common/shared_mem.o
 .debug_abbrev  0x000000000000b044      0x1cd build/samus/RW/common/switch.o
 .debug_abbrev  0x000000000000b211      0x5b0 build/samus/RW/common/system.o
 .debug_abbrev  0x000000000000b7c1      0x2a7 build/samus/RW/common/temp_sensor.o
 .debug_abbrev  0x000000000000ba68      0x438 build/samus/RW/common/thermal.o
 .debug_abbrev  0x000000000000bea0      0x195 build/samus/RW/common/throttle_ap.o
 .debug_abbrev  0x000000000000c035      0x3d7 build/samus/RW/common/timer.o
 .debug_abbrev  0x000000000000c40c      0x384 build/samus/RW/common/uart_buffering.o
 .debug_abbrev  0x000000000000c790      0x313 build/samus/RW/common/usb_port_power_smart.o
 .debug_abbrev  0x000000000000caa3      0x2bb build/samus/RW/common/util.o
 .debug_abbrev  0x000000000000cd5e      0x3d2 build/samus/RW/common/vboot_hash.o
 .debug_abbrev  0x000000000000d130       0xb9 build/samus/RW/common/version.o
 .debug_abbrev  0x000000000000d1e9      0x27c build/samus/RW/common/wireless.o
 .debug_abbrev  0x000000000000d465       0x65 build/samus/RW/core/cortex-m/cpu.o
 .debug_abbrev  0x000000000000d4ca       0x14 build/samus/RW/core/cortex-m/init.o
 .debug_abbrev  0x000000000000d4de      0x1db build/samus/RW/core/cortex-m/mpu.o
 .debug_abbrev  0x000000000000d6b9      0x33a build/samus/RW/core/cortex-m/panic.o
 .debug_abbrev  0x000000000000d9f3       0x14 build/samus/RW/core/cortex-m/switch.o
 .debug_abbrev  0x000000000000da07      0x53e build/samus/RW/core/cortex-m/task.o
 .debug_abbrev  0x000000000000df45       0x14 build/samus/RW/core/cortex-m/uldivmod.o
 .debug_abbrev  0x000000000000df59      0x103 build/samus/RW/core/cortex-m/watchdog.o
 .debug_abbrev  0x000000000000e05c      0x39c build/samus/RW/driver/accel_kionix.o
 .debug_abbrev  0x000000000000e3f8      0x3f0 build/samus/RW/driver/accelgyro_lsm6ds0.o
 .debug_abbrev  0x000000000000e7e8      0x104 build/samus/RW/driver/als_isl29035.o
 .debug_abbrev  0x000000000000e8ec      0x274 build/samus/RW/driver/battery/samus.o
 .debug_abbrev  0x000000000000eb60      0x39b build/samus/RW/driver/battery/smart.o
 .debug_abbrev  0x000000000000eefb      0x1e9 build/samus/RW/driver/charger/bq24773.o
 .debug_abbrev  0x000000000000f0e4      0x3eb build/samus/RW/driver/temp_sensor/tmp006.o
 .debug_abbrev  0x000000000000f4cf      0x501 build/samus/RW/power/common.o

.debug_loc      0x0000000000000000    0x1b784
 .debug_loc     0x0000000000000000       0x4d build/samus/RW/board/samus/board.o
 .debug_loc     0x000000000000004d      0x360 build/samus/RW/board/samus/extpower.o
 .debug_loc     0x00000000000003ad      0x195 build/samus/RW/board/samus/panel.o
 .debug_loc     0x0000000000000542      0x40d build/samus/RW/board/samus/power_sequence.o
 .debug_loc     0x000000000000094f      0x22a build/samus/RW/chip/lm4/adc.o
 .debug_loc     0x0000000000000b79       0x21 build/samus/RW/chip/lm4/chip_temp_sensor.o
 .debug_loc     0x0000000000000b9a      0x39a build/samus/RW/chip/lm4/clock.o
 .debug_loc     0x0000000000000f34      0x462 build/samus/RW/chip/lm4/fan.o
 .debug_loc     0x0000000000001396      0x3f3 build/samus/RW/chip/lm4/flash.o
 .debug_loc     0x0000000000001789      0x504 build/samus/RW/chip/lm4/gpio.o
 .debug_loc     0x0000000000001c8d       0xca build/samus/RW/chip/lm4/hwtimer.o
 .debug_loc     0x0000000000001d57      0x5b1 build/samus/RW/chip/lm4/i2c.o
 .debug_loc     0x0000000000002308       0x21 build/samus/RW/chip/lm4/jtag.o
 .debug_loc     0x0000000000002329       0x1e build/samus/RW/chip/lm4/keyboard_raw.o
 .debug_loc     0x0000000000002347      0x66b build/samus/RW/chip/lm4/lpc.o
 .debug_loc     0x00000000000029b2      0x252 build/samus/RW/chip/lm4/peci.o
 .debug_loc     0x0000000000002c04       0xdc build/samus/RW/chip/lm4/pwm.o
 .debug_loc     0x0000000000002ce0      0x77c build/samus/RW/chip/lm4/system.o
 .debug_loc     0x000000000000345c       0x8d build/samus/RW/chip/lm4/uart.o
 .debug_loc     0x00000000000034e9       0x13 build/samus/RW/chip/lm4/watchdog.o
 .debug_loc     0x00000000000034fc      0x599 build/samus/RW/common/acpi.o
 .debug_loc     0x0000000000003a95      0x19e build/samus/RW/common/adc.o
 .debug_loc     0x0000000000003c33       0xf6 build/samus/RW/common/als.o
 .debug_loc     0x0000000000003d29      0x419 build/samus/RW/common/battery.o
 .debug_loc     0x0000000000004142      0xb5d build/samus/RW/common/charge_state_v2.o
 .debug_loc     0x0000000000004c9f      0x254 build/samus/RW/common/charger.o
 .debug_loc     0x0000000000004ef3       0x84 build/samus/RW/common/chipset.o
 .debug_loc     0x0000000000004f77      0x79e build/samus/RW/common/console.o
 .debug_loc     0x0000000000005715      0x2e0 build/samus/RW/common/console_output.o
 .debug_loc     0x00000000000059f5      0xf21 build/samus/RW/common/fan.o
 .debug_loc     0x0000000000006916      0x925 build/samus/RW/common/flash.o
 .debug_loc     0x000000000000723b      0x359 build/samus/RW/common/gesture.o
 .debug_loc     0x0000000000007594      0x762 build/samus/RW/common/gpio.o
 .debug_loc     0x0000000000007cf6      0x21e build/samus/RW/common/hooks.o
 .debug_loc     0x0000000000007f14      0x908 build/samus/RW/common/host_command.o
 .debug_loc     0x000000000000881c      0x6d9 build/samus/RW/common/host_command_master.o
 .debug_loc     0x0000000000008ef5      0x18c build/samus/RW/common/host_command_pd.o
 .debug_loc     0x0000000000009081      0x3f3 build/samus/RW/common/host_event_commands.o
 .debug_loc     0x0000000000009474     0x132e build/samus/RW/common/i2c.o
 .debug_loc     0x000000000000a7a2     0x119b build/samus/RW/common/keyboard_8042.o
 .debug_loc     0x000000000000b93d      0x95a build/samus/RW/common/keyboard_scan.o
 .debug_loc     0x000000000000c297      0x622 build/samus/RW/common/lb_common.o
 .debug_loc     0x000000000000c8b9       0xe9 build/samus/RW/common/lid_switch.o
 .debug_loc     0x000000000000c9a2     0x1fe4 build/samus/RW/common/lightbar.o
 .debug_loc     0x000000000000e986      0x734 build/samus/RW/common/math_util.o
 .debug_loc     0x000000000000f0ba      0x3f2 build/samus/RW/common/memory_commands.o
 .debug_loc     0x000000000000f4ac      0x178 build/samus/RW/common/motion_lid.o
 .debug_loc     0x000000000000f624     0x1387 build/samus/RW/common/motion_sense.o
 .debug_loc     0x00000000000109ab      0x367 build/samus/RW/common/panic_output.o
 .debug_loc     0x0000000000010d12      0x3a2 build/samus/RW/common/port80.o
 .debug_loc     0x00000000000110b4      0x167 build/samus/RW/common/power_button.o
 .debug_loc     0x000000000001121b      0x1df build/samus/RW/common/power_button_x86.o
 .debug_loc     0x00000000000113fa      0x9a9 build/samus/RW/common/printf.o
 .debug_loc     0x0000000000011da3      0x155 build/samus/RW/common/pwm.o
 .debug_loc     0x0000000000011ef8      0x108 build/samus/RW/common/pwm_kblight.o
 .debug_loc     0x0000000000012000      0xadc build/samus/RW/common/queue.o
 .debug_loc     0x0000000000012adc      0x483 build/samus/RW/common/sha256.o
 .debug_loc     0x0000000000012f5f       0x9a build/samus/RW/common/shared_mem.o
 .debug_loc     0x0000000000012ff9       0xa8 build/samus/RW/common/switch.o
 .debug_loc     0x00000000000130a1      0xd90 build/samus/RW/common/system.o
 .debug_loc     0x0000000000013e31      0x348 build/samus/RW/common/temp_sensor.o
 .debug_loc     0x0000000000014179      0x980 build/samus/RW/common/thermal.o
 .debug_loc     0x0000000000014af9      0x140 build/samus/RW/common/throttle_ap.o
 .debug_loc     0x0000000000014c39      0x610 build/samus/RW/common/timer.o
 .debug_loc     0x0000000000015249      0x340 build/samus/RW/common/uart_buffering.o
 .debug_loc     0x0000000000015589      0x428 build/samus/RW/common/usb_port_power_smart.o
 .debug_loc     0x00000000000159b1      0xfcc build/samus/RW/common/util.o
 .debug_loc     0x000000000001697d      0x65a build/samus/RW/common/vboot_hash.o
 .debug_loc     0x0000000000016fd7       0x8f build/samus/RW/common/version.o
 .debug_loc     0x0000000000017066      0x1b8 build/samus/RW/common/wireless.o
 .debug_loc     0x000000000001721e      0x28b build/samus/RW/core/cortex-m/mpu.o
 .debug_loc     0x00000000000174a9      0x483 build/samus/RW/core/cortex-m/panic.o
 .debug_loc     0x000000000001792c      0xa68 build/samus/RW/core/cortex-m/task.o
 .debug_loc     0x0000000000018394       0x68 build/samus/RW/core/cortex-m/watchdog.o
 .debug_loc     0x00000000000183fc      0xb01 build/samus/RW/driver/accel_kionix.o
 .debug_loc     0x0000000000018efd      0xa02 build/samus/RW/driver/accelgyro_lsm6ds0.o
 .debug_loc     0x00000000000198ff       0xa3 build/samus/RW/driver/als_isl29035.o
 .debug_loc     0x00000000000199a2      0x214 build/samus/RW/driver/battery/samus.o
 .debug_loc     0x0000000000019bb6      0x9ce build/samus/RW/driver/battery/smart.o
 .debug_loc     0x000000000001a584      0x4be build/samus/RW/driver/charger/bq24773.o
 .debug_loc     0x000000000001aa42      0x627 build/samus/RW/driver/temp_sensor/tmp006.o
 .debug_loc     0x000000000001b069      0x71b build/samus/RW/power/common.o

.debug_aranges  0x0000000000000000     0x2570
 .debug_aranges
                0x0000000000000000       0x40 build/samus/RW/board/samus/board.o
 .debug_aranges
                0x0000000000000040       0x90 build/samus/RW/board/samus/extpower.o
 .debug_aranges
                0x00000000000000d0       0x58 build/samus/RW/board/samus/panel.o
 .debug_aranges
                0x0000000000000128       0x58 build/samus/RW/board/samus/power_sequence.o
 .debug_aranges
                0x0000000000000180       0x78 build/samus/RW/chip/lm4/adc.o
 .debug_aranges
                0x00000000000001f8       0x28 build/samus/RW/chip/lm4/chip_temp_sensor.o
 .debug_aranges
                0x0000000000000220       0x70 build/samus/RW/chip/lm4/clock.o
 .debug_aranges
                0x0000000000000290       0x80 build/samus/RW/chip/lm4/fan.o
 .debug_aranges
                0x0000000000000310       0x60 build/samus/RW/chip/lm4/flash.o
 .debug_aranges
                0x0000000000000370      0x140 build/samus/RW/chip/lm4/gpio.o
 .debug_aranges
                0x00000000000004b0       0x60 build/samus/RW/chip/lm4/hwtimer.o
 .debug_aranges
                0x0000000000000510       0xd0 build/samus/RW/chip/lm4/i2c.o
 .debug_aranges
                0x00000000000005e0       0x28 build/samus/RW/chip/lm4/jtag.o
 .debug_aranges
                0x0000000000000608       0x50 build/samus/RW/chip/lm4/keyboard_raw.o
 .debug_aranges
                0x0000000000000658      0x100 build/samus/RW/chip/lm4/lpc.o
 .debug_aranges
                0x0000000000000758       0x48 build/samus/RW/chip/lm4/peci.o
 .debug_aranges
                0x00000000000007a0       0x40 build/samus/RW/chip/lm4/pwm.o
 .debug_aranges
                0x00000000000007e0       0xf8 build/samus/RW/chip/lm4/system.o
 .debug_aranges
                0x00000000000008d8       0xc8 build/samus/RW/chip/lm4/uart.o
 .debug_aranges
                0x00000000000009a0       0x38 build/samus/RW/chip/lm4/watchdog.o
 .debug_aranges
                0x00000000000009d8       0x28 build/samus/RW/common/acpi.o
 .debug_aranges
                0x0000000000000a00       0x20 build/samus/RW/common/adc.o
 .debug_aranges
                0x0000000000000a20       0x40 build/samus/RW/common/als.o
 .debug_aranges
                0x0000000000000a60       0x68 build/samus/RW/common/battery.o
 .debug_aranges
                0x0000000000000ac8       0xb8 build/samus/RW/common/charge_state_v2.o
 .debug_aranges
                0x0000000000000b80       0x68 build/samus/RW/common/charger.o
 .debug_aranges
                0x0000000000000be8       0x28 build/samus/RW/common/chipset.o
 .debug_aranges
                0x0000000000000c10       0x58 build/samus/RW/common/console.o
 .debug_aranges
                0x0000000000000c68       0x60 build/samus/RW/common/console_output.o
 .debug_aranges
                0x0000000000000cc8       0xb0 build/samus/RW/common/fan.o
 .debug_aranges
                0x0000000000000d78       0xa0 build/samus/RW/common/flash.o
 .debug_aranges
                0x0000000000000e18       0x38 build/samus/RW/common/gesture.o
 .debug_aranges
                0x0000000000000e50       0x68 build/samus/RW/common/gpio.o
 .debug_aranges
                0x0000000000000eb8       0x30 build/samus/RW/common/hooks.o
 .debug_aranges
                0x0000000000000ee8       0xa0 build/samus/RW/common/host_command.o
 .debug_aranges
                0x0000000000000f88       0x28 build/samus/RW/common/host_command_master.o
 .debug_aranges
                0x0000000000000fb0       0x40 build/samus/RW/common/host_command_pd.o
 .debug_aranges
                0x0000000000000ff0       0x98 build/samus/RW/common/host_event_commands.o
 .debug_aranges
                0x0000000000001088       0xc8 build/samus/RW/common/i2c.o
 .debug_aranges
                0x0000000000001150       0xc0 build/samus/RW/common/keyboard_8042.o
 .debug_aranges
                0x0000000000001210       0x18 build/samus/RW/common/keyboard_8042_sharedlib.o
 .debug_aranges
                0x0000000000001228       0x90 build/samus/RW/common/keyboard_scan.o
 .debug_aranges
                0x00000000000012b8       0x70 build/samus/RW/common/lb_common.o
 .debug_aranges
                0x0000000000001328       0x60 build/samus/RW/common/lid_switch.o
 .debug_aranges
                0x0000000000001388      0x1b0 build/samus/RW/common/lightbar.o
 .debug_aranges
                0x0000000000001538       0x20 build/samus/RW/common/main.o
 .debug_aranges
                0x0000000000001558       0x48 build/samus/RW/common/math_util.o
 .debug_aranges
                0x00000000000015a0       0x28 build/samus/RW/common/memory_commands.o
 .debug_aranges
                0x00000000000015c8       0x30 build/samus/RW/common/motion_lid.o
 .debug_aranges
                0x00000000000015f8       0xb8 build/samus/RW/common/motion_sense.o
 .debug_aranges
                0x00000000000016b0       0x70 build/samus/RW/common/panic_output.o
 .debug_aranges
                0x0000000000001720       0x38 build/samus/RW/common/port80.o
 .debug_aranges
                0x0000000000001758       0x50 build/samus/RW/common/power_button.o
 .debug_aranges
                0x00000000000017a8       0x60 build/samus/RW/common/power_button_x86.o
 .debug_aranges
                0x0000000000001808       0x30 build/samus/RW/common/printf.o
 .debug_aranges
                0x0000000000001838       0x30 build/samus/RW/common/pwm.o
 .debug_aranges
                0x0000000000001868       0x58 build/samus/RW/common/pwm_kblight.o
 .debug_aranges
                0x00000000000018c0       0xb0 build/samus/RW/common/queue.o
 .debug_aranges
                0x0000000000001970       0x38 build/samus/RW/common/sha256.o
 .debug_aranges
                0x00000000000019a8       0x38 build/samus/RW/common/shared_mem.o
 .debug_aranges
                0x00000000000019e0       0x38 build/samus/RW/common/switch.o
 .debug_aranges
                0x0000000000001a18      0x138 build/samus/RW/common/system.o
 .debug_aranges
                0x0000000000001b50       0x40 build/samus/RW/common/temp_sensor.o
 .debug_aranges
                0x0000000000001b90       0x68 build/samus/RW/common/thermal.o
 .debug_aranges
                0x0000000000001bf8       0x28 build/samus/RW/common/throttle_ap.o
 .debug_aranges
                0x0000000000001c20       0x90 build/samus/RW/common/timer.o
 .debug_aranges
                0x0000000000001cb0       0x80 build/samus/RW/common/uart_buffering.o
 .debug_aranges
                0x0000000000001d30       0x68 build/samus/RW/common/usb_port_power_smart.o
 .debug_aranges
                0x0000000000001d98       0xd8 build/samus/RW/common/util.o
 .debug_aranges
                0x0000000000001e70       0x60 build/samus/RW/common/vboot_hash.o
 .debug_aranges
                0x0000000000001ed0       0x20 build/samus/RW/common/version.o
 .debug_aranges
                0x0000000000001ef0       0x40 build/samus/RW/common/wireless.o
 .debug_aranges
                0x0000000000001f30       0x20 build/samus/RW/core/cortex-m/cpu.o
 .debug_aranges
                0x0000000000001f50       0x20 build/samus/RW/core/cortex-m/init.o
 .debug_aranges
                0x0000000000001f70       0x58 build/samus/RW/core/cortex-m/mpu.o
 .debug_aranges
                0x0000000000001fc8       0x68 build/samus/RW/core/cortex-m/panic.o
 .debug_aranges
                0x0000000000002030       0x20 build/samus/RW/core/cortex-m/switch.o
 .debug_aranges
                0x0000000000002050       0xf8 build/samus/RW/core/cortex-m/task.o
 .debug_aranges
                0x0000000000002148       0x20 build/samus/RW/core/cortex-m/uldivmod.o
 .debug_aranges
                0x0000000000002168       0x20 build/samus/RW/core/cortex-m/watchdog.o
 .debug_aranges
                0x0000000000002188       0x80 build/samus/RW/driver/accel_kionix.o
 .debug_aranges
                0x0000000000002208       0x70 build/samus/RW/driver/accelgyro_lsm6ds0.o
 .debug_aranges
                0x0000000000002278       0x28 build/samus/RW/driver/als_isl29035.o
 .debug_aranges
                0x00000000000022a0       0x50 build/samus/RW/driver/battery/samus.o
 .debug_aranges
                0x00000000000022f0       0xe8 build/samus/RW/driver/battery/smart.o
 .debug_aranges
                0x00000000000023d8       0x90 build/samus/RW/driver/charger/bq24773.o
 .debug_aranges
                0x0000000000002468       0x50 build/samus/RW/driver/temp_sensor/tmp006.o
 .debug_aranges
                0x00000000000024b8       0xb8 build/samus/RW/power/common.o

.debug_ranges   0x0000000000000000     0x3870
 .debug_ranges  0x0000000000000000       0x30 build/samus/RW/board/samus/board.o
 .debug_ranges  0x0000000000000030       0xd0 build/samus/RW/board/samus/extpower.o
 .debug_ranges  0x0000000000000100       0x48 build/samus/RW/board/samus/panel.o
 .debug_ranges  0x0000000000000148       0x60 build/samus/RW/board/samus/power_sequence.o
 .debug_ranges  0x00000000000001a8       0xd8 build/samus/RW/chip/lm4/adc.o
 .debug_ranges  0x0000000000000280       0x18 build/samus/RW/chip/lm4/chip_temp_sensor.o
 .debug_ranges  0x0000000000000298       0x78 build/samus/RW/chip/lm4/clock.o
 .debug_ranges  0x0000000000000310       0xa0 build/samus/RW/chip/lm4/fan.o
 .debug_ranges  0x00000000000003b0       0x70 build/samus/RW/chip/lm4/flash.o
 .debug_ranges  0x0000000000000420      0x1d8 build/samus/RW/chip/lm4/gpio.o
 .debug_ranges  0x00000000000005f8       0x50 build/samus/RW/chip/lm4/hwtimer.o
 .debug_ranges  0x0000000000000648      0x108 build/samus/RW/chip/lm4/i2c.o
 .debug_ranges  0x0000000000000750       0x18 build/samus/RW/chip/lm4/jtag.o
 .debug_ranges  0x0000000000000768       0x58 build/samus/RW/chip/lm4/keyboard_raw.o
 .debug_ranges  0x00000000000007c0      0x1c8 build/samus/RW/chip/lm4/lpc.o
 .debug_ranges  0x0000000000000988       0x38 build/samus/RW/chip/lm4/peci.o
 .debug_ranges  0x00000000000009c0       0x30 build/samus/RW/chip/lm4/pwm.o
 .debug_ranges  0x00000000000009f0      0x168 build/samus/RW/chip/lm4/system.o
 .debug_ranges  0x0000000000000b58       0xe8 build/samus/RW/chip/lm4/uart.o
 .debug_ranges  0x0000000000000c40       0x28 build/samus/RW/chip/lm4/watchdog.o
 .debug_ranges  0x0000000000000c68       0x18 build/samus/RW/common/acpi.o
 .debug_ranges  0x0000000000000c80       0x28 build/samus/RW/common/adc.o
 .debug_ranges  0x0000000000000ca8       0x48 build/samus/RW/common/als.o
 .debug_ranges  0x0000000000000cf0       0x88 build/samus/RW/common/battery.o
 .debug_ranges  0x0000000000000d78      0x160 build/samus/RW/common/charge_state_v2.o
 .debug_ranges  0x0000000000000ed8       0x58 build/samus/RW/common/charger.o
 .debug_ranges  0x0000000000000f30       0x18 build/samus/RW/common/chipset.o
 .debug_ranges  0x0000000000000f48      0x140 build/samus/RW/common/console.o
 .debug_ranges  0x0000000000001088       0x50 build/samus/RW/common/console_output.o
 .debug_ranges  0x00000000000010d8      0x1d0 build/samus/RW/common/fan.o
 .debug_ranges  0x00000000000012a8      0x138 build/samus/RW/common/flash.o
 .debug_ranges  0x00000000000013e0       0x28 build/samus/RW/common/gesture.o
 .debug_ranges  0x0000000000001408       0x70 build/samus/RW/common/gpio.o
 .debug_ranges  0x0000000000001478       0x38 build/samus/RW/common/hooks.o
 .debug_ranges  0x00000000000014b0      0x108 build/samus/RW/common/host_command.o
 .debug_ranges  0x00000000000015b8       0x30 build/samus/RW/common/host_command_master.o
 .debug_ranges  0x00000000000015e8       0x68 build/samus/RW/common/host_command_pd.o
 .debug_ranges  0x0000000000001650       0x88 build/samus/RW/common/host_event_commands.o
 .debug_ranges  0x00000000000016d8      0x178 build/samus/RW/common/i2c.o
 .debug_ranges  0x0000000000001850      0x238 build/samus/RW/common/keyboard_8042.o
 .debug_ranges  0x0000000000001a88      0x138 build/samus/RW/common/keyboard_scan.o
 .debug_ranges  0x0000000000001bc0       0xf0 build/samus/RW/common/lb_common.o
 .debug_ranges  0x0000000000001cb0       0x80 build/samus/RW/common/lid_switch.o
 .debug_ranges  0x0000000000001d30      0x440 build/samus/RW/common/lightbar.o
 .debug_ranges  0x0000000000002170       0x10 build/samus/RW/common/main.o
 .debug_ranges  0x0000000000002180       0x50 build/samus/RW/common/math_util.o
 .debug_ranges  0x00000000000021d0       0x18 build/samus/RW/common/memory_commands.o
 .debug_ranges  0x00000000000021e8       0x20 build/samus/RW/common/motion_lid.o
 .debug_ranges  0x0000000000002208      0x128 build/samus/RW/common/motion_sense.o
 .debug_ranges  0x0000000000002330       0x60 build/samus/RW/common/panic_output.o
 .debug_ranges  0x0000000000002390       0x48 build/samus/RW/common/port80.o
 .debug_ranges  0x00000000000023d8       0xc0 build/samus/RW/common/power_button.o
 .debug_ranges  0x0000000000002498       0xf8 build/samus/RW/common/power_button_x86.o
 .debug_ranges  0x0000000000002590       0x58 build/samus/RW/common/printf.o
 .debug_ranges  0x00000000000025e8       0x38 build/samus/RW/common/pwm.o
 .debug_ranges  0x0000000000002620       0x48 build/samus/RW/common/pwm_kblight.o
 .debug_ranges  0x0000000000002668      0x140 build/samus/RW/common/queue.o
 .debug_ranges  0x00000000000027a8       0x28 build/samus/RW/common/sha256.o
 .debug_ranges  0x00000000000027d0       0x28 build/samus/RW/common/shared_mem.o
 .debug_ranges  0x00000000000027f8       0x28 build/samus/RW/common/switch.o
 .debug_ranges  0x0000000000002820      0x1c0 build/samus/RW/common/system.o
 .debug_ranges  0x00000000000029e0       0x30 build/samus/RW/common/temp_sensor.o
 .debug_ranges  0x0000000000002a10       0x90 build/samus/RW/common/thermal.o
 .debug_ranges  0x0000000000002aa0       0x18 build/samus/RW/common/throttle_ap.o
 .debug_ranges  0x0000000000002ab8       0xb0 build/samus/RW/common/timer.o
 .debug_ranges  0x0000000000002b68       0x88 build/samus/RW/common/uart_buffering.o
 .debug_ranges  0x0000000000002bf0       0xa0 build/samus/RW/common/usb_port_power_smart.o
 .debug_ranges  0x0000000000002c90       0xc8 build/samus/RW/common/util.o
 .debug_ranges  0x0000000000002d58       0xc8 build/samus/RW/common/vboot_hash.o
 .debug_ranges  0x0000000000002e20       0x10 build/samus/RW/common/version.o
 .debug_ranges  0x0000000000002e30       0x30 build/samus/RW/common/wireless.o
 .debug_ranges  0x0000000000002e60       0x10 build/samus/RW/core/cortex-m/cpu.o
 .debug_ranges  0x0000000000002e70       0x60 build/samus/RW/core/cortex-m/mpu.o
 .debug_ranges  0x0000000000002ed0       0xe0 build/samus/RW/core/cortex-m/panic.o
 .debug_ranges  0x0000000000002fb0      0x1e0 build/samus/RW/core/cortex-m/task.o
 .debug_ranges  0x0000000000003190       0x10 build/samus/RW/core/cortex-m/watchdog.o
 .debug_ranges  0x00000000000031a0      0x100 build/samus/RW/driver/accel_kionix.o
 .debug_ranges  0x00000000000032a0      0x188 build/samus/RW/driver/accelgyro_lsm6ds0.o
 .debug_ranges  0x0000000000003428       0x18 build/samus/RW/driver/als_isl29035.o
 .debug_ranges  0x0000000000003440       0x40 build/samus/RW/driver/battery/samus.o
 .debug_ranges  0x0000000000003480      0x138 build/samus/RW/driver/battery/smart.o
 .debug_ranges  0x00000000000035b8      0x120 build/samus/RW/driver/charger/bq24773.o
 .debug_ranges  0x00000000000036d8       0x58 build/samus/RW/driver/temp_sensor/tmp006.o
 .debug_ranges  0x0000000000003730      0x140 build/samus/RW/power/common.o

.debug_line     0x0000000000000000    0x111e3
 .debug_line    0x0000000000000000      0x2ff build/samus/RW/board/samus/board.o
 .debug_line    0x00000000000002ff      0x3c1 build/samus/RW/board/samus/extpower.o
 .debug_line    0x00000000000006c0      0x25c build/samus/RW/board/samus/panel.o
 .debug_line    0x000000000000091c      0x3ea build/samus/RW/board/samus/power_sequence.o
 .debug_line    0x0000000000000d06      0x30b build/samus/RW/chip/lm4/adc.o
 .debug_line    0x0000000000001011       0x9f build/samus/RW/chip/lm4/chip_temp_sensor.o
 .debug_line    0x00000000000010b0      0x34a build/samus/RW/chip/lm4/clock.o
 .debug_line    0x00000000000013fa      0x29f build/samus/RW/chip/lm4/fan.o
 .debug_line    0x0000000000001699      0x295 build/samus/RW/chip/lm4/flash.o
 .debug_line    0x000000000000192e      0x4f3 build/samus/RW/chip/lm4/gpio.o
 .debug_line    0x0000000000001e21      0x1e6 build/samus/RW/chip/lm4/hwtimer.o
 .debug_line    0x0000000000002007      0x4d5 build/samus/RW/chip/lm4/i2c.o
 .debug_line    0x00000000000024dc      0x192 build/samus/RW/chip/lm4/jtag.o
 .debug_line    0x000000000000266e      0x1d0 build/samus/RW/chip/lm4/keyboard_raw.o
 .debug_line    0x000000000000283e      0x5d5 build/samus/RW/chip/lm4/lpc.o
 .debug_line    0x0000000000002e13      0x1f2 build/samus/RW/chip/lm4/peci.o
 .debug_line    0x0000000000003005      0x18c build/samus/RW/chip/lm4/pwm.o
 .debug_line    0x0000000000003191      0x4fa build/samus/RW/chip/lm4/system.o
 .debug_line    0x000000000000368b      0x391 build/samus/RW/chip/lm4/uart.o
 .debug_line    0x0000000000003a1c      0x18e build/samus/RW/chip/lm4/watchdog.o
 .debug_line    0x0000000000003baa      0x201 build/samus/RW/common/acpi.o
 .debug_line    0x0000000000003dab      0x17d build/samus/RW/common/adc.o
 .debug_line    0x0000000000003f28      0x20d build/samus/RW/common/als.o
 .debug_line    0x0000000000004135      0x3af build/samus/RW/common/battery.o
 .debug_line    0x00000000000044e4      0x763 build/samus/RW/common/charge_state_v2.o
 .debug_line    0x0000000000004c47      0x274 build/samus/RW/common/charger.o
 .debug_line    0x0000000000004ebb       0xab build/samus/RW/common/chipset.o
 .debug_line    0x0000000000004f66      0x423 build/samus/RW/common/console.o
 .debug_line    0x0000000000005389      0x2b1 build/samus/RW/common/console_output.o
 .debug_line    0x000000000000563a      0x4dd build/samus/RW/common/fan.o
 .debug_line    0x0000000000005b17      0x482 build/samus/RW/common/flash.o
 .debug_line    0x0000000000005f99      0x2b8 build/samus/RW/common/gesture.o
 .debug_line    0x0000000000006251      0x313 build/samus/RW/common/gpio.o
 .debug_line    0x0000000000006564      0x230 build/samus/RW/common/hooks.o
 .debug_line    0x0000000000006794      0x4c3 build/samus/RW/common/host_command.o
 .debug_line    0x0000000000006c57      0x244 build/samus/RW/common/host_command_master.o
 .debug_line    0x0000000000006e9b      0x222 build/samus/RW/common/host_command_pd.o
 .debug_line    0x00000000000070bd      0x334 build/samus/RW/common/host_event_commands.o
 .debug_line    0x00000000000073f1      0x603 build/samus/RW/common/i2c.o
 .debug_line    0x00000000000079f4      0x7b8 build/samus/RW/common/keyboard_8042.o
 .debug_line    0x00000000000081ac      0x12e build/samus/RW/common/keyboard_8042_sharedlib.o
 .debug_line    0x00000000000082da      0x5b1 build/samus/RW/common/keyboard_scan.o
 .debug_line    0x000000000000888b      0x2ec build/samus/RW/common/lb_common.o
 .debug_line    0x0000000000008b77      0x25c build/samus/RW/common/lid_switch.o
 .debug_line    0x0000000000008dd3      0xc56 build/samus/RW/common/lightbar.o
 .debug_line    0x0000000000009a29      0x1f6 build/samus/RW/common/main.o
 .debug_line    0x0000000000009c1f      0x271 build/samus/RW/common/math_util.o
 .debug_line    0x0000000000009e90      0x1f1 build/samus/RW/common/memory_commands.o
 .debug_line    0x000000000000a081      0x22b build/samus/RW/common/motion_lid.o
 .debug_line    0x000000000000a2ac      0x6ec build/samus/RW/common/motion_sense.o
 .debug_line    0x000000000000a998      0x2f7 build/samus/RW/common/panic_output.o
 .debug_line    0x000000000000ac8f      0x243 build/samus/RW/common/port80.o
 .debug_line    0x000000000000aed2      0x2b9 build/samus/RW/common/power_button.o
 .debug_line    0x000000000000b18b      0x3a7 build/samus/RW/common/power_button_x86.o
 .debug_line    0x000000000000b532      0x2fa build/samus/RW/common/printf.o
 .debug_line    0x000000000000b82c      0x108 build/samus/RW/common/pwm.o
 .debug_line    0x000000000000b934      0x248 build/samus/RW/common/pwm_kblight.o
 .debug_line    0x000000000000bb7c      0x33b build/samus/RW/common/queue.o
 .debug_line    0x000000000000beb7      0x205 build/samus/RW/common/sha256.o
 .debug_line    0x000000000000c0bc      0x1a6 build/samus/RW/common/shared_mem.o
 .debug_line    0x000000000000c262      0x1fb build/samus/RW/common/switch.o
 .debug_line    0x000000000000c45d      0x864 build/samus/RW/common/system.o
 .debug_line    0x000000000000ccc1      0x251 build/samus/RW/common/temp_sensor.o
 .debug_line    0x000000000000cf12      0x46b build/samus/RW/common/thermal.o
 .debug_line    0x000000000000d37d      0x1ae build/samus/RW/common/throttle_ap.o
 .debug_line    0x000000000000d52b      0x3b4 build/samus/RW/common/timer.o
 .debug_line    0x000000000000d8df      0x33f build/samus/RW/common/uart_buffering.o
 .debug_line    0x000000000000dc1e      0x2c0 build/samus/RW/common/usb_port_power_smart.o
 .debug_line    0x000000000000dede      0x47c build/samus/RW/common/util.o
 .debug_line    0x000000000000e35a      0x30a build/samus/RW/common/vboot_hash.o
 .debug_line    0x000000000000e664      0x139 build/samus/RW/common/version.o
 .debug_line    0x000000000000e79d      0x210 build/samus/RW/common/wireless.o
 .debug_line    0x000000000000e9ad      0x10a build/samus/RW/core/cortex-m/cpu.o
 .debug_line    0x000000000000eab7       0x7b build/samus/RW/core/cortex-m/init.o
 .debug_line    0x000000000000eb32      0x1e8 build/samus/RW/core/cortex-m/mpu.o
 .debug_line    0x000000000000ed1a      0x35f build/samus/RW/core/cortex-m/panic.o
 .debug_line    0x000000000000f079       0x6a build/samus/RW/core/cortex-m/switch.o
 .debug_line    0x000000000000f0e3      0x572 build/samus/RW/core/cortex-m/task.o
 .debug_line    0x000000000000f655       0x94 build/samus/RW/core/cortex-m/uldivmod.o
 .debug_line    0x000000000000f6e9      0x14c build/samus/RW/core/cortex-m/watchdog.o
 .debug_line    0x000000000000f835      0x3ed build/samus/RW/driver/accel_kionix.o
 .debug_line    0x000000000000fc22      0x406 build/samus/RW/driver/accelgyro_lsm6ds0.o
 .debug_line    0x0000000000010028       0x7e build/samus/RW/driver/als_isl29035.o
 .debug_line    0x00000000000100a6      0x2a8 build/samus/RW/driver/battery/samus.o
 .debug_line    0x000000000001034e      0x3c9 build/samus/RW/driver/battery/smart.o
 .debug_line    0x0000000000010717      0x2e0 build/samus/RW/driver/charger/bq24773.o
 .debug_line    0x00000000000109f7      0x346 build/samus/RW/driver/temp_sensor/tmp006.o
 .debug_line    0x0000000000010d3d      0x4a6 build/samus/RW/power/common.o

.debug_str      0x0000000000000000     0xed35
 .debug_str     0x0000000000000000     0x1c1a build/samus/RW/board/samus/board.o
                                       0x1d6d (size before relaxing)
 .debug_str     0x0000000000001c1a      0xbbf build/samus/RW/board/samus/extpower.o
                                       0x1939 (size before relaxing)
 .debug_str     0x00000000000027d9      0x2fa build/samus/RW/board/samus/panel.o
                                       0x1132 (size before relaxing)
 .debug_str     0x0000000000002ad3      0x3ed build/samus/RW/board/samus/power_sequence.o
                                       0x105e (size before relaxing)
 .debug_str     0x0000000000002ec0      0x2fe build/samus/RW/chip/lm4/adc.o
                                        0xa5d (size before relaxing)
 .debug_str     0x00000000000031be       0x70 build/samus/RW/chip/lm4/chip_temp_sensor.o
                                        0x5bb (size before relaxing)
 .debug_str     0x000000000000322e      0x2aa build/samus/RW/chip/lm4/clock.o
                                       0x105f (size before relaxing)
 .debug_str     0x00000000000034d8      0x169 build/samus/RW/chip/lm4/fan.o
                                        0x5f7 (size before relaxing)
 .debug_str     0x0000000000003641      0x1b7 build/samus/RW/chip/lm4/flash.o
                                        0x6f3 (size before relaxing)
 .debug_str     0x00000000000037f8      0x32e build/samus/RW/chip/lm4/gpio.o
                                        0xf47 (size before relaxing)
 .debug_str     0x0000000000003b26       0xff build/samus/RW/chip/lm4/hwtimer.o
                                        0x5d5 (size before relaxing)
 .debug_str     0x0000000000003c25      0x27d build/samus/RW/chip/lm4/i2c.o
                                       0x137d (size before relaxing)
 .debug_str     0x0000000000003ea2       0x2d build/samus/RW/chip/lm4/jtag.o
                                        0x9a7 (size before relaxing)
 .debug_str     0x0000000000003ecf       0xfe build/samus/RW/chip/lm4/keyboard_raw.o
                                        0x47f (size before relaxing)
 .debug_str     0x0000000000003fcd      0x6b2 build/samus/RW/chip/lm4/lpc.o
                                       0x1d52 (size before relaxing)
 .debug_str     0x000000000000467f      0x109 build/samus/RW/chip/lm4/peci.o
                                        0xbe0 (size before relaxing)
 .debug_str     0x0000000000004788       0x5e build/samus/RW/chip/lm4/pwm.o
                                        0x45a (size before relaxing)
 .debug_str     0x00000000000047e6      0x40c build/samus/RW/chip/lm4/system.o
                                        0xec0 (size before relaxing)
 .debug_str     0x0000000000004bf2      0x17d build/samus/RW/chip/lm4/uart.o
                                        0xeff (size before relaxing)
 .debug_str     0x0000000000004d6f       0xc1 build/samus/RW/chip/lm4/watchdog.o
                                        0x743 (size before relaxing)
 .debug_str     0x0000000000004e30      0x18b build/samus/RW/common/acpi.o
                                        0x745 (size before relaxing)
 .debug_str     0x0000000000004fbb       0x54 build/samus/RW/common/adc.o
                                        0x6fd (size before relaxing)
 .debug_str     0x000000000000500f       0xbe build/samus/RW/common/als.o
                                        0xad6 (size before relaxing)
 .debug_str     0x00000000000050cd      0x3e3 build/samus/RW/common/battery.o
                                        0xf20 (size before relaxing)
 .debug_str     0x00000000000054b0      0xcaf build/samus/RW/common/charge_state_v2.o
                                       0x20f0 (size before relaxing)
 .debug_str     0x000000000000615f      0x148 build/samus/RW/common/charger.o
                                        0xaff (size before relaxing)
 .debug_str     0x00000000000062a7       0x96 build/samus/RW/common/chipset.o
                                        0x628 (size before relaxing)
 .debug_str     0x000000000000633d      0x31b build/samus/RW/common/console.o
                                        0xb3a (size before relaxing)
 .debug_str     0x0000000000006658      0x1bd build/samus/RW/common/console_output.o
                                        0x7c6 (size before relaxing)
 .debug_str     0x0000000000006815      0x461 build/samus/RW/common/fan.o
                                       0x18de (size before relaxing)
 .debug_str     0x0000000000006c76      0x4a2 build/samus/RW/common/flash.o
                                       0x13e3 (size before relaxing)
 .debug_str     0x0000000000007118      0x26c build/samus/RW/common/gesture.o
                                        0xd54 (size before relaxing)
 .debug_str     0x0000000000007384      0x1fa build/samus/RW/common/gpio.o
                                       0x12f1 (size before relaxing)
 .debug_str     0x000000000000757e      0x396 build/samus/RW/common/hooks.o
                                        0xc88 (size before relaxing)
 .debug_str     0x0000000000007914      0x6f0 build/samus/RW/common/host_command.o
                                       0x152b (size before relaxing)
 .debug_str     0x0000000000008004      0x100 build/samus/RW/common/host_command_master.o
                                        0x9da (size before relaxing)
 .debug_str     0x0000000000008104      0x239 build/samus/RW/common/host_command_pd.o
                                        0x936 (size before relaxing)
 .debug_str     0x000000000000833d      0x3a0 build/samus/RW/common/host_event_commands.o
                                       0x1063 (size before relaxing)
 .debug_str     0x00000000000086dd      0x2e2 build/samus/RW/common/i2c.o
                                       0x15dd (size before relaxing)
 .debug_str     0x00000000000089bf      0x8b1 build/samus/RW/common/keyboard_8042.o
                                       0x19a8 (size before relaxing)
 .debug_str     0x0000000000009270       0x36 build/samus/RW/common/keyboard_8042_sharedlib.o
                                        0x3dc (size before relaxing)
 .debug_str     0x00000000000092a6      0x4a5 build/samus/RW/common/keyboard_scan.o
                                       0x1671 (size before relaxing)
 .debug_str     0x000000000000974b      0x4e4 build/samus/RW/common/lb_common.o
                                        0xbba (size before relaxing)
 .debug_str     0x0000000000009c2f      0x178 build/samus/RW/common/lid_switch.o
                                       0x14f2 (size before relaxing)
 .debug_str     0x0000000000009da7      0xc66 build/samus/RW/common/lightbar.o
                                       0x21ff (size before relaxing)
 .debug_str     0x000000000000aa0d       0xa5 build/samus/RW/common/main.o
                                        0x4f0 (size before relaxing)
 .debug_str     0x000000000000aab2       0xba build/samus/RW/common/math_util.o
                                        0x305 (size before relaxing)
 .debug_str     0x000000000000ab6c       0xc1 build/samus/RW/common/memory_commands.o
                                        0x6ba (size before relaxing)
 .debug_str     0x000000000000ac2d      0x468 build/samus/RW/common/motion_lid.o
                                        0xe9e (size before relaxing)
 .debug_str     0x000000000000b095      0x58b build/samus/RW/common/motion_sense.o
                                       0x1b76 (size before relaxing)
 .debug_str     0x000000000000b620      0x1b0 build/samus/RW/common/panic_output.o
                                        0xea6 (size before relaxing)
 .debug_str     0x000000000000b7d0      0x14c build/samus/RW/common/port80.o
                                        0xa92 (size before relaxing)
 .debug_str     0x000000000000b91c      0x15b build/samus/RW/common/power_button.o
                                       0x13e2 (size before relaxing)
 .debug_str     0x000000000000ba77      0x2a8 build/samus/RW/common/power_button_x86.o
                                       0x11cd (size before relaxing)
 .debug_str     0x000000000000bd1f       0x81 build/samus/RW/common/printf.o
                                        0x50d (size before relaxing)
 .debug_str     0x000000000000bda0       0x6f build/samus/RW/common/pwm.o
                                        0x9b0 (size before relaxing)
 .debug_str     0x000000000000be0f      0x245 build/samus/RW/common/pwm_kblight.o
                                        0xd28 (size before relaxing)
 .debug_str     0x000000000000c054       0xe7 build/samus/RW/common/queue.o
                                        0x446 (size before relaxing)
 .debug_str     0x000000000000c13b       0xcd build/samus/RW/common/sha256.o
                                        0x30c (size before relaxing)
 .debug_str     0x000000000000c208       0x9c build/samus/RW/common/shared_mem.o
                                        0x76b (size before relaxing)
 .debug_str     0x000000000000c2a4      0x103 build/samus/RW/common/switch.o
                                        0xe75 (size before relaxing)
 .debug_str     0x000000000000c3a7      0x774 build/samus/RW/common/system.o
                                       0x1d51 (size before relaxing)
 .debug_str     0x000000000000cb1b      0x154 build/samus/RW/common/temp_sensor.o
                                        0xe16 (size before relaxing)
 .debug_str     0x000000000000cc6f      0x3d4 build/samus/RW/common/thermal.o
                                       0x1457 (size before relaxing)
 .debug_str     0x000000000000d043       0x87 build/samus/RW/common/throttle_ap.o
                                        0x80e (size before relaxing)
 .debug_str     0x000000000000d0ca      0x1bb build/samus/RW/common/timer.o
                                        0xba5 (size before relaxing)
 .debug_str     0x000000000000d285      0x1f5 build/samus/RW/common/uart_buffering.o
                                        0xa3b (size before relaxing)
 .debug_str     0x000000000000d47a      0x2ac build/samus/RW/common/usb_port_power_smart.o
                                       0x1272 (size before relaxing)
 .debug_str     0x000000000000d726       0x9f build/samus/RW/common/util.o
                                        0x5a4 (size before relaxing)
 .debug_str     0x000000000000d7c5      0x26b build/samus/RW/common/vboot_hash.o
                                        0xdda (size before relaxing)
 .debug_str     0x000000000000da30       0x2f build/samus/RW/common/version.o
                                        0x287 (size before relaxing)
 .debug_str     0x000000000000da5f      0x121 build/samus/RW/common/wireless.o
                                        0xf1e (size before relaxing)
 .debug_str     0x000000000000db80      0x109 build/samus/RW/core/cortex-m/cpu.o
                                        0x31d (size before relaxing)
 .debug_str     0x000000000000dc89       0xb7 build/samus/RW/core/cortex-m/mpu.o
                                        0x544 (size before relaxing)
 .debug_str     0x000000000000dd40      0x190 build/samus/RW/core/cortex-m/panic.o
                                        0x722 (size before relaxing)
 .debug_str     0x000000000000ded0      0x2b6 build/samus/RW/core/cortex-m/task.o
                                        0xce5 (size before relaxing)
 .debug_str     0x000000000000e186       0x3a build/samus/RW/core/cortex-m/watchdog.o
                                        0x2bf (size before relaxing)
 .debug_str     0x000000000000e1c0      0x10b build/samus/RW/driver/accel_kionix.o
                                        0xcce (size before relaxing)
 .debug_str     0x000000000000e2cb      0x16b build/samus/RW/driver/accelgyro_lsm6ds0.o
                                        0xcf1 (size before relaxing)
 .debug_str     0x000000000000e436       0x36 build/samus/RW/driver/als_isl29035.o
                                        0x407 (size before relaxing)
 .debug_str     0x000000000000e46c      0x119 build/samus/RW/driver/battery/samus.o
                                        0xe82 (size before relaxing)
 .debug_str     0x000000000000e585      0x128 build/samus/RW/driver/battery/smart.o
                                        0xc31 (size before relaxing)
 .debug_str     0x000000000000e6ad       0x4d build/samus/RW/driver/charger/bq24773.o
                                        0x69d (size before relaxing)
 .debug_str     0x000000000000e6fa      0x2d4 build/samus/RW/driver/temp_sensor/tmp006.o
                                       0x126a (size before relaxing)
 .debug_str     0x000000000000e9ce      0x367 build/samus/RW/power/common.o
                                       0x177f (size before relaxing)

.comment        0x0000000000000000       0x4a
 .comment       0x0000000000000000       0x4a build/samus/RW/board/samus/board.o
                                         0x4b (size before relaxing)
 .comment       0x000000000000004a       0x4b build/samus/RW/board/samus/extpower.o
 .comment       0x000000000000004a       0x4b build/samus/RW/board/samus/panel.o
 .comment       0x000000000000004a       0x4b build/samus/RW/board/samus/power_sequence.o
 .comment       0x000000000000004a       0x4b build/samus/RW/chip/lm4/adc.o
 .comment       0x000000000000004a       0x4b build/samus/RW/chip/lm4/chip_temp_sensor.o
 .comment       0x000000000000004a       0x4b build/samus/RW/chip/lm4/clock.o
 .comment       0x000000000000004a       0x4b build/samus/RW/chip/lm4/fan.o
 .comment       0x000000000000004a       0x4b build/samus/RW/chip/lm4/flash.o
 .comment       0x000000000000004a       0x4b build/samus/RW/chip/lm4/gpio.o
 .comment       0x000000000000004a       0x4b build/samus/RW/chip/lm4/hwtimer.o
 .comment       0x000000000000004a       0x4b build/samus/RW/chip/lm4/i2c.o
 .comment       0x000000000000004a       0x4b build/samus/RW/chip/lm4/jtag.o
 .comment       0x000000000000004a       0x4b build/samus/RW/chip/lm4/keyboard_raw.o
 .comment       0x000000000000004a       0x4b build/samus/RW/chip/lm4/lpc.o
 .comment       0x000000000000004a       0x4b build/samus/RW/chip/lm4/peci.o
 .comment       0x000000000000004a       0x4b build/samus/RW/chip/lm4/pwm.o
 .comment       0x000000000000004a       0x4b build/samus/RW/chip/lm4/system.o
 .comment       0x000000000000004a       0x4b build/samus/RW/chip/lm4/uart.o
 .comment       0x000000000000004a       0x4b build/samus/RW/chip/lm4/watchdog.o
 .comment       0x000000000000004a       0x4b build/samus/RW/common/acpi.o
 .comment       0x000000000000004a       0x4b build/samus/RW/common/adc.o
 .comment       0x000000000000004a       0x4b build/samus/RW/common/als.o
 .comment       0x000000000000004a       0x4b build/samus/RW/common/battery.o
 .comment       0x000000000000004a       0x4b build/samus/RW/common/charge_state_v2.o
 .comment       0x000000000000004a       0x4b build/samus/RW/common/charger.o
 .comment       0x000000000000004a       0x4b build/samus/RW/common/chipset.o
 .comment       0x000000000000004a       0x4b build/samus/RW/common/console.o
 .comment       0x000000000000004a       0x4b build/samus/RW/common/console_output.o
 .comment       0x000000000000004a       0x4b build/samus/RW/common/fan.o
 .comment       0x000000000000004a       0x4b build/samus/RW/common/flash.o
 .comment       0x000000000000004a       0x4b build/samus/RW/common/gesture.o
 .comment       0x000000000000004a       0x4b build/samus/RW/common/gpio.o
 .comment       0x000000000000004a       0x4b build/samus/RW/common/hooks.o
 .comment       0x000000000000004a       0x4b build/samus/RW/common/host_command.o
 .comment       0x000000000000004a       0x4b build/samus/RW/common/host_command_master.o
 .comment       0x000000000000004a       0x4b build/samus/RW/common/host_command_pd.o
 .comment       0x000000000000004a       0x4b build/samus/RW/common/host_event_commands.o
 .comment       0x000000000000004a       0x4b build/samus/RW/common/i2c.o
 .comment       0x000000000000004a       0x4b build/samus/RW/common/keyboard_8042.o
 .comment       0x000000000000004a       0x4b build/samus/RW/common/keyboard_8042_sharedlib.o
 .comment       0x000000000000004a       0x4b build/samus/RW/common/keyboard_scan.o
 .comment       0x000000000000004a       0x4b build/samus/RW/common/lb_common.o
 .comment       0x000000000000004a       0x4b build/samus/RW/common/lid_switch.o
 .comment       0x000000000000004a       0x4b build/samus/RW/common/lightbar.o
 .comment       0x000000000000004a       0x4b build/samus/RW/common/main.o
 .comment       0x000000000000004a       0x4b build/samus/RW/common/math_util.o
 .comment       0x000000000000004a       0x4b build/samus/RW/common/memory_commands.o
 .comment       0x000000000000004a       0x4b build/samus/RW/common/motion_lid.o
 .comment       0x000000000000004a       0x4b build/samus/RW/common/motion_sense.o
 .comment       0x000000000000004a       0x4b build/samus/RW/common/panic_output.o
 .comment       0x000000000000004a       0x4b build/samus/RW/common/port80.o
 .comment       0x000000000000004a       0x4b build/samus/RW/common/power_button.o
 .comment       0x000000000000004a       0x4b build/samus/RW/common/power_button_x86.o
 .comment       0x000000000000004a       0x4b build/samus/RW/common/printf.o
 .comment       0x000000000000004a       0x4b build/samus/RW/common/pwm.o
 .comment       0x000000000000004a       0x4b build/samus/RW/common/pwm_kblight.o
 .comment       0x000000000000004a       0x4b build/samus/RW/common/queue.o
 .comment       0x000000000000004a       0x4b build/samus/RW/common/sha256.o
 .comment       0x000000000000004a       0x4b build/samus/RW/common/shared_mem.o
 .comment       0x000000000000004a       0x4b build/samus/RW/common/switch.o
 .comment       0x000000000000004a       0x4b build/samus/RW/common/system.o
 .comment       0x000000000000004a       0x4b build/samus/RW/common/temp_sensor.o
 .comment       0x000000000000004a       0x4b build/samus/RW/common/thermal.o
 .comment       0x000000000000004a       0x4b build/samus/RW/common/throttle_ap.o
 .comment       0x000000000000004a       0x4b build/samus/RW/common/timer.o
 .comment       0x000000000000004a       0x4b build/samus/RW/common/uart_buffering.o
 .comment       0x000000000000004a       0x4b build/samus/RW/common/usb_port_power_smart.o
 .comment       0x000000000000004a       0x4b build/samus/RW/common/util.o
 .comment       0x000000000000004a       0x4b build/samus/RW/common/vboot_hash.o
 .comment       0x000000000000004a       0x4b build/samus/RW/common/version.o
 .comment       0x000000000000004a       0x4b build/samus/RW/common/wireless.o
 .comment       0x000000000000004a       0x4b build/samus/RW/core/cortex-m/cpu.o
 .comment       0x000000000000004a       0x4b build/samus/RW/core/cortex-m/mpu.o
 .comment       0x000000000000004a       0x4b build/samus/RW/core/cortex-m/panic.o
 .comment       0x000000000000004a       0x4b build/samus/RW/core/cortex-m/task.o
 .comment       0x000000000000004a       0x4b build/samus/RW/core/cortex-m/watchdog.o
 .comment       0x000000000000004a       0x4b build/samus/RW/driver/accel_kionix.o
 .comment       0x000000000000004a       0x4b build/samus/RW/driver/accelgyro_lsm6ds0.o
 .comment       0x000000000000004a       0x4b build/samus/RW/driver/als_isl29035.o
 .comment       0x000000000000004a       0x4b build/samus/RW/driver/battery/samus.o
 .comment       0x000000000000004a       0x4b build/samus/RW/driver/battery/smart.o
 .comment       0x000000000000004a       0x4b build/samus/RW/driver/charger/bq24773.o
 .comment       0x000000000000004a       0x4b build/samus/RW/driver/temp_sensor/tmp006.o
 .comment       0x000000000000004a       0x4b build/samus/RW/power/common.o

.debug_frame    0x0000000000000000     0x64a0
 .debug_frame   0x0000000000000000       0x74 build/samus/RW/board/samus/board.o
 .debug_frame   0x0000000000000074      0x1a8 build/samus/RW/board/samus/extpower.o
 .debug_frame   0x000000000000021c       0xdc build/samus/RW/board/samus/panel.o
 .debug_frame   0x00000000000002f8      0x100 build/samus/RW/board/samus/power_sequence.o
 .debug_frame   0x00000000000003f8      0x10c build/samus/RW/chip/lm4/adc.o
 .debug_frame   0x0000000000000504       0x38 build/samus/RW/chip/lm4/chip_temp_sensor.o
 .debug_frame   0x000000000000053c      0x128 build/samus/RW/chip/lm4/clock.o
 .debug_frame   0x0000000000000664      0x110 build/samus/RW/chip/lm4/fan.o
 .debug_frame   0x0000000000000774       0xf0 build/samus/RW/chip/lm4/flash.o
 .debug_frame   0x0000000000000864      0x2b4 build/samus/RW/chip/lm4/gpio.o
 .debug_frame   0x0000000000000b18       0xb4 build/samus/RW/chip/lm4/hwtimer.o
 .debug_frame   0x0000000000000bcc      0x214 build/samus/RW/chip/lm4/i2c.o
 .debug_frame   0x0000000000000de0       0x3c build/samus/RW/chip/lm4/jtag.o
 .debug_frame   0x0000000000000e1c       0x8c build/samus/RW/chip/lm4/keyboard_raw.o
 .debug_frame   0x0000000000000ea8      0x2a8 build/samus/RW/chip/lm4/lpc.o
 .debug_frame   0x0000000000001150       0xa4 build/samus/RW/chip/lm4/peci.o
 .debug_frame   0x00000000000011f4       0x80 build/samus/RW/chip/lm4/pwm.o
 .debug_frame   0x0000000000001274      0x288 build/samus/RW/chip/lm4/system.o
 .debug_frame   0x00000000000014fc      0x1e0 build/samus/RW/chip/lm4/uart.o
 .debug_frame   0x00000000000016dc       0x6c build/samus/RW/chip/lm4/watchdog.o
 .debug_frame   0x0000000000001748       0x48 build/samus/RW/common/acpi.o
 .debug_frame   0x0000000000001790       0x2c build/samus/RW/common/adc.o
 .debug_frame   0x00000000000017bc       0x94 build/samus/RW/common/als.o
 .debug_frame   0x0000000000001850      0x118 build/samus/RW/common/battery.o
 .debug_frame   0x0000000000001968      0x20c build/samus/RW/common/charge_state_v2.o
 .debug_frame   0x0000000000001b74       0xec build/samus/RW/common/charger.o
 .debug_frame   0x0000000000001c60       0x40 build/samus/RW/common/chipset.o
 .debug_frame   0x0000000000001ca0      0x108 build/samus/RW/common/console.o
 .debug_frame   0x0000000000001da8      0x114 build/samus/RW/common/console_output.o
 .debug_frame   0x0000000000001ebc      0x2a0 build/samus/RW/common/fan.o
 .debug_frame   0x000000000000215c      0x1f8 build/samus/RW/common/flash.o
 .debug_frame   0x0000000000002354       0x7c build/samus/RW/common/gesture.o
 .debug_frame   0x00000000000023d0      0x110 build/samus/RW/common/gpio.o
 .debug_frame   0x00000000000024e0       0x7c build/samus/RW/common/hooks.o
 .debug_frame   0x000000000000255c      0x1f4 build/samus/RW/common/host_command.o
 .debug_frame   0x0000000000002750       0x68 build/samus/RW/common/host_command_master.o
 .debug_frame   0x00000000000027b8       0x78 build/samus/RW/common/host_command_pd.o
 .debug_frame   0x0000000000002830      0x1b0 build/samus/RW/common/host_event_commands.o
 .debug_frame   0x00000000000029e0      0x2e8 build/samus/RW/common/i2c.o
 .debug_frame   0x0000000000002cc8      0x27c build/samus/RW/common/keyboard_8042.o
 .debug_frame   0x0000000000002f44      0x1d8 build/samus/RW/common/keyboard_scan.o
 .debug_frame   0x000000000000311c      0x174 build/samus/RW/common/lb_common.o
 .debug_frame   0x0000000000003290      0x108 build/samus/RW/common/lid_switch.o
 .debug_frame   0x0000000000003398      0x58c build/samus/RW/common/lightbar.o
 .debug_frame   0x0000000000003924       0x30 build/samus/RW/common/main.o
 .debug_frame   0x0000000000003954       0xa4 build/samus/RW/common/math_util.o
 .debug_frame   0x00000000000039f8       0x5c build/samus/RW/common/memory_commands.o
 .debug_frame   0x0000000000003a54       0x78 build/samus/RW/common/motion_lid.o
 .debug_frame   0x0000000000003acc      0x28c build/samus/RW/common/motion_sense.o
 .debug_frame   0x0000000000003d58      0x150 build/samus/RW/common/panic_output.o
 .debug_frame   0x0000000000003ea8       0x7c build/samus/RW/common/port80.o
 .debug_frame   0x0000000000003f24       0xdc build/samus/RW/common/power_button.o
 .debug_frame   0x0000000000004000      0x150 build/samus/RW/common/power_button_x86.o
 .debug_frame   0x0000000000004150       0x78 build/samus/RW/common/printf.o
 .debug_frame   0x00000000000041c8       0x60 build/samus/RW/common/pwm.o
 .debug_frame   0x0000000000004228       0xcc build/samus/RW/common/pwm_kblight.o
 .debug_frame   0x00000000000042f4      0x234 build/samus/RW/common/queue.o
 .debug_frame   0x0000000000004528       0x90 build/samus/RW/common/sha256.o
 .debug_frame   0x00000000000045b8       0x6c build/samus/RW/common/shared_mem.o
 .debug_frame   0x0000000000004624       0x80 build/samus/RW/common/switch.o
 .debug_frame   0x00000000000046a4      0x390 build/samus/RW/common/system.o
 .debug_frame   0x0000000000004a34       0x9c build/samus/RW/common/temp_sensor.o
 .debug_frame   0x0000000000004ad0      0x144 build/samus/RW/common/thermal.o
 .debug_frame   0x0000000000004c14       0x50 build/samus/RW/common/throttle_ap.o
 .debug_frame   0x0000000000004c64      0x1c8 build/samus/RW/common/timer.o
 .debug_frame   0x0000000000004e2c      0x178 build/samus/RW/common/uart_buffering.o
 .debug_frame   0x0000000000004fa4      0x118 build/samus/RW/common/usb_port_power_smart.o
 .debug_frame   0x00000000000050bc      0x24c build/samus/RW/common/util.o
 .debug_frame   0x0000000000005308      0x12c build/samus/RW/common/vboot_hash.o
 .debug_frame   0x0000000000005434       0x28 build/samus/RW/common/version.o
 .debug_frame   0x000000000000545c       0xa0 build/samus/RW/common/wireless.o
 .debug_frame   0x00000000000054fc       0x20 build/samus/RW/core/cortex-m/cpu.o
 .debug_frame   0x000000000000551c       0xc0 build/samus/RW/core/cortex-m/mpu.o
 .debug_frame   0x00000000000055dc      0x120 build/samus/RW/core/cortex-m/panic.o
 .debug_frame   0x00000000000056fc      0x2c0 build/samus/RW/core/cortex-m/task.o
 .debug_frame   0x00000000000059bc       0x2c build/samus/RW/core/cortex-m/watchdog.o
 .debug_frame   0x00000000000059e8      0x17c build/samus/RW/driver/accel_kionix.o
 .debug_frame   0x0000000000005b64      0x124 build/samus/RW/driver/accelgyro_lsm6ds0.o
 .debug_frame   0x0000000000005c88       0x3c build/samus/RW/driver/als_isl29035.o
 .debug_frame   0x0000000000005cc4       0xbc build/samus/RW/driver/battery/samus.o
 .debug_frame   0x0000000000005d80      0x294 build/samus/RW/driver/battery/smart.o
 .debug_frame   0x0000000000006014      0x16c build/samus/RW/driver/charger/bq24773.o
 .debug_frame   0x0000000000006180       0xe0 build/samus/RW/driver/temp_sensor/tmp006.o
 .debug_frame   0x0000000000006260      0x240 build/samus/RW/power/common.o
