
Discarded input sections

 .text          0x0000000000000000        0x0 build/samus/RO/board/samus/board.o
 .ARM.attributes
                0x0000000000000000       0x37 build/samus/RO/board/samus/board.o
 .text          0x0000000000000000        0x0 build/samus/RO/board/samus/extpower.o
 .ARM.attributes
                0x0000000000000000       0x37 build/samus/RO/board/samus/extpower.o
 .text          0x0000000000000000        0x0 build/samus/RO/board/samus/panel.o
 .data          0x0000000000000000        0x0 build/samus/RO/board/samus/panel.o
 .bss           0x0000000000000000        0x0 build/samus/RO/board/samus/panel.o
 .ARM.attributes
                0x0000000000000000       0x37 build/samus/RO/board/samus/panel.o
 .text          0x0000000000000000        0x0 build/samus/RO/board/samus/power_sequence.o
 .data          0x0000000000000000        0x0 build/samus/RO/board/samus/power_sequence.o
 .ARM.attributes
                0x0000000000000000       0x37 build/samus/RO/board/samus/power_sequence.o
 .text          0x0000000000000000        0x0 build/samus/RO/chip/lm4/adc.o
 .data          0x0000000000000000        0x0 build/samus/RO/chip/lm4/adc.o
 .ARM.attributes
                0x0000000000000000       0x37 build/samus/RO/chip/lm4/adc.o
 .text          0x0000000000000000        0x0 build/samus/RO/chip/lm4/chip_temp_sensor.o
 .bss           0x0000000000000000        0x0 build/samus/RO/chip/lm4/chip_temp_sensor.o
 .ARM.attributes
                0x0000000000000000       0x37 build/samus/RO/chip/lm4/chip_temp_sensor.o
 .text          0x0000000000000000        0x0 build/samus/RO/chip/lm4/clock.o
 .ARM.attributes
                0x0000000000000000       0x37 build/samus/RO/chip/lm4/clock.o
 .text          0x0000000000000000        0x0 build/samus/RO/chip/lm4/fan.o
 .data          0x0000000000000000        0x0 build/samus/RO/chip/lm4/fan.o
 .bss           0x0000000000000000        0x0 build/samus/RO/chip/lm4/fan.o
 .ARM.attributes
                0x0000000000000000       0x37 build/samus/RO/chip/lm4/fan.o
 .text          0x0000000000000000        0x0 build/samus/RO/chip/lm4/flash.o
 .data          0x0000000000000000        0x0 build/samus/RO/chip/lm4/flash.o
 .ARM.attributes
                0x0000000000000000       0x37 build/samus/RO/chip/lm4/flash.o
 .text          0x0000000000000000        0x0 build/samus/RO/chip/lm4/gpio.o
 .data          0x0000000000000000        0x0 build/samus/RO/chip/lm4/gpio.o
 .bss           0x0000000000000000        0x0 build/samus/RO/chip/lm4/gpio.o
 .ARM.attributes
                0x0000000000000000       0x37 build/samus/RO/chip/lm4/gpio.o
 .text          0x0000000000000000        0x0 build/samus/RO/chip/lm4/hwtimer.o
 .data          0x0000000000000000        0x0 build/samus/RO/chip/lm4/hwtimer.o
 .bss           0x0000000000000000        0x0 build/samus/RO/chip/lm4/hwtimer.o
 .ARM.attributes
                0x0000000000000000       0x37 build/samus/RO/chip/lm4/hwtimer.o
 .text          0x0000000000000000        0x0 build/samus/RO/chip/lm4/i2c.o
 .data          0x0000000000000000        0x0 build/samus/RO/chip/lm4/i2c.o
 .text.i2c_is_busy
                0x0000000000000000       0x10 build/samus/RO/chip/lm4/i2c.o
 .ARM.attributes
                0x0000000000000000       0x37 build/samus/RO/chip/lm4/i2c.o
 .text          0x0000000000000000        0x0 build/samus/RO/chip/lm4/jtag.o
 .data          0x0000000000000000        0x0 build/samus/RO/chip/lm4/jtag.o
 .bss           0x0000000000000000        0x0 build/samus/RO/chip/lm4/jtag.o
 .ARM.attributes
                0x0000000000000000       0x37 build/samus/RO/chip/lm4/jtag.o
 .text          0x0000000000000000        0x0 build/samus/RO/chip/lm4/keyboard_raw.o
 .data          0x0000000000000000        0x0 build/samus/RO/chip/lm4/keyboard_raw.o
 .bss           0x0000000000000000        0x0 build/samus/RO/chip/lm4/keyboard_raw.o
 .ARM.attributes
                0x0000000000000000       0x37 build/samus/RO/chip/lm4/keyboard_raw.o
 .text          0x0000000000000000        0x0 build/samus/RO/chip/lm4/lpc.o
 .data          0x0000000000000000        0x0 build/samus/RO/chip/lm4/lpc.o
 .text.lpc_enable_acpi_interrupts
                0x0000000000000000       0x10 build/samus/RO/chip/lm4/lpc.o
 .text.lpc_disable_acpi_interrupts
                0x0000000000000000       0x10 build/samus/RO/chip/lm4/lpc.o
 .ARM.attributes
                0x0000000000000000       0x37 build/samus/RO/chip/lm4/lpc.o
 .text          0x0000000000000000        0x0 build/samus/RO/chip/lm4/peci.o
 .data          0x0000000000000000        0x0 build/samus/RO/chip/lm4/peci.o
 .ARM.attributes
                0x0000000000000000       0x37 build/samus/RO/chip/lm4/peci.o
 .text          0x0000000000000000        0x0 build/samus/RO/chip/lm4/pwm.o
 .data          0x0000000000000000        0x0 build/samus/RO/chip/lm4/pwm.o
 .bss           0x0000000000000000        0x0 build/samus/RO/chip/lm4/pwm.o
 .ARM.attributes
                0x0000000000000000       0x37 build/samus/RO/chip/lm4/pwm.o
 .text          0x0000000000000000        0x0 build/samus/RO/chip/lm4/system.o
 .text.system_set_scratchpad
                0x0000000000000000        0x8 build/samus/RO/chip/lm4/system.o
 .text.system_get_scratchpad
                0x0000000000000000        0xc build/samus/RO/chip/lm4/system.o
 .ARM.attributes
                0x0000000000000000       0x37 build/samus/RO/chip/lm4/system.o
 .text          0x0000000000000000        0x0 build/samus/RO/chip/lm4/uart.o
 .data          0x0000000000000000        0x0 build/samus/RO/chip/lm4/uart.o
 .text.uart_disable_interrupt
                0x0000000000000000        0x6 build/samus/RO/chip/lm4/uart.o
 .text.uart_enable_interrupt
                0x0000000000000000        0x6 build/samus/RO/chip/lm4/uart.o
 .ARM.attributes
                0x0000000000000000       0x37 build/samus/RO/chip/lm4/uart.o
 .text          0x0000000000000000        0x0 build/samus/RO/chip/lm4/watchdog.o
 .data          0x0000000000000000        0x0 build/samus/RO/chip/lm4/watchdog.o
 .ARM.attributes
                0x0000000000000000       0x37 build/samus/RO/chip/lm4/watchdog.o
 .text          0x0000000000000000        0x0 build/samus/RO/common/acpi.o
 .data          0x0000000000000000        0x0 build/samus/RO/common/acpi.o
 .ARM.attributes
                0x0000000000000000       0x37 build/samus/RO/common/acpi.o
 .text          0x0000000000000000        0x0 build/samus/RO/common/adc.o
 .data          0x0000000000000000        0x0 build/samus/RO/common/adc.o
 .bss           0x0000000000000000        0x0 build/samus/RO/common/adc.o
 .ARM.attributes
                0x0000000000000000       0x37 build/samus/RO/common/adc.o
 .text          0x0000000000000000        0x0 build/samus/RO/common/als.o
 .bss           0x0000000000000000        0x0 build/samus/RO/common/als.o
 .ARM.attributes
                0x0000000000000000       0x37 build/samus/RO/common/als.o
 .text          0x0000000000000000        0x0 build/samus/RO/common/battery.o
 .data          0x0000000000000000        0x0 build/samus/RO/common/battery.o
 .ARM.attributes
                0x0000000000000000       0x37 build/samus/RO/common/battery.o
 .text          0x0000000000000000        0x0 build/samus/RO/common/charge_state_v2.o
 .ARM.attributes
                0x0000000000000000       0x37 build/samus/RO/common/charge_state_v2.o
 .text          0x0000000000000000        0x0 build/samus/RO/common/charger.o
 .bss           0x0000000000000000        0x0 build/samus/RO/common/charger.o
 .ARM.attributes
                0x0000000000000000       0x37 build/samus/RO/common/charger.o
 .text          0x0000000000000000        0x0 build/samus/RO/common/chipset.o
 .data          0x0000000000000000        0x0 build/samus/RO/common/chipset.o
 .bss           0x0000000000000000        0x0 build/samus/RO/common/chipset.o
 .ARM.attributes
                0x0000000000000000       0x37 build/samus/RO/common/chipset.o
 .text          0x0000000000000000        0x0 build/samus/RO/common/console.o
 .data          0x0000000000000000        0x0 build/samus/RO/common/console.o
 .ARM.attributes
                0x0000000000000000       0x37 build/samus/RO/common/console.o
 .text          0x0000000000000000        0x0 build/samus/RO/common/console_output.o
 .text.ucd_lb_queue_pop
                0x0000000000000000       0x1c build/samus/RO/common/console_output.o
 .ARM.attributes
                0x0000000000000000       0x37 build/samus/RO/common/console_output.o
 .text          0x0000000000000000        0x0 build/samus/RO/common/fan.o
 .data          0x0000000000000000        0x0 build/samus/RO/common/fan.o
 .ARM.attributes
                0x0000000000000000       0x37 build/samus/RO/common/fan.o
 .text          0x0000000000000000        0x0 build/samus/RO/common/flash.o
 .data          0x0000000000000000        0x0 build/samus/RO/common/flash.o
 .bss           0x0000000000000000        0x0 build/samus/RO/common/flash.o
 .ARM.attributes
                0x0000000000000000       0x37 build/samus/RO/common/flash.o
 .text          0x0000000000000000        0x0 build/samus/RO/common/fmap.o
 .data          0x0000000000000000        0x0 build/samus/RO/common/fmap.o
 .bss           0x0000000000000000        0x0 build/samus/RO/common/fmap.o
 .ARM.attributes
                0x0000000000000000       0x37 build/samus/RO/common/fmap.o
 .text          0x0000000000000000        0x0 build/samus/RO/common/gesture.o
 .data          0x0000000000000000        0x0 build/samus/RO/common/gesture.o
 .ARM.attributes
                0x0000000000000000       0x37 build/samus/RO/common/gesture.o
 .text          0x0000000000000000        0x0 build/samus/RO/common/gpio.o
 .data          0x0000000000000000        0x0 build/samus/RO/common/gpio.o
 .text.gpio_get_name
                0x0000000000000000        0xc build/samus/RO/common/gpio.o
 .ARM.attributes
                0x0000000000000000       0x37 build/samus/RO/common/gpio.o
 .text          0x0000000000000000        0x0 build/samus/RO/common/hooks.o
 .ARM.attributes
                0x0000000000000000       0x37 build/samus/RO/common/hooks.o
 .text          0x0000000000000000        0x0 build/samus/RO/common/host_command.o
 .text.host_get_vboot_mode
                0x0000000000000000        0xc build/samus/RO/common/host_command.o
 .text.host_request_expected_size
                0x0000000000000000       0x1a build/samus/RO/common/host_command.o
 .ARM.attributes
                0x0000000000000000       0x37 build/samus/RO/common/host_command.o
 .text          0x0000000000000000        0x0 build/samus/RO/common/host_command_master.o
 .data          0x0000000000000000        0x0 build/samus/RO/common/host_command_master.o
 .ARM.attributes
                0x0000000000000000       0x37 build/samus/RO/common/host_command_master.o
 .text          0x0000000000000000        0x0 build/samus/RO/common/host_command_pd.o
 .text.host_command_pd_request_hibernate
                0x0000000000000000        0xa build/samus/RO/common/host_command_pd.o
 .ARM.attributes
                0x0000000000000000       0x37 build/samus/RO/common/host_command_pd.o
 .text          0x0000000000000000        0x0 build/samus/RO/common/host_event_commands.o
 .data          0x0000000000000000        0x0 build/samus/RO/common/host_event_commands.o
 .ARM.attributes
                0x0000000000000000       0x37 build/samus/RO/common/host_event_commands.o
 .text          0x0000000000000000        0x0 build/samus/RO/common/i2c.o
 .data          0x0000000000000000        0x0 build/samus/RO/common/i2c.o
 .text.i2c_read32
                0x0000000000000000       0x74 build/samus/RO/common/i2c.o
 .text.i2c_write32
                0x0000000000000000       0x70 build/samus/RO/common/i2c.o
 .ARM.attributes
                0x0000000000000000       0x37 build/samus/RO/common/i2c.o
 .text          0x0000000000000000        0x0 build/samus/RO/common/keyboard_8042.o
 .ARM.attributes
                0x0000000000000000       0x37 build/samus/RO/common/keyboard_8042.o
 .text          0x0000000000000000        0x0 build/samus/RO/common/keyboard_8042_sharedlib.o
 .data          0x0000000000000000        0x0 build/samus/RO/common/keyboard_8042_sharedlib.o
 .bss           0x0000000000000000        0x0 build/samus/RO/common/keyboard_8042_sharedlib.o
 .ARM.attributes
                0x0000000000000000       0x37 build/samus/RO/common/keyboard_8042_sharedlib.o
 .text          0x0000000000000000        0x0 build/samus/RO/common/keyboard_scan.o
 .text.keyboard_scan_get_config
                0x0000000000000000        0x8 build/samus/RO/common/keyboard_scan.o
 .text.keyboard_scan_get_state
                0x0000000000000000        0x8 build/samus/RO/common/keyboard_scan.o
 .ARM.attributes
                0x0000000000000000       0x37 build/samus/RO/common/keyboard_scan.o
 .text          0x0000000000000000        0x0 build/samus/RO/common/lb_common.o
 .ARM.attributes
                0x0000000000000000       0x37 build/samus/RO/common/lb_common.o
 .text          0x0000000000000000        0x0 build/samus/RO/common/lid_switch.o
 .data          0x0000000000000000        0x0 build/samus/RO/common/lid_switch.o
 .ARM.attributes
                0x0000000000000000       0x37 build/samus/RO/common/lid_switch.o
 .text          0x0000000000000000        0x0 build/samus/RO/common/lightbar.o
 .ARM.attributes
                0x0000000000000000       0x37 build/samus/RO/common/lightbar.o
 .text          0x0000000000000000        0x0 build/samus/RO/common/main.o
 .data          0x0000000000000000        0x0 build/samus/RO/common/main.o
 .bss           0x0000000000000000        0x0 build/samus/RO/common/main.o
 .ARM.attributes
                0x0000000000000000       0x37 build/samus/RO/common/main.o
 .text          0x0000000000000000        0x0 build/samus/RO/common/math_util.o
 .data          0x0000000000000000        0x0 build/samus/RO/common/math_util.o
 .bss           0x0000000000000000        0x0 build/samus/RO/common/math_util.o
 .text.rotate_inv
                0x0000000000000000       0xec build/samus/RO/common/math_util.o
 .ARM.attributes
                0x0000000000000000       0x37 build/samus/RO/common/math_util.o
 .text          0x0000000000000000        0x0 build/samus/RO/common/memory_commands.o
 .data          0x0000000000000000        0x0 build/samus/RO/common/memory_commands.o
 .bss           0x0000000000000000        0x0 build/samus/RO/common/memory_commands.o
 .ARM.attributes
                0x0000000000000000       0x37 build/samus/RO/common/memory_commands.o
 .text          0x0000000000000000        0x0 build/samus/RO/common/motion_lid.o
 .ARM.attributes
                0x0000000000000000       0x37 build/samus/RO/common/motion_lid.o
 .text          0x0000000000000000        0x0 build/samus/RO/common/motion_sense.o
 .ARM.attributes
                0x0000000000000000       0x37 build/samus/RO/common/motion_sense.o
 .text          0x0000000000000000        0x0 build/samus/RO/common/panic_output.o
 .data          0x0000000000000000        0x0 build/samus/RO/common/panic_output.o
 .bss           0x0000000000000000        0x0 build/samus/RO/common/panic_output.o
 .text.panic    0x0000000000000000       0x18 build/samus/RO/common/panic_output.o
 .ARM.attributes
                0x0000000000000000       0x37 build/samus/RO/common/panic_output.o
 .text          0x0000000000000000        0x0 build/samus/RO/common/port80.o
 .text.port80_last_boot
                0x0000000000000000       0x18 build/samus/RO/common/port80.o
 .ARM.attributes
                0x0000000000000000       0x37 build/samus/RO/common/port80.o
 .text          0x0000000000000000        0x0 build/samus/RO/common/power_button.o
 .text.power_button_wait_for_release
                0x0000000000000000       0x80 build/samus/RO/common/power_button.o
 .ARM.attributes
                0x0000000000000000       0x37 build/samus/RO/common/power_button.o
 .text          0x0000000000000000        0x0 build/samus/RO/common/power_button_x86.o
 .data          0x0000000000000000        0x0 build/samus/RO/common/power_button_x86.o
 .text.power_button_pch_press
                0x0000000000000000       0x20 build/samus/RO/common/power_button_x86.o
 .ARM.attributes
                0x0000000000000000       0x37 build/samus/RO/common/power_button_x86.o
 .text          0x0000000000000000        0x0 build/samus/RO/common/printf.o
 .data          0x0000000000000000        0x0 build/samus/RO/common/printf.o
 .bss           0x0000000000000000        0x0 build/samus/RO/common/printf.o
 .ARM.attributes
                0x0000000000000000       0x37 build/samus/RO/common/printf.o
 .text          0x0000000000000000        0x0 build/samus/RO/common/pwm.o
 .data          0x0000000000000000        0x0 build/samus/RO/common/pwm.o
 .bss           0x0000000000000000        0x0 build/samus/RO/common/pwm.o
 .ARM.attributes
                0x0000000000000000       0x37 build/samus/RO/common/pwm.o
 .text          0x0000000000000000        0x0 build/samus/RO/common/pwm_kblight.o
 .data          0x0000000000000000        0x0 build/samus/RO/common/pwm_kblight.o
 .bss           0x0000000000000000        0x0 build/samus/RO/common/pwm_kblight.o
 .ARM.attributes
                0x0000000000000000       0x37 build/samus/RO/common/pwm_kblight.o
 .text          0x0000000000000000        0x0 build/samus/RO/common/queue.o
 .data          0x0000000000000000        0x0 build/samus/RO/common/queue.o
 .bss           0x0000000000000000        0x0 build/samus/RO/common/queue.o
 .text.queue_is_full
                0x0000000000000000        0xe build/samus/RO/common/queue.o
 .text.queue_get_write_chunk
                0x0000000000000000       0x44 build/samus/RO/common/queue.o
 .text.queue_get_read_chunk
                0x0000000000000000       0x44 build/samus/RO/common/queue.o
 .ARM.attributes
                0x0000000000000000       0x37 build/samus/RO/common/queue.o
 .text          0x0000000000000000        0x0 build/samus/RO/common/queue_policies.o
 .data          0x0000000000000000        0x0 build/samus/RO/common/queue_policies.o
 .bss           0x0000000000000000        0x0 build/samus/RO/common/queue_policies.o
 .text.queue_add_direct
                0x0000000000000000        0xe build/samus/RO/common/queue_policies.o
 .text.queue_remove_direct
                0x0000000000000000        0xe build/samus/RO/common/queue_policies.o
 .rodata        0x0000000000000000       0x1c build/samus/RO/common/queue_policies.o
 .debug_info    0x0000000000000000      0x353 build/samus/RO/common/queue_policies.o
 .debug_abbrev  0x0000000000000000       0xec build/samus/RO/common/queue_policies.o
 .debug_loc     0x0000000000000000       0xdc build/samus/RO/common/queue_policies.o
 .debug_aranges
                0x0000000000000000       0x28 build/samus/RO/common/queue_policies.o
 .debug_ranges  0x0000000000000000       0x18 build/samus/RO/common/queue_policies.o
 .debug_line    0x0000000000000000      0x1a3 build/samus/RO/common/queue_policies.o
 .debug_str     0x0000000000000000      0x32e build/samus/RO/common/queue_policies.o
 .comment       0x0000000000000000       0x4b build/samus/RO/common/queue_policies.o
 .debug_frame   0x0000000000000000       0x30 build/samus/RO/common/queue_policies.o
 .ARM.attributes
                0x0000000000000000       0x37 build/samus/RO/common/queue_policies.o
 .text          0x0000000000000000        0x0 build/samus/RO/common/sha256.o
 .data          0x0000000000000000        0x0 build/samus/RO/common/sha256.o
 .bss           0x0000000000000000        0x0 build/samus/RO/common/sha256.o
 .ARM.attributes
                0x0000000000000000       0x37 build/samus/RO/common/sha256.o
 .text          0x0000000000000000        0x0 build/samus/RO/common/shared_mem.o
 .data          0x0000000000000000        0x0 build/samus/RO/common/shared_mem.o
 .ARM.attributes
                0x0000000000000000       0x37 build/samus/RO/common/shared_mem.o
 .text          0x0000000000000000        0x0 build/samus/RO/common/switch.o
 .data          0x0000000000000000        0x0 build/samus/RO/common/switch.o
 .ARM.attributes
                0x0000000000000000       0x37 build/samus/RO/common/switch.o
 .text          0x0000000000000000        0x0 build/samus/RO/common/system.o
 .data          0x0000000000000000        0x0 build/samus/RO/common/system.o
 .text.system_clear_reset_flags
                0x0000000000000000       0x10 build/samus/RO/common/system.o
 .text.system_image_copy_t_to_string
                0x0000000000000000       0x14 build/samus/RO/common/system.o
 .ARM.attributes
                0x0000000000000000       0x37 build/samus/RO/common/system.o
 .text          0x0000000000000000        0x0 build/samus/RO/common/temp_sensor.o
 .data          0x0000000000000000        0x0 build/samus/RO/common/temp_sensor.o
 .bss           0x0000000000000000        0x0 build/samus/RO/common/temp_sensor.o
 .ARM.attributes
                0x0000000000000000       0x37 build/samus/RO/common/temp_sensor.o
 .text          0x0000000000000000        0x0 build/samus/RO/common/thermal.o
 .data          0x0000000000000000        0x0 build/samus/RO/common/thermal.o
 .ARM.attributes
                0x0000000000000000       0x37 build/samus/RO/common/thermal.o
 .text          0x0000000000000000        0x0 build/samus/RO/common/throttle_ap.o
 .data          0x0000000000000000        0x0 build/samus/RO/common/throttle_ap.o
 .ARM.attributes
                0x0000000000000000       0x37 build/samus/RO/common/throttle_ap.o
 .text          0x0000000000000000        0x0 build/samus/RO/common/timer.o
 .text.clock    0x0000000000000000        0x4 build/samus/RO/common/timer.o
 .ARM.attributes
                0x0000000000000000       0x37 build/samus/RO/common/timer.o
 .text          0x0000000000000000        0x0 build/samus/RO/common/uart_buffering.o
 .data          0x0000000000000000        0x0 build/samus/RO/common/uart_buffering.o
 .text.uart_printf
                0x0000000000000000       0x1a build/samus/RO/common/uart_buffering.o
 .ARM.attributes
                0x0000000000000000       0x37 build/samus/RO/common/uart_buffering.o
 .text          0x0000000000000000        0x0 build/samus/RO/common/usb_port_power_smart.o
 .data          0x0000000000000000        0x0 build/samus/RO/common/usb_port_power_smart.o
 .text.usb_charge_ports_enabled
                0x0000000000000000       0x20 build/samus/RO/common/usb_port_power_smart.o
 .ARM.attributes
                0x0000000000000000       0x37 build/samus/RO/common/usb_port_power_smart.o
 .text          0x0000000000000000        0x0 build/samus/RO/common/util.o
 .data          0x0000000000000000        0x0 build/samus/RO/common/util.o
 .bss           0x0000000000000000        0x0 build/samus/RO/common/util.o
 .text.isdigit  0x0000000000000000        0xc build/samus/RO/common/util.o
 .text.atoi     0x0000000000000000       0x3e build/samus/RO/common/util.o
 .text.memcmp   0x0000000000000000       0x1c build/samus/RO/common/util.o
 .text.get_next_bit
                0x0000000000000000       0x18 build/samus/RO/common/util.o
 .text.parse_offset_size
                0x0000000000000000       0x66 build/samus/RO/common/util.o
 .ARM.attributes
                0x0000000000000000       0x37 build/samus/RO/common/util.o
 .text          0x0000000000000000        0x0 build/samus/RO/common/vboot_hash.o
 .data          0x0000000000000000        0x0 build/samus/RO/common/vboot_hash.o
 .ARM.attributes
                0x0000000000000000       0x37 build/samus/RO/common/vboot_hash.o
 .text          0x0000000000000000        0x0 build/samus/RO/common/version.o
 .data          0x0000000000000000        0x0 build/samus/RO/common/version.o
 .bss           0x0000000000000000        0x0 build/samus/RO/common/version.o
 .text.ver_get_numcommits
                0x0000000000000000       0x44 build/samus/RO/common/version.o
 .ARM.attributes
                0x0000000000000000       0x37 build/samus/RO/common/version.o
 .text          0x0000000000000000        0x0 build/samus/RO/common/wireless.o
 .bss           0x0000000000000000        0x0 build/samus/RO/common/wireless.o
 .ARM.attributes
                0x0000000000000000       0x37 build/samus/RO/common/wireless.o
 .text          0x0000000000000000        0x0 build/samus/RO/core/cortex-m/cpu.o
 .data          0x0000000000000000        0x0 build/samus/RO/core/cortex-m/cpu.o
 .bss           0x0000000000000000        0x0 build/samus/RO/core/cortex-m/cpu.o
 .ARM.attributes
                0x0000000000000000       0x37 build/samus/RO/core/cortex-m/cpu.o
 .data          0x0000000000000000        0x0 build/samus/RO/core/cortex-m/init.o
 .bss           0x0000000000000000        0x0 build/samus/RO/core/cortex-m/init.o
 .ARM.attributes
                0x0000000000000000       0x25 build/samus/RO/core/cortex-m/init.o
 .text          0x0000000000000000        0x0 build/samus/RO/core/cortex-m/ldivmod.o
 .data          0x0000000000000000        0x0 build/samus/RO/core/cortex-m/ldivmod.o
 .bss           0x0000000000000000        0x0 build/samus/RO/core/cortex-m/ldivmod.o
 .text.__aeabi_ldivmod
                0x0000000000000000       0x5c build/samus/RO/core/cortex-m/ldivmod.o
 .debug_line    0x0000000000000000       0x70 build/samus/RO/core/cortex-m/ldivmod.o
 .debug_info    0x0000000000000000       0x68 build/samus/RO/core/cortex-m/ldivmod.o
 .debug_abbrev  0x0000000000000000       0x14 build/samus/RO/core/cortex-m/ldivmod.o
 .debug_aranges
                0x0000000000000000       0x20 build/samus/RO/core/cortex-m/ldivmod.o
 .ARM.attributes
                0x0000000000000000       0x25 build/samus/RO/core/cortex-m/ldivmod.o
 .text          0x0000000000000000        0x0 build/samus/RO/core/cortex-m/mpu.o
 .data          0x0000000000000000        0x0 build/samus/RO/core/cortex-m/mpu.o
 .bss           0x0000000000000000        0x0 build/samus/RO/core/cortex-m/mpu.o
 .ARM.attributes
                0x0000000000000000       0x37 build/samus/RO/core/cortex-m/mpu.o
 .text          0x0000000000000000        0x0 build/samus/RO/core/cortex-m/panic.o
 .text.ignore_bus_fault
                0x0000000000000000        0xc build/samus/RO/core/cortex-m/panic.o
 .ARM.attributes
                0x0000000000000000       0x37 build/samus/RO/core/cortex-m/panic.o
 .data          0x0000000000000000        0x0 build/samus/RO/core/cortex-m/switch.o
 .bss           0x0000000000000000        0x0 build/samus/RO/core/cortex-m/switch.o
 .ARM.attributes
                0x0000000000000000       0x25 build/samus/RO/core/cortex-m/switch.o
 .text          0x0000000000000000        0x0 build/samus/RO/core/cortex-m/task.o
 .text.task_clear_fp_used
                0x0000000000000000       0x12 build/samus/RO/core/cortex-m/task.o
 .ARM.attributes
                0x0000000000000000       0x37 build/samus/RO/core/cortex-m/task.o
 .text          0x0000000000000000        0x0 build/samus/RO/core/cortex-m/uldivmod.o
 .data          0x0000000000000000        0x0 build/samus/RO/core/cortex-m/uldivmod.o
 .bss           0x0000000000000000        0x0 build/samus/RO/core/cortex-m/uldivmod.o
 .ARM.attributes
                0x0000000000000000       0x25 build/samus/RO/core/cortex-m/uldivmod.o
 .text          0x0000000000000000        0x0 build/samus/RO/core/cortex-m/watchdog.o
 .data          0x0000000000000000        0x0 build/samus/RO/core/cortex-m/watchdog.o
 .bss           0x0000000000000000        0x0 build/samus/RO/core/cortex-m/watchdog.o
 .ARM.attributes
                0x0000000000000000       0x37 build/samus/RO/core/cortex-m/watchdog.o
 .text          0x0000000000000000        0x0 build/samus/RO/driver/accel_kionix.o
 .data          0x0000000000000000        0x0 build/samus/RO/driver/accel_kionix.o
 .bss           0x0000000000000000        0x0 build/samus/RO/driver/accel_kionix.o
 .ARM.attributes
                0x0000000000000000       0x37 build/samus/RO/driver/accel_kionix.o
 .text          0x0000000000000000        0x0 build/samus/RO/driver/accelgyro_lsm6ds0.o
 .data          0x0000000000000000        0x0 build/samus/RO/driver/accelgyro_lsm6ds0.o
 .bss           0x0000000000000000        0x0 build/samus/RO/driver/accelgyro_lsm6ds0.o
 .ARM.attributes
                0x0000000000000000       0x37 build/samus/RO/driver/accelgyro_lsm6ds0.o
 .text          0x0000000000000000        0x0 build/samus/RO/driver/als_isl29035.o
 .data          0x0000000000000000        0x0 build/samus/RO/driver/als_isl29035.o
 .bss           0x0000000000000000        0x0 build/samus/RO/driver/als_isl29035.o
 .ARM.attributes
                0x0000000000000000       0x37 build/samus/RO/driver/als_isl29035.o
 .text          0x0000000000000000        0x0 build/samus/RO/driver/battery/samus.o
 .ARM.attributes
                0x0000000000000000       0x37 build/samus/RO/driver/battery/samus.o
 .text          0x0000000000000000        0x0 build/samus/RO/driver/battery/smart.o
 .bss           0x0000000000000000        0x0 build/samus/RO/driver/battery/smart.o
 .text.sbc_read
                0x0000000000000000        0xc build/samus/RO/driver/battery/smart.o
 .text.sbc_write
                0x0000000000000000        0xc build/samus/RO/driver/battery/smart.o
 .text.battery_run_time_to_empty
                0x0000000000000000        0x8 build/samus/RO/driver/battery/smart.o
 .text.battery_time_at_rate
                0x0000000000000000       0x68 build/samus/RO/driver/battery/smart.o
 .text.battery_manufacture_date
                0x0000000000000000       0x2c build/samus/RO/driver/battery/smart.o
 .text.battery_wait_for_stable
                0x0000000000000000       0x70 build/samus/RO/driver/battery/smart.o
 .ARM.attributes
                0x0000000000000000       0x37 build/samus/RO/driver/battery/smart.o
 .text          0x0000000000000000        0x0 build/samus/RO/driver/charger/bq24773.o
 .data          0x0000000000000000        0x0 build/samus/RO/driver/charger/bq24773.o
 .bss           0x0000000000000000        0x0 build/samus/RO/driver/charger/bq24773.o
 .ARM.attributes
                0x0000000000000000       0x37 build/samus/RO/driver/charger/bq24773.o
 .text          0x0000000000000000        0x0 build/samus/RO/driver/temp_sensor/tmp006.o
 .data          0x0000000000000000        0x0 build/samus/RO/driver/temp_sensor/tmp006.o
 .ARM.attributes
                0x0000000000000000       0x37 build/samus/RO/driver/temp_sensor/tmp006.o
 .text          0x0000000000000000        0x0 build/samus/RO/power/common.o
 .text.power_set_pause_in_s5
                0x0000000000000000        0xc build/samus/RO/power/common.o
 .ARM.attributes
                0x0000000000000000       0x37 build/samus/RO/power/common.o

Memory Configuration

Name             Origin             Length             Attributes
FLASH            0x0000000000000000 0x000000000001f800 xr
IRAM             0x0000000020000000 0x0000000000008000 rw
*default*        0x0000000000000000 0xffffffffffffffff

Linker script and memory map

LOAD build/samus/RO/board/samus/board.o
LOAD build/samus/RO/board/samus/extpower.o
LOAD build/samus/RO/board/samus/panel.o
LOAD build/samus/RO/board/samus/power_sequence.o
LOAD build/samus/RO/chip/lm4/adc.o
LOAD build/samus/RO/chip/lm4/chip_temp_sensor.o
LOAD build/samus/RO/chip/lm4/clock.o
LOAD build/samus/RO/chip/lm4/fan.o
LOAD build/samus/RO/chip/lm4/flash.o
LOAD build/samus/RO/chip/lm4/gpio.o
LOAD build/samus/RO/chip/lm4/hwtimer.o
LOAD build/samus/RO/chip/lm4/i2c.o
LOAD build/samus/RO/chip/lm4/jtag.o
LOAD build/samus/RO/chip/lm4/keyboard_raw.o
LOAD build/samus/RO/chip/lm4/lpc.o
LOAD build/samus/RO/chip/lm4/peci.o
LOAD build/samus/RO/chip/lm4/pwm.o
LOAD build/samus/RO/chip/lm4/system.o
LOAD build/samus/RO/chip/lm4/uart.o
LOAD build/samus/RO/chip/lm4/watchdog.o
LOAD build/samus/RO/common/acpi.o
LOAD build/samus/RO/common/adc.o
LOAD build/samus/RO/common/als.o
LOAD build/samus/RO/common/battery.o
LOAD build/samus/RO/common/charge_state_v2.o
LOAD build/samus/RO/common/charger.o
LOAD build/samus/RO/common/chipset.o
LOAD build/samus/RO/common/console.o
LOAD build/samus/RO/common/console_output.o
LOAD build/samus/RO/common/fan.o
LOAD build/samus/RO/common/flash.o
LOAD build/samus/RO/common/fmap.o
LOAD build/samus/RO/common/gesture.o
LOAD build/samus/RO/common/gpio.o
LOAD build/samus/RO/common/hooks.o
LOAD build/samus/RO/common/host_command.o
LOAD build/samus/RO/common/host_command_master.o
LOAD build/samus/RO/common/host_command_pd.o
LOAD build/samus/RO/common/host_event_commands.o
LOAD build/samus/RO/common/i2c.o
LOAD build/samus/RO/common/keyboard_8042.o
LOAD build/samus/RO/common/keyboard_8042_sharedlib.o
LOAD build/samus/RO/common/keyboard_scan.o
LOAD build/samus/RO/common/lb_common.o
LOAD build/samus/RO/common/lid_switch.o
LOAD build/samus/RO/common/lightbar.o
LOAD build/samus/RO/common/main.o
LOAD build/samus/RO/common/math_util.o
LOAD build/samus/RO/common/memory_commands.o
LOAD build/samus/RO/common/motion_lid.o
LOAD build/samus/RO/common/motion_sense.o
LOAD build/samus/RO/common/panic_output.o
LOAD build/samus/RO/common/port80.o
LOAD build/samus/RO/common/power_button.o
LOAD build/samus/RO/common/power_button_x86.o
LOAD build/samus/RO/common/printf.o
LOAD build/samus/RO/common/pwm.o
LOAD build/samus/RO/common/pwm_kblight.o
LOAD build/samus/RO/common/queue.o
LOAD build/samus/RO/common/queue_policies.o
LOAD build/samus/RO/common/sha256.o
LOAD build/samus/RO/common/shared_mem.o
LOAD build/samus/RO/common/switch.o
LOAD build/samus/RO/common/system.o
LOAD build/samus/RO/common/temp_sensor.o
LOAD build/samus/RO/common/thermal.o
LOAD build/samus/RO/common/throttle_ap.o
LOAD build/samus/RO/common/timer.o
LOAD build/samus/RO/common/uart_buffering.o
LOAD build/samus/RO/common/usb_port_power_smart.o
LOAD build/samus/RO/common/util.o
LOAD build/samus/RO/common/vboot_hash.o
LOAD build/samus/RO/common/version.o
LOAD build/samus/RO/common/wireless.o
LOAD build/samus/RO/core/cortex-m/cpu.o
LOAD build/samus/RO/core/cortex-m/init.o
LOAD build/samus/RO/core/cortex-m/ldivmod.o
LOAD build/samus/RO/core/cortex-m/mpu.o
LOAD build/samus/RO/core/cortex-m/panic.o
LOAD build/samus/RO/core/cortex-m/switch.o
LOAD build/samus/RO/core/cortex-m/task.o
LOAD build/samus/RO/core/cortex-m/uldivmod.o
LOAD build/samus/RO/core/cortex-m/watchdog.o
LOAD build/samus/RO/driver/accel_kionix.o
LOAD build/samus/RO/driver/accelgyro_lsm6ds0.o
LOAD build/samus/RO/driver/als_isl29035.o
LOAD build/samus/RO/driver/battery/samus.o
LOAD build/samus/RO/driver/battery/smart.o
LOAD build/samus/RO/driver/charger/bq24773.o
LOAD build/samus/RO/driver/temp_sensor/tmp006.o
LOAD build/samus/RO/power/common.o

.text           0x0000000000000000    0x13d78
 build/samus/RO/core/cortex-m/init.o(.text.vecttable)
 .text.vecttable
                0x0000000000000000      0x250 build/samus/RO/core/cortex-m/init.o
                0x0000000000000250                . = ALIGN (0x4)
                0x0000000000000250                __version_struct_offset = .
 *(.rodata.ver)
 .rodata.ver    0x0000000000000250       0x28 build/samus/RO/common/version.o
                0x0000000000000250                version_data
                0x0000000000000278                . = ALIGN (0x4)
 *(.rodata.pstate)
                0x0000000000000278                . = ALIGN (0x4)
 build/samus/RO/core/cortex-m/init.o(.text)
 .text          0x0000000000000278       0x98 build/samus/RO/core/cortex-m/init.o
                0x0000000000000278                reset
                0x00000000000002cc                irq_98_handler
                0x00000000000002cc                irq_119_handler
                0x00000000000002cc                irq_38_handler
                0x00000000000002cc                irq_121_handler
                0x00000000000002cc                irq_92_handler
                0x00000000000002cc                irq_50_handler
                0x00000000000002cc                irq_62_handler
                0x00000000000002cc                irq_122_handler
                0x00000000000002cc                irq_51_handler
                0x00000000000002cc                irq_81_handler
                0x00000000000002cc                irq_123_handler
                0x00000000000002cc                irq_24_handler
                0x00000000000002cc                irq_86_handler
                0x00000000000002cc                irq_6_handler
                0x00000000000002cc                irq_47_handler
                0x00000000000002cc                irq_75_handler
                0x00000000000002cc                irq_107_handler
                0x00000000000002cc                irq_115_handler
                0x00000000000002cc                irq_48_handler
                0x00000000000002cc                irq_44_handler
                0x00000000000002cc                irq_59_handler
                0x00000000000002cc                irq_27_handler
                0x00000000000002cc                irq_70_handler
                0x00000000000002cc                irq_131_handler
                0x00000000000002cc                irq_46_handler
                0x00000000000002cc                irq_7_handler
                0x00000000000002cc                irq_104_handler
                0x00000000000002cc                irq_41_handler
                0x00000000000002cc                irq_96_handler
                0x00000000000002cc                irq_85_handler
                0x00000000000002cc                usage_fault_handler
                0x00000000000002cc                irq_126_handler
                0x00000000000002cc                irq_101_handler
                0x00000000000002cc                irq_26_handler
                0x00000000000002cc                irq_128_handler
                0x00000000000002cc                mpu_fault_handler
                0x00000000000002cc                irq_118_handler
                0x00000000000002cc                irq_60_handler
                0x00000000000002cc                irq_84_handler
                0x00000000000002cc                irq_88_handler
                0x00000000000002cc                irq_42_handler
                0x00000000000002cc                irq_93_handler
                0x00000000000002cc                irq_19_handler
                0x00000000000002cc                irq_74_handler
                0x00000000000002cc                irq_22_handler
                0x00000000000002cc                irq_66_handler
                0x00000000000002cc                irq_90_handler
                0x00000000000002cc                irq_45_handler
                0x00000000000002cc                irq_105_handler
                0x00000000000002cc                irq_23_handler
                0x00000000000002cc                irq_78_handler
                0x00000000000002cc                irq_21_handler
                0x00000000000002cc                irq_65_handler
                0x00000000000002cc                hard_fault_handler
                0x00000000000002cc                irq_63_handler
                0x00000000000002cc                irq_106_handler
                0x00000000000002cc                irq_103_handler
                0x00000000000002cc                irq_76_handler
                0x00000000000002cc                irq_82_handler
                0x00000000000002cc                irq_72_handler
                0x00000000000002cc                irq_113_handler
                0x00000000000002cc                irq_36_handler
                0x00000000000002cc                irq_129_handler
                0x00000000000002cc                irq_73_handler
                0x00000000000002cc                irq_114_handler
                0x00000000000002cc                irq_89_handler
                0x00000000000002cc                irq_20_handler
                0x00000000000002cc                irq_102_handler
                0x00000000000002cc                irq_35_handler
                0x00000000000002cc                irq_58_handler
                0x00000000000002cc                irq_13_handler
                0x00000000000002cc                pendsv_handler
                0x00000000000002cc                irq_40_handler
                0x00000000000002cc                irq_117_handler
                0x00000000000002cc                irq_127_handler
                0x00000000000002cc                sys_tick_handler
                0x00000000000002cc                irq_91_handler
                0x00000000000002cc                irq_25_handler
                0x00000000000002cc                irq_39_handler
                0x00000000000002cc                irq_57_handler
                0x00000000000002cc                irq_12_handler
                0x00000000000002cc                irq_10_handler
                0x00000000000002cc                irq_130_handler
                0x00000000000002cc                irq_80_handler
                0x00000000000002cc                irq_49_handler
                0x00000000000002cc                irq_9_handler
                0x00000000000002cc                irq_29_handler
                0x00000000000002cc                irq_28_handler
                0x00000000000002cc                irq_11_handler
                0x00000000000002cc                irq_100_handler
                0x00000000000002cc                irq_52_handler
                0x00000000000002cc                irq_77_handler
                0x00000000000002cc                irq_95_handler
                0x00000000000002cc                nmi_handler
                0x00000000000002cc                irq_83_handler
                0x00000000000002cc                irq_61_handler
                0x00000000000002cc                irq_71_handler
                0x00000000000002cc                irq_87_handler
                0x00000000000002cc                irq_99_handler
                0x00000000000002cc                irq_120_handler
                0x00000000000002cc                irq_34_handler
                0x00000000000002cc                irq_79_handler
                0x00000000000002cc                debug_handler
                0x00000000000002cc                irq_67_handler
                0x00000000000002cc                irq_97_handler
                0x00000000000002cc                irq_125_handler
                0x00000000000002cc                irq_64_handler
                0x00000000000002cc                irq_53_handler
                0x00000000000002fc                __aeabi_unwind_cpp_pr0
                0x00000000000002fc                __aeabi_unwind_cpp_pr2
                0x00000000000002fc                __aeabi_unwind_cpp_pr1
 *(.text*)
 .text.pd_mcu_interrupt
                0x0000000000000310        0x6 build/samus/RO/board/samus/board.o
 .text.board_init
                0x0000000000000316        0x6 build/samus/RO/board/samus/board.o
 .text.board_discharge_on_ac
                0x000000000000031c       0x14 build/samus/RO/board/samus/board.o
                0x000000000000031c                board_discharge_on_ac
 .text.board_is_discharging_on_ac
                0x0000000000000330        0xc build/samus/RO/board/samus/board.o
                0x0000000000000330                board_is_discharging_on_ac
 .text.board_reset_pd_mcu
                0x000000000000033c       0x1c build/samus/RO/board/samus/board.o
                0x000000000000033c                board_reset_pd_mcu
 .text.extpower_shutdown
                0x0000000000000358        0x8 build/samus/RO/board/samus/extpower.o
 .text.allow_max_request
                0x0000000000000360       0x28 build/samus/RO/board/samus/extpower.o
 .text.charger_disable
                0x0000000000000388       0x28 build/samus/RO/board/samus/extpower.o
 .text.command_backboost_det
                0x00000000000003b0       0x1c build/samus/RO/board/samus/extpower.o
 .text.check_charging_cutoff
                0x00000000000003cc       0x20 build/samus/RO/board/samus/extpower.o
 .text.cancel_charging_cutoff
                0x00000000000003ec       0x18 build/samus/RO/board/samus/extpower.o
 .text.batt_soc_change
                0x0000000000000404       0x4c build/samus/RO/board/samus/extpower.o
 .text.allow_min_charging
                0x0000000000000450       0x18 build/samus/RO/board/samus/extpower.o
 .text.extpower_board_hacks
                0x0000000000000468       0x70 build/samus/RO/board/samus/extpower.o
 .text.extpower_is_present
                0x00000000000004d8        0x6 build/samus/RO/board/samus/extpower.o
                0x00000000000004d8                extpower_is_present
 .text.extpower_buffer_to_pch
                0x00000000000004de       0x20 build/samus/RO/board/samus/extpower.o
 .text.extpower_init
                0x00000000000004fe       0x10 build/samus/RO/board/samus/extpower.o
 *fill*         0x000000000000050e        0x2 
 .text.extpower_interrupt
                0x0000000000000510       0x24 build/samus/RO/board/samus/extpower.o
                0x0000000000000510                extpower_interrupt
 .text.extpower_task
                0x0000000000000534      0x194 build/samus/RO/board/samus/extpower.o
                0x0000000000000534                extpower_task
 .text.bkboost_det_interrupt
                0x00000000000006c8       0x10 build/samus/RO/board/samus/extpower.o
                0x00000000000006c8                bkboost_det_interrupt
 .text.lp8555_read_with_retry
                0x00000000000006d8       0x38 build/samus/RO/board/samus/panel.o
 .text.printstmt
                0x0000000000000710        0xc build/samus/RO/board/samus/panel.o
 .text.lp8555_write_with_retry
                0x000000000000071c       0x3c build/samus/RO/board/samus/panel.o
 .text.lp8555_enable_pwm_mode
                0x0000000000000758       0x58 build/samus/RO/board/samus/panel.o
 .text.switch_command_enable_backlight
                0x00000000000007b0       0x18 build/samus/RO/board/samus/panel.o
 .text.backlight_init
                0x00000000000007c8       0x18 build/samus/RO/board/samus/panel.o
 .text.update_backlight
                0x00000000000007e0       0x28 build/samus/RO/board/samus/panel.o
 .text.backlight_interrupt
                0x0000000000000808        0xc build/samus/RO/board/samus/panel.o
                0x0000000000000808                backlight_interrupt
 .text.chipset_force_g3
                0x0000000000000814       0x80 build/samus/RO/board/samus/power_sequence.o
 .text.chipset_force_shutdown
                0x0000000000000894       0x28 build/samus/RO/board/samus/power_sequence.o
                0x0000000000000894                chipset_force_shutdown
 .text.chipset_reset
                0x00000000000008bc       0x50 build/samus/RO/board/samus/power_sequence.o
                0x00000000000008bc                chipset_reset
 .text.chipset_throttle_cpu
                0x000000000000090c       0x1a build/samus/RO/board/samus/power_sequence.o
                0x000000000000090c                chipset_throttle_cpu
 *fill*         0x0000000000000926        0x2 
 .text.power_chipset_init
                0x0000000000000928       0x48 build/samus/RO/board/samus/power_sequence.o
                0x0000000000000928                power_chipset_init
 .text.power_handle_state
                0x0000000000000970      0x3e4 build/samus/RO/board/samus/power_sequence.o
                0x0000000000000970                power_handle_state
 .text.set_pp5000_in_g3
                0x0000000000000d54       0x50 build/samus/RO/board/samus/power_sequence.o
                0x0000000000000d54                set_pp5000_in_g3
 .text.lb_power
                0x0000000000000da4       0x7c build/samus/RO/board/samus/power_sequence.o
                0x0000000000000da4                lb_power
 .text.handle_interrupt
                0x0000000000000e20       0x28 build/samus/RO/chip/lm4/adc.o
 .text.adc_init
                0x0000000000000e48      0x120 build/samus/RO/chip/lm4/adc.o
 .text.adc_read_channel
                0x0000000000000f68      0x120 build/samus/RO/chip/lm4/adc.o
                0x0000000000000f68                adc_read_channel
 .text.adc_read_all_channels
                0x0000000000001088       0x24 build/samus/RO/chip/lm4/adc.o
                0x0000000000001088                adc_read_all_channels
 .text.ss0_interrupt
                0x00000000000010ac        0x6 build/samus/RO/chip/lm4/adc.o
                0x00000000000010ac                ss0_interrupt
 .text.ss1_interrupt
                0x00000000000010b2        0x6 build/samus/RO/chip/lm4/adc.o
                0x00000000000010b2                ss1_interrupt
 .text.ss2_interrupt
                0x00000000000010b8        0x6 build/samus/RO/chip/lm4/adc.o
                0x00000000000010b8                ss2_interrupt
 .text.ss3_interrupt
                0x00000000000010be        0x6 build/samus/RO/chip/lm4/adc.o
                0x00000000000010be                ss3_interrupt
 .text.irq_14_handler
                0x00000000000010c4       0x14 build/samus/RO/chip/lm4/adc.o
                0x00000000000010c4                irq_14_handler
 .text.irq_15_handler
                0x00000000000010d8       0x14 build/samus/RO/chip/lm4/adc.o
                0x00000000000010d8                irq_15_handler
 .text.irq_16_handler
                0x00000000000010ec       0x14 build/samus/RO/chip/lm4/adc.o
                0x00000000000010ec                irq_16_handler
 .text.irq_17_handler
                0x0000000000001100       0x14 build/samus/RO/chip/lm4/adc.o
                0x0000000000001100                irq_17_handler
 .text.chip_temp_sensor_poll
                0x0000000000001114       0x14 build/samus/RO/chip/lm4/chip_temp_sensor.o
 .text.chip_temp_sensor_get_val
                0x0000000000001128       0x14 build/samus/RO/chip/lm4/chip_temp_sensor.o
                0x0000000000001128                chip_temp_sensor_get_val
 .text.disable_pll
                0x000000000000113c       0x34 build/samus/RO/chip/lm4/clock.o
 .text.command_idle_stats
                0x0000000000001170       0x68 build/samus/RO/chip/lm4/clock.o
 .text.clock_wait_cycles
                0x00000000000011d8        0x6 build/samus/RO/chip/lm4/clock.o
                0x00000000000011d8                clock_wait_cycles
 *fill*         0x00000000000011de        0x2 
 .text.clock_enable_pll
                0x00000000000011e0       0x60 build/samus/RO/chip/lm4/clock.o
                0x00000000000011e0                clock_enable_pll
 .text.clock_get_freq
                0x0000000000001240        0xc build/samus/RO/chip/lm4/clock.o
                0x0000000000001240                clock_get_freq
 .text.clock_init
                0x000000000000124c       0x10 build/samus/RO/chip/lm4/clock.o
                0x000000000000124c                clock_init
 .text.clock_enable_peripheral
                0x000000000000125c       0x48 build/samus/RO/chip/lm4/clock.o
                0x000000000000125c                clock_enable_peripheral
 .text.clock_disable_peripheral
                0x00000000000012a4       0x44 build/samus/RO/chip/lm4/clock.o
                0x00000000000012a4                clock_disable_peripheral
 .text.clock_refresh_console_in_use
                0x00000000000012e8       0x50 build/samus/RO/chip/lm4/clock.o
                0x00000000000012e8                clock_refresh_console_in_use
 .text.command_dsleep
                0x0000000000001338       0xa4 build/samus/RO/chip/lm4/clock.o
 .text.__idle   0x00000000000013dc      0x1c4 build/samus/RO/chip/lm4/clock.o
                0x00000000000013dc                __idle
 .text.fan_init
                0x00000000000015a0       0x18 build/samus/RO/chip/lm4/fan.o
 .text.fan_set_enabled
                0x00000000000015b8       0x20 build/samus/RO/chip/lm4/fan.o
                0x00000000000015b8                fan_set_enabled
 .text.fan_get_enabled
                0x00000000000015d8       0x18 build/samus/RO/chip/lm4/fan.o
                0x00000000000015d8                fan_get_enabled
 .text.fan_set_duty
                0x00000000000015f0       0x38 build/samus/RO/chip/lm4/fan.o
                0x00000000000015f0                fan_set_duty
 .text.fan_get_duty
                0x0000000000001628       0x1c build/samus/RO/chip/lm4/fan.o
                0x0000000000001628                fan_get_duty
 .text.fan_get_rpm_mode
                0x0000000000001644       0x14 build/samus/RO/chip/lm4/fan.o
                0x0000000000001644                fan_get_rpm_mode
 .text.fan_set_rpm_mode
                0x0000000000001658       0x54 build/samus/RO/chip/lm4/fan.o
                0x0000000000001658                fan_set_rpm_mode
 .text.fan_get_rpm_actual
                0x00000000000016ac       0x14 build/samus/RO/chip/lm4/fan.o
                0x00000000000016ac                fan_get_rpm_actual
 .text.fan_get_rpm_target
                0x00000000000016c0       0x14 build/samus/RO/chip/lm4/fan.o
                0x00000000000016c0                fan_get_rpm_target
 .text.fan_set_rpm_target
                0x00000000000016d4       0x20 build/samus/RO/chip/lm4/fan.o
                0x00000000000016d4                fan_set_rpm_target
 .text.fan_get_status
                0x00000000000016f4       0x14 build/samus/RO/chip/lm4/fan.o
                0x00000000000016f4                fan_get_status
 .text.fan_is_stalled
                0x0000000000001708       0x26 build/samus/RO/chip/lm4/fan.o
                0x0000000000001708                fan_is_stalled
 *fill*         0x000000000000172e        0x2 
 .text.fan_channel_setup
                0x0000000000001730       0x24 build/samus/RO/chip/lm4/fan.o
                0x0000000000001730                fan_channel_setup
 .text.write_buffer
                0x0000000000001754       0x64 build/samus/RO/chip/lm4/flash.o
 .text.flash_physical_write
                0x00000000000017b8       0x78 build/samus/RO/chip/lm4/flash.o
                0x00000000000017b8                flash_physical_write
 .text.flash_physical_erase
                0x0000000000001830       0x9c build/samus/RO/chip/lm4/flash.o
                0x0000000000001830                flash_physical_erase
 .text.flash_physical_get_protect
                0x00000000000018cc       0x20 build/samus/RO/chip/lm4/flash.o
                0x00000000000018cc                flash_physical_get_protect
 .text.flash_physical_get_protect_flags
                0x00000000000018ec       0x1c build/samus/RO/chip/lm4/flash.o
                0x00000000000018ec                flash_physical_get_protect_flags
 .text.flash_physical_protect_now
                0x0000000000001908       0x58 build/samus/RO/chip/lm4/flash.o
                0x0000000000001908                flash_physical_protect_now
 .text.flash_physical_get_valid_flags
                0x0000000000001960        0x4 build/samus/RO/chip/lm4/flash.o
                0x0000000000001960                flash_physical_get_valid_flags
 .text.flash_physical_get_writable_flags
                0x0000000000001964       0x18 build/samus/RO/chip/lm4/flash.o
                0x0000000000001964                flash_physical_get_writable_flags
 .text.flash_pre_init
                0x000000000000197c       0x64 build/samus/RO/chip/lm4/flash.o
                0x000000000000197c                flash_pre_init
 .text.gpio_interrupt
                0x00000000000019e0       0x50 build/samus/RO/chip/lm4/gpio.o
 .text.gpio_init
                0x0000000000001a30       0x18 build/samus/RO/chip/lm4/gpio.o
 .text.gpio_set_alternate_function
                0x0000000000001a48       0x84 build/samus/RO/chip/lm4/gpio.o
                0x0000000000001a48                gpio_set_alternate_function
 .text.gpio_get_level
                0x0000000000001acc       0x1c build/samus/RO/chip/lm4/gpio.o
                0x0000000000001acc                gpio_get_level
 .text.gpio_set_level
                0x0000000000001ae8       0x1c build/samus/RO/chip/lm4/gpio.o
                0x0000000000001ae8                gpio_set_level
 .text.gpio_set_flags_by_mask
                0x0000000000001b04       0xb2 build/samus/RO/chip/lm4/gpio.o
                0x0000000000001b04                gpio_set_flags_by_mask
 *fill*         0x0000000000001bb6        0x2 
 .text.gpio_enable_interrupt
                0x0000000000001bb8       0x30 build/samus/RO/chip/lm4/gpio.o
                0x0000000000001bb8                gpio_enable_interrupt
 .text.gpio_disable_interrupt
                0x0000000000001be8       0x30 build/samus/RO/chip/lm4/gpio.o
                0x0000000000001be8                gpio_disable_interrupt
 .text.gpio_pre_init
                0x0000000000001c18      0x104 build/samus/RO/chip/lm4/gpio.o
                0x0000000000001c18                gpio_pre_init
 .text.__gpio_a_interrupt
                0x0000000000001d1c       0x14 build/samus/RO/chip/lm4/gpio.o
                0x0000000000001d1c                __gpio_a_interrupt
 .text.__gpio_b_interrupt
                0x0000000000001d30       0x14 build/samus/RO/chip/lm4/gpio.o
                0x0000000000001d30                __gpio_b_interrupt
 .text.__gpio_c_interrupt
                0x0000000000001d44       0x14 build/samus/RO/chip/lm4/gpio.o
                0x0000000000001d44                __gpio_c_interrupt
 .text.__gpio_d_interrupt
                0x0000000000001d58       0x14 build/samus/RO/chip/lm4/gpio.o
                0x0000000000001d58                __gpio_d_interrupt
 .text.__gpio_e_interrupt
                0x0000000000001d6c       0x14 build/samus/RO/chip/lm4/gpio.o
                0x0000000000001d6c                __gpio_e_interrupt
 .text.__gpio_f_interrupt
                0x0000000000001d80       0x14 build/samus/RO/chip/lm4/gpio.o
                0x0000000000001d80                __gpio_f_interrupt
 .text.__gpio_g_interrupt
                0x0000000000001d94       0x14 build/samus/RO/chip/lm4/gpio.o
                0x0000000000001d94                __gpio_g_interrupt
 .text.__gpio_h_interrupt
                0x0000000000001da8       0x14 build/samus/RO/chip/lm4/gpio.o
                0x0000000000001da8                __gpio_h_interrupt
 .text.__gpio_j_interrupt
                0x0000000000001dbc       0x14 build/samus/RO/chip/lm4/gpio.o
                0x0000000000001dbc                __gpio_j_interrupt
 .text.__gpio_l_interrupt
                0x0000000000001dd0       0x14 build/samus/RO/chip/lm4/gpio.o
                0x0000000000001dd0                __gpio_l_interrupt
 .text.__gpio_m_interrupt
                0x0000000000001de4       0x14 build/samus/RO/chip/lm4/gpio.o
                0x0000000000001de4                __gpio_m_interrupt
 .text.__gpio_n_interrupt
                0x0000000000001df8       0x14 build/samus/RO/chip/lm4/gpio.o
                0x0000000000001df8                __gpio_n_interrupt
 .text.__gpio_p_interrupt
                0x0000000000001e0c       0x14 build/samus/RO/chip/lm4/gpio.o
                0x0000000000001e0c                __gpio_p_interrupt
 .text.__gpio_q_interrupt
                0x0000000000001e20       0x14 build/samus/RO/chip/lm4/gpio.o
                0x0000000000001e20                __gpio_q_interrupt
 .text.irq_0_handler
                0x0000000000001e34       0x14 build/samus/RO/chip/lm4/gpio.o
                0x0000000000001e34                irq_0_handler
 .text.irq_1_handler
                0x0000000000001e48       0x14 build/samus/RO/chip/lm4/gpio.o
                0x0000000000001e48                irq_1_handler
 .text.irq_2_handler
                0x0000000000001e5c       0x14 build/samus/RO/chip/lm4/gpio.o
                0x0000000000001e5c                irq_2_handler
 .text.irq_3_handler
                0x0000000000001e70       0x14 build/samus/RO/chip/lm4/gpio.o
                0x0000000000001e70                irq_3_handler
 .text.irq_4_handler
                0x0000000000001e84       0x14 build/samus/RO/chip/lm4/gpio.o
                0x0000000000001e84                irq_4_handler
 .text.irq_30_handler
                0x0000000000001e98       0x14 build/samus/RO/chip/lm4/gpio.o
                0x0000000000001e98                irq_30_handler
 .text.irq_31_handler
                0x0000000000001eac       0x14 build/samus/RO/chip/lm4/gpio.o
                0x0000000000001eac                irq_31_handler
 .text.irq_32_handler
                0x0000000000001ec0       0x14 build/samus/RO/chip/lm4/gpio.o
                0x0000000000001ec0                irq_32_handler
 .text.irq_54_handler
                0x0000000000001ed4       0x14 build/samus/RO/chip/lm4/gpio.o
                0x0000000000001ed4                irq_54_handler
 .text.irq_56_handler
                0x0000000000001ee8       0x14 build/samus/RO/chip/lm4/gpio.o
                0x0000000000001ee8                irq_56_handler
 .text.irq_111_handler
                0x0000000000001efc       0x14 build/samus/RO/chip/lm4/gpio.o
                0x0000000000001efc                irq_111_handler
 .text.irq_112_handler
                0x0000000000001f10       0x14 build/samus/RO/chip/lm4/gpio.o
                0x0000000000001f10                irq_112_handler
 .text.irq_116_handler
                0x0000000000001f24       0x14 build/samus/RO/chip/lm4/gpio.o
                0x0000000000001f24                irq_116_handler
 .text.irq_124_handler
                0x0000000000001f38       0x14 build/samus/RO/chip/lm4/gpio.o
                0x0000000000001f38                irq_124_handler
 .text.update_prescaler
                0x0000000000001f4c       0x1c build/samus/RO/chip/lm4/hwtimer.o
 .text.__hw_clock_event_set
                0x0000000000001f68       0x1c build/samus/RO/chip/lm4/hwtimer.o
                0x0000000000001f68                __hw_clock_event_set
 .text.__hw_clock_event_get
                0x0000000000001f84        0xc build/samus/RO/chip/lm4/hwtimer.o
                0x0000000000001f84                __hw_clock_event_get
 .text.__hw_clock_event_clear
                0x0000000000001f90       0x10 build/samus/RO/chip/lm4/hwtimer.o
                0x0000000000001f90                __hw_clock_event_clear
 .text.__hw_clock_source_read
                0x0000000000001fa0        0xc build/samus/RO/chip/lm4/hwtimer.o
                0x0000000000001fa0                __hw_clock_source_read
 .text.__hw_clock_source_set
                0x0000000000001fac        0xc build/samus/RO/chip/lm4/hwtimer.o
                0x0000000000001fac                __hw_clock_source_set
 .text.__hw_clock_source_irq
                0x0000000000001fb8       0x14 build/samus/RO/chip/lm4/hwtimer.o
                0x0000000000001fb8                __hw_clock_source_irq
 .text.irq_94_handler
                0x0000000000001fcc       0x14 build/samus/RO/chip/lm4/hwtimer.o
                0x0000000000001fcc                irq_94_handler
 .text.__hw_clock_source_init
                0x0000000000001fe0       0x60 build/samus/RO/chip/lm4/hwtimer.o
                0x0000000000001fe0                __hw_clock_source_init
 .text.lm4_i2c_addr
                0x0000000000002040       0x12 build/samus/RO/chip/lm4/i2c.o
 *fill*         0x0000000000002052        0x2 
 .text.i2c_freq_changed
                0x0000000000002054       0x50 build/samus/RO/chip/lm4/i2c.o
 .text.i2c_init
                0x00000000000020a4       0x90 build/samus/RO/chip/lm4/i2c.o
 .text.i2c_do_work
                0x0000000000002134       0xe4 build/samus/RO/chip/lm4/i2c.o
                0x0000000000002134                i2c_do_work
 .text.handle_interrupt
                0x0000000000002218       0x44 build/samus/RO/chip/lm4/i2c.o
 .text.i2c_raw_get_scl
                0x000000000000225c       0x3e build/samus/RO/chip/lm4/i2c.o
                0x000000000000225c                i2c_raw_get_scl
 .text.i2c_raw_get_sda
                0x000000000000229a       0x3e build/samus/RO/chip/lm4/i2c.o
                0x000000000000229a                i2c_raw_get_sda
 .text.i2c_get_line_levels
                0x00000000000022d8       0x10 build/samus/RO/chip/lm4/i2c.o
                0x00000000000022d8                i2c_get_line_levels
 .text.chip_i2c_xfer
                0x00000000000022e8      0x178 build/samus/RO/chip/lm4/i2c.o
                0x00000000000022e8                chip_i2c_xfer
 .text.i2c_set_timeout
                0x0000000000002460       0x1c build/samus/RO/chip/lm4/i2c.o
                0x0000000000002460                i2c_set_timeout
 .text.i2c0_interrupt
                0x000000000000247c        0x6 build/samus/RO/chip/lm4/i2c.o
                0x000000000000247c                i2c0_interrupt
 .text.i2c1_interrupt
                0x0000000000002482        0x6 build/samus/RO/chip/lm4/i2c.o
                0x0000000000002482                i2c1_interrupt
 .text.i2c2_interrupt
                0x0000000000002488        0x6 build/samus/RO/chip/lm4/i2c.o
                0x0000000000002488                i2c2_interrupt
 .text.i2c3_interrupt
                0x000000000000248e        0x6 build/samus/RO/chip/lm4/i2c.o
                0x000000000000248e                i2c3_interrupt
 .text.i2c4_interrupt
                0x0000000000002494        0x6 build/samus/RO/chip/lm4/i2c.o
                0x0000000000002494                i2c4_interrupt
 .text.i2c5_interrupt
                0x000000000000249a        0x6 build/samus/RO/chip/lm4/i2c.o
                0x000000000000249a                i2c5_interrupt
 .text.irq_8_handler
                0x00000000000024a0       0x14 build/samus/RO/chip/lm4/i2c.o
                0x00000000000024a0                irq_8_handler
 .text.irq_37_handler
                0x00000000000024b4       0x14 build/samus/RO/chip/lm4/i2c.o
                0x00000000000024b4                irq_37_handler
 .text.irq_68_handler
                0x00000000000024c8       0x14 build/samus/RO/chip/lm4/i2c.o
                0x00000000000024c8                irq_68_handler
 .text.irq_69_handler
                0x00000000000024dc       0x14 build/samus/RO/chip/lm4/i2c.o
                0x00000000000024dc                irq_69_handler
 .text.irq_109_handler
                0x00000000000024f0       0x14 build/samus/RO/chip/lm4/i2c.o
                0x00000000000024f0                irq_109_handler
 .text.irq_110_handler
                0x0000000000002504       0x14 build/samus/RO/chip/lm4/i2c.o
                0x0000000000002504                irq_110_handler
 .text.jtag_pre_init
                0x0000000000002518       0xb8 build/samus/RO/chip/lm4/jtag.o
                0x0000000000002518                jtag_pre_init
 .text.jtag_interrupt
                0x00000000000025d0       0x24 build/samus/RO/chip/lm4/jtag.o
                0x00000000000025d0                jtag_interrupt
 .text.keyboard_raw_init
                0x00000000000025f4       0x9c build/samus/RO/chip/lm4/keyboard_raw.o
                0x00000000000025f4                keyboard_raw_init
 .text.keyboard_raw_task_start
                0x0000000000002690        0x6 build/samus/RO/chip/lm4/keyboard_raw.o
                0x0000000000002690                keyboard_raw_task_start
 *fill*         0x0000000000002696        0x2 
 .text.keyboard_raw_drive_column
                0x0000000000002698       0x38 build/samus/RO/chip/lm4/keyboard_raw.o
                0x0000000000002698                keyboard_raw_drive_column
 .text.keyboard_raw_read_rows
                0x00000000000026d0       0x10 build/samus/RO/chip/lm4/keyboard_raw.o
                0x00000000000026d0                keyboard_raw_read_rows
 .text.keyboard_raw_enable_interrupt
                0x00000000000026e0       0x1c build/samus/RO/chip/lm4/keyboard_raw.o
                0x00000000000026e0                keyboard_raw_enable_interrupt
 .text.keyboard_raw_interrupt
                0x00000000000026fc       0x18 build/samus/RO/chip/lm4/keyboard_raw.o
                0x00000000000026fc                keyboard_raw_interrupt
 .text.irq_55_handler
                0x0000000000002714       0x14 build/samus/RO/chip/lm4/keyboard_raw.o
                0x0000000000002714                irq_55_handler
 .text.lpc_send_response_packet
                0x0000000000002728       0x30 build/samus/RO/chip/lm4/lpc.o
 .text.lpc_send_response
                0x0000000000002758       0x78 build/samus/RO/chip/lm4/lpc.o
 .text.lpc_generate_sci
                0x00000000000027d0       0x2c build/samus/RO/chip/lm4/lpc.o
 .text.lpc_sysjump
                0x00000000000027fc       0x14 build/samus/RO/chip/lm4/lpc.o
 .text.lpc_get_protocol_info
                0x0000000000002810       0x32 build/samus/RO/chip/lm4/lpc.o
 .text.lpc_tick
                0x0000000000002842        0x6 build/samus/RO/chip/lm4/lpc.o
 .text.update_host_event_status
                0x0000000000002848       0xc8 build/samus/RO/chip/lm4/lpc.o
 .text.lpc_init
                0x0000000000002910      0x16c build/samus/RO/chip/lm4/lpc.o
 .text.lpc_resume
                0x0000000000002a7c       0x28 build/samus/RO/chip/lm4/lpc.o
 .text.lpc_get_memmap_range
                0x0000000000002aa4        0x8 build/samus/RO/chip/lm4/lpc.o
                0x0000000000002aa4                lpc_get_memmap_range
 .text.lpc_keyboard_has_char
                0x0000000000002aac       0x10 build/samus/RO/chip/lm4/lpc.o
                0x0000000000002aac                lpc_keyboard_has_char
 .text.lpc_keyboard_input_pending
                0x0000000000002abc       0x10 build/samus/RO/chip/lm4/lpc.o
                0x0000000000002abc                lpc_keyboard_input_pending
 .text.lpc_keyboard_put_char
                0x0000000000002acc       0x30 build/samus/RO/chip/lm4/lpc.o
                0x0000000000002acc                lpc_keyboard_put_char
 .text.lpc_keyboard_clear_buffer
                0x0000000000002afc       0x20 build/samus/RO/chip/lm4/lpc.o
                0x0000000000002afc                lpc_keyboard_clear_buffer
 .text.lpc_keyboard_resume_irq
                0x0000000000002b1c       0x2c build/samus/RO/chip/lm4/lpc.o
                0x0000000000002b1c                lpc_keyboard_resume_irq
 .text.lpc_comx_has_char
                0x0000000000002b48       0x10 build/samus/RO/chip/lm4/lpc.o
                0x0000000000002b48                lpc_comx_has_char
 .text.lpc_comx_get_char
                0x0000000000002b58        0xc build/samus/RO/chip/lm4/lpc.o
                0x0000000000002b58                lpc_comx_get_char
 .text.lpc_comx_put_char
                0x0000000000002b64        0xc build/samus/RO/chip/lm4/lpc.o
                0x0000000000002b64                lpc_comx_put_char
 .text.lpc_set_host_event_state
                0x0000000000002b70       0x14 build/samus/RO/chip/lm4/lpc.o
                0x0000000000002b70                lpc_set_host_event_state
 .text.lpc_query_host_event_state
                0x0000000000002b84       0x48 build/samus/RO/chip/lm4/lpc.o
                0x0000000000002b84                lpc_query_host_event_state
 .text.lpc_set_host_event_mask
                0x0000000000002bcc       0x10 build/samus/RO/chip/lm4/lpc.o
                0x0000000000002bcc                lpc_set_host_event_mask
 .text.lpc_get_host_event_mask
                0x0000000000002bdc       0x10 build/samus/RO/chip/lm4/lpc.o
                0x0000000000002bdc                lpc_get_host_event_mask
 .text.lpc_set_acpi_status_mask
                0x0000000000002bec       0x1c build/samus/RO/chip/lm4/lpc.o
                0x0000000000002bec                lpc_set_acpi_status_mask
 .text.lpc_clear_acpi_status_mask
                0x0000000000002c08       0x1c build/samus/RO/chip/lm4/lpc.o
                0x0000000000002c08                lpc_clear_acpi_status_mask
 .text.lpc_get_pltrst_asserted
                0x0000000000002c24       0x10 build/samus/RO/chip/lm4/lpc.o
                0x0000000000002c24                lpc_get_pltrst_asserted
 .text.lpc_interrupt
                0x0000000000002c34      0x230 build/samus/RO/chip/lm4/lpc.o
                0x0000000000002c34                lpc_interrupt
 .text.irq_108_handler
                0x0000000000002e64       0x14 build/samus/RO/chip/lm4/lpc.o
                0x0000000000002e64                irq_108_handler
 .text.peci_freq_changed
                0x0000000000002e78       0x58 build/samus/RO/chip/lm4/peci.o
 .text.peci_init
                0x0000000000002ed0       0x2c build/samus/RO/chip/lm4/peci.o
 .text.peci_get_cpu_temp
                0x0000000000002efc       0x1c build/samus/RO/chip/lm4/peci.o
                0x0000000000002efc                peci_get_cpu_temp
 .text.peci_temp_sensor_poll
                0x0000000000002f18       0x1c build/samus/RO/chip/lm4/peci.o
 .text.command_peci_temp
                0x0000000000002f34       0x3c build/samus/RO/chip/lm4/peci.o
 .text.peci_temp_sensor_get_val
                0x0000000000002f70       0x48 build/samus/RO/chip/lm4/peci.o
                0x0000000000002f70                peci_temp_sensor_get_val
 .text.pwm_init
                0x0000000000002fb8       0x14 build/samus/RO/chip/lm4/pwm.o
 .text.pwm_enable
                0x0000000000002fcc       0x10 build/samus/RO/chip/lm4/pwm.o
                0x0000000000002fcc                pwm_enable
 .text.pwm_get_enabled
                0x0000000000002fdc       0x10 build/samus/RO/chip/lm4/pwm.o
                0x0000000000002fdc                pwm_get_enabled
 .text.pwm_set_duty
                0x0000000000002fec       0x3c build/samus/RO/chip/lm4/pwm.o
                0x0000000000002fec                pwm_set_duty
 .text.pwm_get_duty
                0x0000000000003028       0x24 build/samus/RO/chip/lm4/pwm.o
                0x0000000000003028                pwm_get_duty
 .text.wait_for_hibctl_wc
                0x000000000000304c       0x20 build/samus/RO/chip/lm4/system.o
 .text.hibdata_write
                0x000000000000306c       0x28 build/samus/RO/chip/lm4/system.o
 .text.system_get_rtc_sec_subsec
                0x0000000000003094       0x30 build/samus/RO/chip/lm4/system.o
                0x0000000000003094                system_get_rtc_sec_subsec
 .text.set_hibernate_rtc_match_time
                0x00000000000030c4       0x5c build/samus/RO/chip/lm4/system.o
 .text.hibernate
                0x0000000000003120       0x64 build/samus/RO/chip/lm4/system.o
 .text.system_rtc_get_value
                0x0000000000003184       0x26 build/samus/RO/chip/lm4/system.o
 *fill*         0x00000000000031aa        0x2 
 .text.system_get_rtc
                0x00000000000031ac       0x2c build/samus/RO/chip/lm4/system.o
                0x00000000000031ac                system_get_rtc
 .text.system_set_rtc
                0x00000000000031d8       0x18 build/samus/RO/chip/lm4/system.o
                0x00000000000031d8                system_set_rtc
 .text.command_system_rtc
                0x00000000000031f0       0x60 build/samus/RO/chip/lm4/system.o
 .text.system_rtc_set_value
                0x0000000000003250       0x20 build/samus/RO/chip/lm4/system.o
 .text.system_set_rtc_alarm
                0x0000000000003270       0x34 build/samus/RO/chip/lm4/system.o
                0x0000000000003270                system_set_rtc_alarm
 .text.system_reset_rtc_alarm
                0x00000000000032a4       0x20 build/samus/RO/chip/lm4/system.o
                0x00000000000032a4                system_reset_rtc_alarm
 .text.__hibernate_irq
                0x00000000000032c4        0x4 build/samus/RO/chip/lm4/system.o
                0x00000000000032c4                __hibernate_irq
 .text.irq_43_handler
                0x00000000000032c8       0x14 build/samus/RO/chip/lm4/system.o
                0x00000000000032c8                irq_43_handler
 .text.system_enable_hib_interrupt
                0x00000000000032dc        0x6 build/samus/RO/chip/lm4/system.o
                0x00000000000032dc                system_enable_hib_interrupt
 .text.system_hibernate
                0x00000000000032e2       0x14 build/samus/RO/chip/lm4/system.o
                0x00000000000032e2                system_hibernate
 *fill*         0x00000000000032f6        0x2 
 .text.system_pre_init
                0x00000000000032f8      0x1c0 build/samus/RO/chip/lm4/system.o
                0x00000000000032f8                system_pre_init
 .text.system_reset
                0x00000000000034b8       0x6c build/samus/RO/chip/lm4/system.o
                0x00000000000034b8                system_reset
 .text.system_get_chip_vendor
                0x0000000000003524        0x8 build/samus/RO/chip/lm4/system.o
                0x0000000000003524                system_get_chip_vendor
 .text.system_get_chip_id_string
                0x000000000000352c       0x54 build/samus/RO/chip/lm4/system.o
                0x000000000000352c                system_get_chip_id_string
 .text.system_get_raw_chip_name
                0x0000000000003580       0x5c build/samus/RO/chip/lm4/system.o
                0x0000000000003580                system_get_raw_chip_name
 .text.system_get_chip_name
                0x00000000000035dc       0x3c build/samus/RO/chip/lm4/system.o
                0x00000000000035dc                system_get_chip_name
 .text.system_get_vbnvcontext
                0x0000000000003618        0x4 build/samus/RO/chip/lm4/system.o
                0x0000000000003618                system_get_vbnvcontext
 .text.system_set_vbnvcontext
                0x000000000000361c        0x4 build/samus/RO/chip/lm4/system.o
                0x000000000000361c                system_set_vbnvcontext
 .text.system_get_chip_revision
                0x0000000000003620       0x24 build/samus/RO/chip/lm4/system.o
                0x0000000000003620                system_get_chip_revision
 .text.uart_init_done
                0x0000000000003644        0xc build/samus/RO/chip/lm4/uart.o
                0x0000000000003644                uart_init_done
 .text.uart_tx_start
                0x0000000000003650       0x3c build/samus/RO/chip/lm4/uart.o
                0x0000000000003650                uart_tx_start
 .text.uart_tx_stop
                0x000000000000368c       0x2c build/samus/RO/chip/lm4/uart.o
                0x000000000000368c                uart_tx_stop
 .text.uart_tx_flush
                0x00000000000036b8       0x10 build/samus/RO/chip/lm4/uart.o
                0x00000000000036b8                uart_tx_flush
 .text.uart_tx_ready
                0x00000000000036c8       0x14 build/samus/RO/chip/lm4/uart.o
                0x00000000000036c8                uart_tx_ready
 .text.uart_tx_in_progress
                0x00000000000036dc       0x10 build/samus/RO/chip/lm4/uart.o
                0x00000000000036dc                uart_tx_in_progress
 .text.uart_rx_available
                0x00000000000036ec       0x14 build/samus/RO/chip/lm4/uart.o
                0x00000000000036ec                uart_rx_available
 .text.uart_write_char
                0x0000000000003700       0x18 build/samus/RO/chip/lm4/uart.o
                0x0000000000003700                uart_write_char
 .text.uart_read_char
                0x0000000000003718        0xc build/samus/RO/chip/lm4/uart.o
                0x0000000000003718                uart_read_char
 .text.uart_ec_interrupt
                0x0000000000003724       0x18 build/samus/RO/chip/lm4/uart.o
                0x0000000000003724                uart_ec_interrupt
 .text.irq_5_handler
                0x000000000000373c       0x14 build/samus/RO/chip/lm4/uart.o
                0x000000000000373c                irq_5_handler
 .text.uart_host_interrupt
                0x0000000000003750       0x50 build/samus/RO/chip/lm4/uart.o
                0x0000000000003750                uart_host_interrupt
 .text.irq_33_handler
                0x00000000000037a0       0x14 build/samus/RO/chip/lm4/uart.o
                0x00000000000037a0                irq_33_handler
 .text.uart_init
                0x00000000000037b4       0xa8 build/samus/RO/chip/lm4/uart.o
                0x00000000000037b4                uart_init
 .text.uart_enter_dsleep
                0x000000000000385c       0x44 build/samus/RO/chip/lm4/uart.o
                0x000000000000385c                uart_enter_dsleep
 .text.uart_exit_dsleep
                0x00000000000038a0       0x50 build/samus/RO/chip/lm4/uart.o
                0x00000000000038a0                uart_exit_dsleep
 .text.uart_deepsleep_interrupt
                0x00000000000038f0       0x10 build/samus/RO/chip/lm4/uart.o
                0x00000000000038f0                uart_deepsleep_interrupt
 .text.uart_comx_enable
                0x0000000000003900       0x1c build/samus/RO/chip/lm4/uart.o
                0x0000000000003900                uart_comx_enable
 .text.uart_comx_putc_ok
                0x000000000000391c       0x24 build/samus/RO/chip/lm4/uart.o
                0x000000000000391c                uart_comx_putc_ok
 .text.uart_comx_putc
                0x0000000000003940        0xc build/samus/RO/chip/lm4/uart.o
                0x0000000000003940                uart_comx_putc
 .text.watchdog_reload
                0x000000000000394c       0x48 build/samus/RO/chip/lm4/watchdog.o
                0x000000000000394c                watchdog_reload
 .text.watchdog_freq_changed
                0x0000000000003994       0x24 build/samus/RO/chip/lm4/watchdog.o
 .text.irq_18_handler
                0x00000000000039b8       0x1a build/samus/RO/chip/lm4/watchdog.o
                0x00000000000039b8                irq_18_handler
 *fill*         0x00000000000039d2        0x2 
 .text.watchdog_init
                0x00000000000039d4       0x4c build/samus/RO/chip/lm4/watchdog.o
                0x00000000000039d4                watchdog_init
 .text.acpi_disable_burst_deferred
                0x0000000000003a20       0x24 build/samus/RO/common/acpi.o
 .text.acpi_ap_to_ec
                0x0000000000003a44      0x1c8 build/samus/RO/common/acpi.o
                0x0000000000003a44                acpi_ap_to_ec
 .text.command_adc
                0x0000000000003c0c       0x84 build/samus/RO/common/adc.o
 .text.als_task_disable
                0x0000000000003c90       0x10 build/samus/RO/common/als.o
 .text.als_task_enable
                0x0000000000003ca0       0x44 build/samus/RO/common/als.o
 .text.als_task_init
                0x0000000000003ce4       0x1a build/samus/RO/common/als.o
 *fill*         0x0000000000003cfe        0x2 
 .text.als_read
                0x0000000000003d00       0x14 build/samus/RO/common/als.o
                0x0000000000003d00                als_read
 .text.als_task
                0x0000000000003d14       0x34 build/samus/RO/common/als.o
                0x0000000000003d14                als_task
 .text.print_item_name
                0x0000000000003d48       0x10 build/samus/RO/common/battery.o
 .text.check_print_error
                0x0000000000003d58       0x2c build/samus/RO/common/battery.o
 .text.pending_cutoff_deferred
                0x0000000000003d84       0x24 build/samus/RO/common/battery.o
 .text.clear_pending_cutoff
                0x0000000000003da8       0x28 build/samus/RO/common/battery.o
 .text.check_pending_cutoff
                0x0000000000003dd0       0x30 build/samus/RO/common/battery.o
 .text.battery_command_cutoff
                0x0000000000003e00       0x54 build/samus/RO/common/battery.o
 .text.command_cutoff
                0x0000000000003e54       0x44 build/samus/RO/common/battery.o
 .text.print_battery_debug
                0x0000000000003e98      0x35c build/samus/RO/common/battery.o
                0x0000000000003e98                print_battery_debug
 .text.command_battery
                0x00000000000041f4       0x7c build/samus/RO/common/battery.o
 .text.battery_is_cut_off
                0x0000000000004270       0x10 build/samus/RO/common/battery.o
                0x0000000000004270                battery_is_cut_off
 .text.reset_current_limit
                0x0000000000004280       0x10 build/samus/RO/common/charge_state_v2.o
 .text.charge_command_current_limit
                0x0000000000004290       0x24 build/samus/RO/common/charge_state_v2.o
 .text.charger_init
                0x00000000000042b4       0x1c build/samus/RO/common/charge_state_v2.o
                0x00000000000042b4                charger_init
 .text.problem  0x00000000000042d0       0x6c build/samus/RO/common/charge_state_v2.o
 .text.dump_charge_state
                0x000000000000433c      0x1dc build/samus/RO/common/charge_state_v2.o
 .text.charge_request
                0x0000000000004518       0xac build/samus/RO/common/charge_state_v2.o
 .text.charge_command_charge_state
                0x00000000000045c4      0x1a4 build/samus/RO/common/charge_state_v2.o
 .text.command_chgstate
                0x0000000000004768       0x88 build/samus/RO/common/charge_state_v2.o
 .text.charge_wakeup
                0x00000000000047f0        0xc build/samus/RO/common/charge_state_v2.o
 .text.charge_command_charge_control
                0x00000000000047fc       0x74 build/samus/RO/common/charge_state_v2.o
 .text.charger_current_battery_params
                0x0000000000004870        0x8 build/samus/RO/common/charge_state_v2.o
                0x0000000000004870                charger_current_battery_params
 .text.get_desired_input_current
                0x0000000000004878       0x1a build/samus/RO/common/charge_state_v2.o
                0x0000000000004878                get_desired_input_current
 *fill*         0x0000000000004892        0x6 
 .text.charger_task
                0x0000000000004898      0x7f0 build/samus/RO/common/charge_state_v2.o
                0x0000000000004898                charger_task
 .text.charge_want_shutdown
                0x0000000000005088       0x24 build/samus/RO/common/charge_state_v2.o
                0x0000000000005088                charge_want_shutdown
 .text.charge_prevent_power_on
                0x00000000000050ac       0x5c build/samus/RO/common/charge_state_v2.o
                0x00000000000050ac                charge_prevent_power_on
 .text.charge_get_state
                0x0000000000005108       0x38 build/samus/RO/common/charge_state_v2.o
                0x0000000000005108                charge_get_state
 .text.charge_get_flags
                0x0000000000005140       0x24 build/samus/RO/common/charge_state_v2.o
                0x0000000000005140                charge_get_flags
 .text.charge_get_percent
                0x0000000000005164       0x14 build/samus/RO/common/charge_state_v2.o
                0x0000000000005164                charge_get_percent
 .text.charge_temp_sensor_get_val
                0x0000000000005178       0x20 build/samus/RO/common/charge_state_v2.o
                0x0000000000005178                charge_temp_sensor_get_val
 .text.charge_set_input_current_limit
                0x0000000000005198       0x2c build/samus/RO/common/charge_state_v2.o
                0x0000000000005198                charge_set_input_current_limit
 .text.dptf_disable_hook
                0x00000000000051c4       0x10 build/samus/RO/common/charger.o
 .text.print_item_name
                0x00000000000051d4       0x10 build/samus/RO/common/charger.o
 .text.check_print_error
                0x00000000000051e4       0x28 build/samus/RO/common/charger.o
 .text.dptf_set_charging_current_limit
                0x000000000000520c       0x10 build/samus/RO/common/charger.o
                0x000000000000520c                dptf_set_charging_current_limit
 .text.dptf_get_charging_current_limit
                0x000000000000521c        0xc build/samus/RO/common/charger.o
                0x000000000000521c                dptf_get_charging_current_limit
 .text.charger_closest_voltage
                0x0000000000005228       0x28 build/samus/RO/common/charger.o
                0x0000000000005228                charger_closest_voltage
 .text.charger_closest_current
                0x0000000000005250       0x3c build/samus/RO/common/charger.o
                0x0000000000005250                charger_closest_current
 .text.charger_get_params
                0x000000000000528c       0x64 build/samus/RO/common/charger.o
                0x000000000000528c                charger_get_params
 .text.print_charger_debug
                0x00000000000052f0      0x140 build/samus/RO/common/charger.o
                0x00000000000052f0                print_charger_debug
 .text.command_charger
                0x0000000000005430       0xbc build/samus/RO/common/charger.o
 .text.command_apreset
                0x00000000000054ec       0x4c build/samus/RO/common/chipset.o
 .text.command_apshutdown
                0x0000000000005538        0xa build/samus/RO/common/chipset.o
 *fill*         0x0000000000005542        0x2 
 .text.command_history
                0x0000000000005544       0x50 build/samus/RO/common/console.o
 .text.find_command
                0x0000000000005594       0x48 build/samus/RO/common/console.o
 .text.console_putc
                0x00000000000055dc        0x4 build/samus/RO/common/console.o
 .text.repeat_char
                0x00000000000055e0       0x14 build/samus/RO/common/console.o
 .text.command_help
                0x00000000000055f4      0x138 build/samus/RO/common/console.o
 .text.load_history
                0x000000000000572c       0x74 build/samus/RO/common/console.o
 .text.console_has_input
                0x00000000000057a0       0x1e build/samus/RO/common/console.o
                0x00000000000057a0                console_has_input
 *fill*         0x00000000000057be        0x2 
 .text.console_task
                0x00000000000057c0      0x530 build/samus/RO/common/console.o
                0x00000000000057c0                console_task
 .text.ucd_lb_queue_put
                0x0000000000005cf0       0x20 build/samus/RO/common/console_output.o
                0x0000000000005cf0                ucd_lb_queue_put
 .text.ucd_lb_queue_init
                0x0000000000005d10        0xc build/samus/RO/common/console_output.o
                0x0000000000005d10                ucd_lb_queue_init
 .text.ucd_lb_queue_puts
                0x0000000000005d1c       0x1c build/samus/RO/common/console_output.o
                0x0000000000005d1c                ucd_lb_queue_puts
 .text.cputs    0x0000000000005d38       0x28 build/samus/RO/common/console_output.o
                0x0000000000005d38                cputs
 .text.cprintf  0x0000000000005d60       0x3c build/samus/RO/common/console_output.o
                0x0000000000005d60                cprintf
 .text.command_ch
                0x0000000000005d9c       0xa8 build/samus/RO/common/console_output.o
 .text.cprints  0x0000000000005e44       0x64 build/samus/RO/common/console_output.o
                0x0000000000005e44                cprints
 .text.cflush   0x0000000000005ea8        0x4 build/samus/RO/common/console_output.o
                0x0000000000005ea8                cflush
 .text.hc_pwm_get_fan_target_rpm
                0x0000000000005eac       0x2c build/samus/RO/common/fan.o
 .text.cc_faninfo
                0x0000000000005ed8      0x154 build/samus/RO/common/fan.o
 .text.pwm_fan_resume
                0x000000000000602c       0x1c build/samus/RO/common/fan.o
 .text.set_enabled
                0x0000000000006048       0x2c build/samus/RO/common/fan.o
 .text.pwm_fan_preserve_state
                0x0000000000006074       0x30 build/samus/RO/common/fan.o
 .text.pwm_fan_second
                0x00000000000060a4       0x64 build/samus/RO/common/fan.o
 .text.set_duty_cycle
                0x0000000000006108       0x44 build/samus/RO/common/fan.o
 .text.cc_fanduty
                0x000000000000614c       0x6c build/samus/RO/common/fan.o
 .text.hc_pwm_set_fan_duty
                0x00000000000061b8       0x5c build/samus/RO/common/fan.o
 .text.hc_pwm_set_fan_target_rpm
                0x0000000000006214       0xd8 build/samus/RO/common/fan.o
 .text.hc_thermal_auto_fan_ctrl
                0x00000000000062ec       0x4c build/samus/RO/common/fan.o
 .text.pwm_fan_S3_S5
                0x0000000000006338       0x44 build/samus/RO/common/fan.o
 .text.pwm_fan_init
                0x000000000000637c       0xa0 build/samus/RO/common/fan.o
 .text.cc_fanauto
                0x000000000000641c       0x54 build/samus/RO/common/fan.o
 .text.fan_percent_to_rpm
                0x0000000000006470       0x2c build/samus/RO/common/fan.o
                0x0000000000006470                fan_percent_to_rpm
 .text.cc_fanset
                0x000000000000649c       0xc4 build/samus/RO/common/fan.o
 .text.fan_set_percent_needed
                0x0000000000006560       0x68 build/samus/RO/common/fan.o
                0x0000000000006560                fan_set_percent_needed
 .text.dptf_get_fan_duty_target
                0x00000000000065c8       0x34 build/samus/RO/common/fan.o
                0x00000000000065c8                dptf_get_fan_duty_target
 .text.dptf_set_fan_duty_target
                0x00000000000065fc       0x44 build/samus/RO/common/fan.o
                0x00000000000065fc                dptf_set_fan_duty_target
 .text.flash_command_get_info
                0x0000000000006640       0x78 build/samus/RO/common/flash.o
 .text.flash_command_region_info
                0x00000000000066b8       0x6e build/samus/RO/common/flash.o
 .text.flash_range_ok
                0x0000000000006726       0x22 build/samus/RO/common/flash.o
                0x0000000000006726                flash_range_ok
 .text.flash_dataptr
                0x0000000000006748       0x1c build/samus/RO/common/flash.o
                0x0000000000006748                flash_dataptr
 .text.flash_is_erased
                0x0000000000006764       0x30 build/samus/RO/common/flash.o
                0x0000000000006764                flash_is_erased
 .text.flash_read
                0x0000000000006794       0x26 build/samus/RO/common/flash.o
                0x0000000000006794                flash_read
 .text.flash_command_read
                0x00000000000067ba       0x50 build/samus/RO/common/flash.o
 .text.flash_write
                0x000000000000680a       0x36 build/samus/RO/common/flash.o
                0x000000000000680a                flash_write
 .text.flash_erase
                0x0000000000006840       0x34 build/samus/RO/common/flash.o
                0x0000000000006840                flash_erase
 .text.flash_protect_at_boot
                0x0000000000006874       0x72 build/samus/RO/common/flash.o
                0x0000000000006874                flash_protect_at_boot
 .text.flash_get_protect
                0x00000000000068e6       0x86 build/samus/RO/common/flash.o
                0x00000000000068e6                flash_get_protect
 .text.command_flash_info
                0x000000000000696c      0x130 build/samus/RO/common/flash.o
 .text.flash_command_write
                0x0000000000006a9c       0x7a build/samus/RO/common/flash.o
 .text.flash_command_erase
                0x0000000000006b16       0x66 build/samus/RO/common/flash.o
 .text.flash_set_protect
                0x0000000000006b7c       0x88 build/samus/RO/common/flash.o
                0x0000000000006b7c                flash_set_protect
 .text.command_flash_wp
                0x0000000000006c04       0x78 build/samus/RO/common/flash.o
 .text.flash_command_protect
                0x0000000000006c7c       0x98 build/samus/RO/common/flash.o
 .text.gesture_chipset_resume
                0x0000000000006d14        0xc build/samus/RO/common/gesture.o
 .text.gesture_chipset_suspend
                0x0000000000006d20       0x18 build/samus/RO/common/gesture.o
 .text.command_tap_info
                0x0000000000006d38       0x84 build/samus/RO/common/gesture.o
 .text.gesture_calc
                0x0000000000006dbc      0x2c0 build/samus/RO/common/gesture.o
                0x0000000000006dbc                gesture_calc
 .text.last_val_changed
                0x000000000000707c       0x6c build/samus/RO/common/gpio.o
 .text.find_signal_by_name
                0x00000000000070e8       0x3c build/samus/RO/common/gpio.o
 .text.gpio_command_get
                0x0000000000007124       0x98 build/samus/RO/common/gpio.o
 .text.gpio_command_set
                0x00000000000071bc       0x40 build/samus/RO/common/gpio.o
 .text.command_gpio_get
                0x00000000000071fc       0x94 build/samus/RO/common/gpio.o
 .text.command_gpio_set
                0x0000000000007290       0x54 build/samus/RO/common/gpio.o
 .text.gpio_config_pins
                0x00000000000072e4       0xa0 build/samus/RO/common/gpio.o
                0x00000000000072e4                gpio_config_pins
 .text.gpio_config_module
                0x0000000000007384        0xc build/samus/RO/common/gpio.o
                0x0000000000007384                gpio_config_module
 .text.gpio_set_flags
                0x0000000000007390       0x14 build/samus/RO/common/gpio.o
                0x0000000000007390                gpio_set_flags
 .text.hook_notify
                0x00000000000073a4       0x60 build/samus/RO/common/hooks.o
                0x00000000000073a4                hook_notify
 .text.hook_call_deferred
                0x0000000000007404       0x78 build/samus/RO/common/hooks.o
                0x0000000000007404                hook_call_deferred
 .text.hook_task
                0x000000000000747c      0x148 build/samus/RO/common/hooks.o
                0x000000000000747c                hook_task
 .text.host_packet_respond
                0x00000000000075c4       0x78 build/samus/RO/common/host_command.o
                0x00000000000075c4                host_packet_respond
 .text.host_command_proto_version
                0x000000000000763c       0x16 build/samus/RO/common/host_command.o
 .text.host_command_hello
                0x0000000000007652       0x3c build/samus/RO/common/host_command.o
 .text.host_command_read_test
                0x000000000000768e       0x64 build/samus/RO/common/host_command.o
 *fill*         0x00000000000076f2        0x2 
 .text.host_command_entering_mode
                0x00000000000076f4       0x28 build/samus/RO/common/host_command.o
 .text.host_command_get_features
                0x000000000000771c       0x26 build/samus/RO/common/host_command.o
 .text.host_command_test_protocol
                0x0000000000007742       0x58 build/samus/RO/common/host_command.o
 *fill*         0x000000000000779a        0x2 
 .text.command_hcdebug
                0x000000000000779c       0x48 build/samus/RO/common/host_command.o
 .text.host_command_get_cmd_versions
                0x00000000000077e4       0x5c build/samus/RO/common/host_command.o
 .text.host_get_memmap
                0x0000000000007840        0xc build/samus/RO/common/host_command.o
                0x0000000000007840                host_get_memmap
 .text.host_send_response
                0x000000000000784c        0x4 build/samus/RO/common/host_command.o
                0x000000000000784c                host_send_response
 .text.host_command_received
                0x0000000000007850       0x38 build/samus/RO/common/host_command.o
                0x0000000000007850                host_command_received
 .text.host_packet_receive
                0x0000000000007888      0x124 build/samus/RO/common/host_command.o
                0x0000000000007888                host_packet_receive
 .text.host_command_process
                0x00000000000079ac      0x12c build/samus/RO/common/host_command.o
                0x00000000000079ac                host_command_process
 .text.host_command_task
                0x0000000000007ad8       0xdc build/samus/RO/common/host_command.o
                0x0000000000007ad8                host_command_task
 .text.pd_host_command
                0x0000000000007bb4      0x254 build/samus/RO/common/host_command_master.o
                0x0000000000007bb4                pd_host_command
 .text.command_pd_mcu
                0x0000000000007e08       0xb8 build/samus/RO/common/host_command_master.o
 .text.pd_exchange_status
                0x0000000000007ec0       0xf4 build/samus/RO/common/host_command_pd.o
 .text.pd_get_active_charge_port
                0x0000000000007fb4        0xc build/samus/RO/common/host_command_pd.o
                0x0000000000007fb4                pd_get_active_charge_port
 .text.host_command_pd_send_status
                0x0000000000007fc0       0x14 build/samus/RO/common/host_command_pd.o
                0x0000000000007fc0                host_command_pd_send_status
 .text.pd_command_task
                0x0000000000007fd4       0x1a build/samus/RO/common/host_command_pd.o
                0x0000000000007fd4                pd_command_task
 *fill*         0x0000000000007fee        0x2 
 .text.host_event_get_b
                0x0000000000007ff0       0x24 build/samus/RO/common/host_event_commands.o
 .text.host_event_set_smi_mask
                0x0000000000008014       0x22 build/samus/RO/common/host_event_commands.o
 .text.host_event_set_sci_mask
                0x0000000000008036       0x22 build/samus/RO/common/host_event_commands.o
 .text.host_event_set_wake_mask
                0x0000000000008058       0x22 build/samus/RO/common/host_event_commands.o
 .text.host_event_get_smi_mask
                0x000000000000807a       0x26 build/samus/RO/common/host_event_commands.o
 .text.host_event_get_sci_mask
                0x00000000000080a0       0x26 build/samus/RO/common/host_event_commands.o
 .text.host_event_get_wake_mask
                0x00000000000080c6       0x26 build/samus/RO/common/host_event_commands.o
 .text.host_clear_events_b
                0x00000000000080ec       0x34 build/samus/RO/common/host_event_commands.o
 .text.host_event_clear_b
                0x0000000000008120       0x20 build/samus/RO/common/host_event_commands.o
 .text.host_get_next_event
                0x0000000000008140       0x34 build/samus/RO/common/host_event_commands.o
 .text.host_get_events
                0x0000000000008174        0xc build/samus/RO/common/host_event_commands.o
                0x0000000000008174                host_get_events
 .text.host_set_events
                0x0000000000008180       0x5c build/samus/RO/common/host_event_commands.o
                0x0000000000008180                host_set_events
 .text.host_clear_events
                0x00000000000081dc       0x44 build/samus/RO/common/host_event_commands.o
                0x00000000000081dc                host_clear_events
 .text.command_host_event
                0x0000000000008220      0x104 build/samus/RO/common/host_event_commands.o
 .text.host_event_clear
                0x0000000000008324       0x20 build/samus/RO/common/host_event_commands.o
 .text.host_throttle_cpu
                0x0000000000008344       0x10 build/samus/RO/common/host_event_commands.o
                0x0000000000008344                host_throttle_cpu
 .text.i2c_lock.part.0
                0x0000000000008354       0x30 build/samus/RO/common/i2c.o
 .text.i2c_xfer
                0x0000000000008384        0xa build/samus/RO/common/i2c.o
                0x0000000000008384                i2c_xfer
 *fill*         0x000000000000838e        0x2 
 .text.i2c_lock
                0x0000000000008390       0x38 build/samus/RO/common/i2c.o
                0x0000000000008390                i2c_lock
 .text.i2c_command_passthru
                0x00000000000083c8      0x15c build/samus/RO/common/i2c.o
 .text.command_scan
                0x0000000000008524       0xbc build/samus/RO/common/i2c.o
 .text.i2c_prepare_sysjump
                0x00000000000085e0       0x3c build/samus/RO/common/i2c.o
                0x00000000000085e0                i2c_prepare_sysjump
 .text.i2c_read16
                0x000000000000861c       0x5e build/samus/RO/common/i2c.o
                0x000000000000861c                i2c_read16
 .text.i2c_write16
                0x000000000000867a       0x50 build/samus/RO/common/i2c.o
                0x000000000000867a                i2c_write16
 .text.i2c_read8
                0x00000000000086ca       0x44 build/samus/RO/common/i2c.o
                0x00000000000086ca                i2c_read8
 *fill*         0x000000000000870e        0x2 
 .text.i2c_command_read
                0x0000000000008710       0x78 build/samus/RO/common/i2c.o
 .text.i2c_write8
                0x0000000000008788       0x3c build/samus/RO/common/i2c.o
                0x0000000000008788                i2c_write8
 .text.i2c_command_write
                0x00000000000087c4       0x70 build/samus/RO/common/i2c.o
 .text.command_i2cxfer
                0x0000000000008834      0x184 build/samus/RO/common/i2c.o
 .text.i2c_read_string
                0x00000000000089b8       0x74 build/samus/RO/common/i2c.o
                0x00000000000089b8                i2c_read_string
 .text.get_sda_from_i2c_port
                0x0000000000008a2c       0x64 build/samus/RO/common/i2c.o
                0x0000000000008a2c                get_sda_from_i2c_port
 .text.get_scl_from_i2c_port
                0x0000000000008a90       0x60 build/samus/RO/common/i2c.o
                0x0000000000008a90                get_scl_from_i2c_port
 .text.i2c_raw_set_scl
                0x0000000000008af0       0x1c build/samus/RO/common/i2c.o
                0x0000000000008af0                i2c_raw_set_scl
 .text.i2c_raw_set_sda
                0x0000000000008b0c       0x1c build/samus/RO/common/i2c.o
                0x0000000000008b0c                i2c_raw_set_sda
 .text.i2c_raw_mode
                0x0000000000008b28       0xb4 build/samus/RO/common/i2c.o
                0x0000000000008b28                i2c_raw_mode
 .text.i2c_unwedge
                0x0000000000008bdc       0xfc build/samus/RO/common/i2c.o
                0x0000000000008bdc                i2c_unwedge
 .text.kblog_put
                0x0000000000008cd8       0x28 build/samus/RO/common/keyboard_8042.o
 .text.command_codeset
                0x0000000000008d00       0x48 build/samus/RO/common/keyboard_8042.o
 .text.command_typematic
                0x0000000000008d48       0xc8 build/samus/RO/common/keyboard_8042.o
 .text.keyboard_preserve_state
                0x0000000000008e10       0x38 build/samus/RO/common/keyboard_8042.o
 .text.scancode_bytes
                0x0000000000008e48       0x90 build/samus/RO/common/keyboard_8042.o
 .text.command_keyboard_log
                0x0000000000008ed8       0xac build/samus/RO/common/keyboard_8042.o
 .text.command_8042_internal.isra.2
                0x0000000000008f84      0x130 build/samus/RO/common/keyboard_8042.o
 .text.reset_rate_and_delay
                0x00000000000090b4       0x1c build/samus/RO/common/keyboard_8042.o
 .text.i8042_send_to_host
                0x00000000000090d0       0x64 build/samus/RO/common/keyboard_8042.o
 .text.keyboard_host_write
                0x0000000000009134       0x30 build/samus/RO/common/keyboard_8042.o
                0x0000000000009134                keyboard_host_write
 .text.keyboard_clear_buffer
                0x0000000000009164       0x28 build/samus/RO/common/keyboard_8042.o
                0x0000000000009164                keyboard_clear_buffer
 .text.keyboard_enable
                0x000000000000918c       0x50 build/samus/RO/common/keyboard_8042.o
 .text.update_ctl_ram
                0x00000000000091dc       0x68 build/samus/RO/common/keyboard_8042.o
 .text.command_controller_ram
                0x0000000000009244       0x54 build/samus/RO/common/keyboard_8042.o
 .text.keyboard_restore_state
                0x0000000000009298       0x40 build/samus/RO/common/keyboard_8042.o
 .text.command_keyboard
                0x00000000000092d8       0x38 build/samus/RO/common/keyboard_8042.o
 .text.command_8042
                0x0000000000009310      0x134 build/samus/RO/common/keyboard_8042.o
 .text.keyboard_state_changed
                0x0000000000009444      0x1d0 build/samus/RO/common/keyboard_8042.o
                0x0000000000009444                keyboard_state_changed
 .text.keyboard_protocol_task
                0x0000000000009614      0x480 build/samus/RO/common/keyboard_8042.o
                0x0000000000009614                keyboard_protocol_task
 .text.keyboard_update_button
                0x0000000000009a94       0xc0 build/samus/RO/common/keyboard_8042.o
                0x0000000000009a94                keyboard_update_button
 .text.keyboard_power_button
                0x0000000000009b54       0x12 build/samus/RO/common/keyboard_8042.o
 *fill*         0x0000000000009b66        0x2 
 .text.keyboard_freq_change
                0x0000000000009b68       0x24 build/samus/RO/common/keyboard_scan.o
 .text.read_matrix
                0x0000000000009b8c       0x5c build/samus/RO/common/keyboard_scan.o
 .text.ensure_keyboard_scanned
                0x0000000000009be8       0x58 build/samus/RO/common/keyboard_scan.o
 .text.print_state
                0x0000000000009c40       0x48 build/samus/RO/common/keyboard_scan.o
 .text.command_ksstate
                0x0000000000009c88       0x7c build/samus/RO/common/keyboard_scan.o
 .text.simulate_key
                0x0000000000009d04       0x78 build/samus/RO/common/keyboard_scan.o
 .text.mkbp_command_simulate_key
                0x0000000000009d7c       0x2a build/samus/RO/common/keyboard_scan.o
 *fill*         0x0000000000009da6        0x2 
 .text.command_keyboard_press
                0x0000000000009da8       0xc8 build/samus/RO/common/keyboard_scan.o
 .text.keyboard_scan_enable
                0x0000000000009e70       0x3c build/samus/RO/common/keyboard_scan.o
                0x0000000000009e70                keyboard_scan_enable
 .text.keyboard_lid_change
                0x0000000000009eac       0x18 build/samus/RO/common/keyboard_scan.o
 .text.keyboard_scan_get_boot_key
                0x0000000000009ec4        0xc build/samus/RO/common/keyboard_scan.o
                0x0000000000009ec4                keyboard_scan_get_boot_key
 .text.keyboard_scan_init
                0x0000000000009ed0       0xe4 build/samus/RO/common/keyboard_scan.o
                0x0000000000009ed0                keyboard_scan_init
 .text.keyboard_scan_task
                0x0000000000009fb4      0x32c build/samus/RO/common/keyboard_scan.o
                0x0000000000009fb4                keyboard_scan_task
 .text.controller_write
                0x000000000000a2e0       0x34 build/samus/RO/common/lb_common.o
 .text.setrgb   0x000000000000a314       0xa4 build/samus/RO/common/lb_common.o
 .text.lb_set_rgb
                0x000000000000a3b8       0x2e build/samus/RO/common/lb_common.o
                0x000000000000a3b8                lb_set_rgb
 *fill*         0x000000000000a3e6        0x2 
 .text.lb_get_rgb
                0x000000000000a3e8       0x28 build/samus/RO/common/lb_common.o
                0x000000000000a3e8                lb_get_rgb
 .text.lb_set_brightness
                0x000000000000a410       0x3c build/samus/RO/common/lb_common.o
                0x000000000000a410                lb_set_brightness
 .text.lb_get_brightness
                0x000000000000a44c        0xc build/samus/RO/common/lb_common.o
                0x000000000000a44c                lb_get_brightness
 .text.lb_init  0x000000000000a458       0x8c build/samus/RO/common/lb_common.o
                0x000000000000a458                lb_init
 .text.lb_off   0x000000000000a4e4       0x38 build/samus/RO/common/lb_common.o
                0x000000000000a4e4                lb_off
 .text.lb_on    0x000000000000a51c       0x38 build/samus/RO/common/lb_common.o
                0x000000000000a51c                lb_on
 .text.lb_hc_cmd_dump
                0x000000000000a554       0x8c build/samus/RO/common/lb_common.o
                0x000000000000a554                lb_hc_cmd_dump
 .text.lb_hc_cmd_reg
                0x000000000000a5e0       0x22 build/samus/RO/common/lb_common.o
                0x000000000000a5e0                lb_hc_cmd_reg
 *fill*         0x000000000000a602        0x2 
 .text.hc_force_lid_open
                0x000000000000a604       0x24 build/samus/RO/common/lid_switch.o
 .text.lid_init
                0x000000000000a628       0x28 build/samus/RO/common/lid_switch.o
 .text.lid_switch_open
                0x000000000000a650       0x3c build/samus/RO/common/lid_switch.o
 .text.command_lidopen
                0x000000000000a68c        0xa build/samus/RO/common/lid_switch.o
 *fill*         0x000000000000a696        0x2 
 .text.lid_switch_close
                0x000000000000a698       0x3c build/samus/RO/common/lid_switch.o
 .text.command_lidclose
                0x000000000000a6d4        0xa build/samus/RO/common/lid_switch.o
 *fill*         0x000000000000a6de        0x2 
 .text.lid_change_deferred
                0x000000000000a6e0       0x34 build/samus/RO/common/lid_switch.o
 .text.lid_is_open
                0x000000000000a714        0xc build/samus/RO/common/lid_switch.o
                0x000000000000a714                lid_is_open
 .text.lid_interrupt
                0x000000000000a720       0x10 build/samus/RO/common/lid_switch.o
                0x000000000000a720                lid_interrupt
 .text.sequence_RUN
                0x000000000000a730        0x4 build/samus/RO/common/lightbar.o
 .text.lightbyte_SWAP_COLORS
                0x000000000000a734       0x2c build/samus/RO/common/lightbar.o
 .text.lightbyte_HALT
                0x000000000000a760        0x4 build/samus/RO/common/lightbar.o
 .text.lightbar_preserve_state
                0x000000000000a764       0x14 build/samus/RO/common/lightbar.o
 .text.decode_32
                0x000000000000a778       0x80 build/samus/RO/common/lightbar.o
 .text.lightbyte_SET_RAMP_DELAY
                0x000000000000a7f8        0xc build/samus/RO/common/lightbar.o
 .text.lightbyte_SET_WAIT_DELAY
                0x000000000000a804        0xc build/samus/RO/common/lightbar.o
 .text.decode_8
                0x000000000000a810       0x38 build/samus/RO/common/lightbar.o
 .text.lightbyte_SET_COLOR_RGB
                0x000000000000a848       0x78 build/samus/RO/common/lightbar.o
 .text.lightbyte_SET_COLOR_SINGLE
                0x000000000000a8c0       0x60 build/samus/RO/common/lightbar.o
 .text.lightbyte_JUMP_IF_CHARGING
                0x000000000000a920       0x28 build/samus/RO/common/lightbar.o
 .text.lightbyte_JUMP
                0x000000000000a948        0xc build/samus/RO/common/lightbar.o
 .text.lightbyte_SET_BRIGHTNESS
                0x000000000000a954       0x20 build/samus/RO/common/lightbar.o
 .text.my_blink_from_queue
                0x000000000000a974      0x130 build/samus/RO/common/lightbar.o
 .text.my_led_flash
                0x000000000000aaa4      0x270 build/samus/RO/common/lightbar.o
                0x000000000000aaa4                my_led_flash
 .text.lightbyte_ON
                0x000000000000ad14        0xa build/samus/RO/common/lightbar.o
 *fill*         0x000000000000ad1e        0x2 
 .text.sequence_PROGRAM
                0x000000000000ad20       0xc8 build/samus/RO/common/lightbar.o
 .text.lightbyte_WAIT
                0x000000000000ade8       0x30 build/samus/RO/common/lightbar.o
 .text.sequence_KONAMI
                0x000000000000ae18       0x70 build/samus/RO/common/lightbar.o
 .text.sequence_STOP
                0x000000000000ae88       0x48 build/samus/RO/common/lightbar.o
 .text.lightbyte_GET_COLORS
                0x000000000000aed0       0x24 build/samus/RO/common/lightbar.o
 .text.lightbyte_OFF
                0x000000000000aef4        0xa build/samus/RO/common/lightbar.o
 .text.sequence_S3S5
                0x000000000000aefe        0xa build/samus/RO/common/lightbar.o
 .text.sequence_ERROR
                0x000000000000af08       0x6c build/samus/RO/common/lightbar.o
 .text.sequence_S5S3
                0x000000000000af74       0x22 build/samus/RO/common/lightbar.o
 *fill*         0x000000000000af96        0x2 
 .text.cycle_010
                0x000000000000af98       0x40 build/samus/RO/common/lightbar.o
 .text.pulse_google_colors
                0x000000000000afd8       0xf0 build/samus/RO/common/lightbar.o
 .text.sequence_S0S3
                0x000000000000b0c8       0xa8 build/samus/RO/common/lightbar.o
 .text.get_battery_level
                0x000000000000b170       0xbc build/samus/RO/common/lightbar.o
 .text.lightbyte_JUMP_BATTERY
                0x000000000000b22c       0x44 build/samus/RO/common/lightbar.o
 .text.sequence_S0
                0x000000000000b270       0xf0 build/samus/RO/common/lightbar.o
 .text.sequence_S5
                0x000000000000b360      0x148 build/samus/RO/common/lightbar.o
 .text.sequence_S3S0
                0x000000000000b4a8       0x1c build/samus/RO/common/lightbar.o
 .text.sequence_S3
                0x000000000000b4c4      0x130 build/samus/RO/common/lightbar.o
 .text.sequence_TAP
                0x000000000000b5f4      0x244 build/samus/RO/common/lightbar.o
 .text.ramp_all_leds
                0x000000000000b838       0xa4 build/samus/RO/common/lightbar.o
 .text.lightbyte_CYCLE_ONCE
                0x000000000000b8dc       0x3c build/samus/RO/common/lightbar.o
 .text.lightbyte_CYCLE
                0x000000000000b918       0xc8 build/samus/RO/common/lightbar.o
 .text.lightbyte_RAMP_ONCE
                0x000000000000b9e0       0x34 build/samus/RO/common/lightbar.o
 .text.demo_battery_level
                0x000000000000ba14       0x58 build/samus/RO/common/lightbar.o
                0x000000000000ba14                demo_battery_level
 .text.demo_is_charging
                0x000000000000ba6c       0x20 build/samus/RO/common/lightbar.o
                0x000000000000ba6c                demo_is_charging
 .text.demo_brightness
                0x000000000000ba8c       0x28 build/samus/RO/common/lightbar.o
                0x000000000000ba8c                demo_brightness
 .text.lightbar_task
                0x000000000000bab4      0x178 build/samus/RO/common/lightbar.o
                0x000000000000bab4                lightbar_task
 .text.lightbar_sequence_f
                0x000000000000bc2c       0x58 build/samus/RO/common/lightbar.o
                0x000000000000bc2c                lightbar_sequence_f
 .text.demo_tap
                0x000000000000bc84       0x1c build/samus/RO/common/lightbar.o
                0x000000000000bc84                demo_tap
 .text.lightbar_startup
                0x000000000000bca0       0x18 build/samus/RO/common/lightbar.o
 .text.lightbar_resume
                0x000000000000bcb8       0x1c build/samus/RO/common/lightbar.o
 .text.lightbar_suspend
                0x000000000000bcd4       0x1c build/samus/RO/common/lightbar.o
 .text.lightbar_shutdown
                0x000000000000bcf0        0xc build/samus/RO/common/lightbar.o
 .text.lpc_cmd_lightbar
                0x000000000000bcfc      0x2cc build/samus/RO/common/lightbar.o
 .text.command_lightbar
                0x000000000000bfc8      0x3d0 build/samus/RO/common/lightbar.o
 .text.startup.main
                0x000000000000c398       0xa4 build/samus/RO/common/main.o
                0x000000000000c398                main
 .text.arc_cos  0x000000000000c43c       0x9c build/samus/RO/common/math_util.o
                0x000000000000c43c                arc_cos
 .text.int_sqrtf
                0x000000000000c4d8       0x74 build/samus/RO/common/math_util.o
                0x000000000000c4d8                int_sqrtf
 .text.vector_magnitude
                0x000000000000c54c       0x28 build/samus/RO/common/math_util.o
                0x000000000000c54c                vector_magnitude
 .text.cosine_of_angle_diff
                0x000000000000c574       0x88 build/samus/RO/common/math_util.o
                0x000000000000c574                cosine_of_angle_diff
 .text.rotate   0x000000000000c5fc       0x8c build/samus/RO/common/math_util.o
                0x000000000000c5fc                rotate
 .text.command_mem_dump
                0x000000000000c688      0x144 build/samus/RO/common/memory_commands.o
 .text.command_read_word
                0x000000000000c7cc      0x11c build/samus/RO/common/memory_commands.o
 .text.motion_lid_get_angle
                0x000000000000c8e8       0x14 build/samus/RO/common/motion_lid.o
                0x000000000000c8e8                motion_lid_get_angle
 .text.motion_lid_calc
                0x000000000000c8fc      0x110 build/samus/RO/common/motion_lid.o
                0x000000000000c8fc                motion_lid_calc
 .text.host_cmd_motion_lid
                0x000000000000ca0c       0x3a build/samus/RO/common/motion_lid.o
                0x000000000000ca0c                host_cmd_motion_lid
 *fill*         0x000000000000ca46        0x2 
 .text.host_sensor_id_to_real_sensor
                0x000000000000ca48       0x38 build/samus/RO/common/motion_sense.o
 .text.motion_sense_get_ec_config
                0x000000000000ca80       0x34 build/samus/RO/common/motion_sense.o
 .text.motion_sense_ec_rate
                0x000000000000cab4       0x30 build/samus/RO/common/motion_sense.o
 .text.command_accelrange
                0x000000000000cae4       0xbc build/samus/RO/common/motion_sense.o
 .text.command_accelresolution
                0x000000000000cba0       0xbc build/samus/RO/common/motion_sense.o
 .text.command_accel_read_xyz
                0x000000000000cc5c       0xc4 build/samus/RO/common/motion_sense.o
 .text.command_display_accel_info
                0x000000000000cd20       0x60 build/samus/RO/common/motion_sense.o
 .text.motion_sense_set_motion_intervals
                0x000000000000cd80       0x7c build/samus/RO/common/motion_sense.o
 .text.motion_sense_set_data_rate
                0x000000000000cdfc       0xb0 build/samus/RO/common/motion_sense.o
                0x000000000000cdfc                motion_sense_set_data_rate
 .text.motion_sense_init
                0x000000000000ceac       0x2e build/samus/RO/common/motion_sense.o
 *fill*         0x000000000000ceda        0x2 
 .text.command_accel_init
                0x000000000000cedc       0x5c build/samus/RO/common/motion_sense.o
 .text.motion_sense_switch_sensor_rate
                0x000000000000cf38       0x68 build/samus/RO/common/motion_sense.o
 .text.motion_sense_shutdown
                0x000000000000cfa0       0x60 build/samus/RO/common/motion_sense.o
 .text.motion_sense_suspend
                0x000000000000d000       0x18 build/samus/RO/common/motion_sense.o
 .text.motion_sense_resume
                0x000000000000d018       0x10 build/samus/RO/common/motion_sense.o
 .text.motion_sense_startup
                0x000000000000d028       0x2c build/samus/RO/common/motion_sense.o
 .text.host_cmd_motion_sense
                0x000000000000d054      0x2c4 build/samus/RO/common/motion_sense.o
 .text.command_accel_data_rate
                0x000000000000d318      0x118 build/samus/RO/common/motion_sense.o
 .text.my_lid_angle
                0x000000000000d430        0x4 build/samus/RO/common/motion_sense.o
                0x000000000000d430                my_lid_angle
 .text.motion_sense_task
                0x000000000000d434      0x208 build/samus/RO/common/motion_sense.o
                0x000000000000d434                motion_sense_task
 .text.panic_txchar
                0x000000000000d63c       0x20 build/samus/RO/common/panic_output.o
 .text.command_panicinfo
                0x000000000000d65c       0x58 build/samus/RO/common/panic_output.o
 .text.panic_puts
                0x000000000000d6b4       0x20 build/samus/RO/common/panic_output.o
                0x000000000000d6b4                panic_puts
 .text.panic_printf
                0x000000000000d6d4       0x30 build/samus/RO/common/panic_output.o
                0x000000000000d6d4                panic_printf
 .text.panic_reboot
                0x000000000000d704       0x18 build/samus/RO/common/panic_output.o
                0x000000000000d704                panic_reboot
 .text.panic_assert_fail
                0x000000000000d71c       0x30 build/samus/RO/common/panic_output.o
                0x000000000000d71c                panic_assert_fail
 .text.command_crash
                0x000000000000d74c       0xac build/samus/RO/common/panic_output.o
 .text.host_command_panic_info
                0x000000000000d7f8       0x50 build/samus/RO/common/panic_output.o
                0x000000000000d7f8                host_command_panic_info
 .text.panic_get_data
                0x000000000000d848       0x18 build/samus/RO/common/panic_output.o
                0x000000000000d848                panic_get_data
 .text.panic_init
                0x000000000000d860       0x22 build/samus/RO/common/panic_output.o
 *fill*         0x000000000000d882        0x2 
 .text.port80_command_read
                0x000000000000d884       0xb8 build/samus/RO/common/port80.o
                0x000000000000d884                port80_command_read
 .text.command_port80
                0x000000000000d93c      0x12c build/samus/RO/common/port80.o
 .text.port_80_write
                0x000000000000da68       0x68 build/samus/RO/common/port80.o
                0x000000000000da68                port_80_write
 .text.command_powerbtn
                0x000000000000dad0       0x78 build/samus/RO/common/power_button.o
 .text.power_button_signal_asserted
                0x000000000000db48       0x10 build/samus/RO/common/power_button.o
                0x000000000000db48                power_button_signal_asserted
 .text.power_button_change_deferred
                0x000000000000db58       0x78 build/samus/RO/common/power_button.o
 .text.power_button_init
                0x000000000000dbd0       0x2c build/samus/RO/common/power_button.o
 .text.power_button_is_pressed
                0x000000000000dbfc        0xc build/samus/RO/common/power_button.o
                0x000000000000dbfc                power_button_is_pressed
 .text.power_button_interrupt
                0x000000000000dc08       0x40 build/samus/RO/common/power_button.o
                0x000000000000dc08                power_button_interrupt
 .text.set_pwrbtn_to_pch
                0x000000000000dc48       0x60 build/samus/RO/common/power_button_x86.o
 .text.powerbtn_x86_charge
                0x000000000000dca8       0x1c build/samus/RO/common/power_button_x86.o
 .text.powerbtn_x86_changed
                0x000000000000dcc4       0x94 build/samus/RO/common/power_button_x86.o
 .text.power_button_pch_release
                0x000000000000dd58       0x2c build/samus/RO/common/power_button_x86.o
                0x000000000000dd58                power_button_pch_release
 .text.powerbtn_x86_init
                0x000000000000dd84       0x7c build/samus/RO/common/power_button_x86.o
 .text.power_button_pch_pulse
                0x000000000000de00       0x50 build/samus/RO/common/power_button_x86.o
                0x000000000000de00                power_button_pch_pulse
 .text.powerbtn_x86_lid_change
                0x000000000000de50       0x1a build/samus/RO/common/power_button_x86.o
 *fill*         0x000000000000de6a        0x2 
 .text.power_button_task
                0x000000000000de6c      0x1c8 build/samus/RO/common/power_button_x86.o
                0x000000000000de6c                power_button_task
 .text.snprintf_addchar
                0x000000000000e034       0x1a build/samus/RO/common/printf.o
 *fill*         0x000000000000e04e        0x2 
 .text.vfnprintf
                0x000000000000e050      0x3c4 build/samus/RO/common/printf.o
                0x000000000000e050                vfnprintf
 .text.snprintf
                0x000000000000e414       0x34 build/samus/RO/common/printf.o
                0x000000000000e414                snprintf
 .text.pwm_pin_init
                0x000000000000e448        0x8 build/samus/RO/common/pwm.o
 .text.print_channel
                0x000000000000e450       0x34 build/samus/RO/common/pwm.o
 .text.cc_pwm_duty
                0x000000000000e484       0x84 build/samus/RO/common/pwm.o
 .text.pwm_command_set_keyboard_backlight
                0x000000000000e508       0x10 build/samus/RO/common/pwm_kblight.o
                0x000000000000e508                pwm_command_set_keyboard_backlight
 .text.pwm_kblight_suspend
                0x000000000000e518        0x8 build/samus/RO/common/pwm_kblight.o
 .text.pwm_kblight_shutdown
                0x000000000000e520        0x8 build/samus/RO/common/pwm_kblight.o
 .text.pwm_command_get_keyboard_backlight
                0x000000000000e528       0x1e build/samus/RO/common/pwm_kblight.o
                0x000000000000e528                pwm_command_get_keyboard_backlight
 .text.pwm_kblight_init
                0x000000000000e546       0x44 build/samus/RO/common/pwm_kblight.o
 .text.pwm_kblight_preserve_state
                0x000000000000e58a       0x2c build/samus/RO/common/pwm_kblight.o
 .text.pwm_kblight_lid_change
                0x000000000000e5b6       0x12 build/samus/RO/common/pwm_kblight.o
 .text.command_kblight
                0x000000000000e5c8       0x3c build/samus/RO/common/pwm_kblight.o
 .text.queue_action_null
                0x000000000000e604        0x2 build/samus/RO/common/queue.o
 .text.queue_read_safe
                0x000000000000e606       0x42 build/samus/RO/common/queue.o
 .text.queue_init
                0x000000000000e648       0x74 build/samus/RO/common/queue.o
                0x000000000000e648                queue_init
 .text.queue_is_empty
                0x000000000000e6bc        0xe build/samus/RO/common/queue.o
                0x000000000000e6bc                queue_is_empty
 .text.queue_count
                0x000000000000e6ca        0xa build/samus/RO/common/queue.o
                0x000000000000e6ca                queue_count
 .text.queue_space
                0x000000000000e6d4        0xc build/samus/RO/common/queue.o
                0x000000000000e6d4                queue_space
 .text.queue_advance_head
                0x000000000000e6e0       0x24 build/samus/RO/common/queue.o
                0x000000000000e6e0                queue_advance_head
 .text.queue_advance_tail
                0x000000000000e704       0x24 build/samus/RO/common/queue.o
                0x000000000000e704                queue_advance_tail
 .text.queue_add_unit
                0x000000000000e728       0x3e build/samus/RO/common/queue.o
                0x000000000000e728                queue_add_unit
 .text.queue_add_memcpy
                0x000000000000e766       0x54 build/samus/RO/common/queue.o
                0x000000000000e766                queue_add_memcpy
 *fill*         0x000000000000e7ba        0x2 
 .text.queue_add_units
                0x000000000000e7bc        0xc build/samus/RO/common/queue.o
                0x000000000000e7bc                queue_add_units
 .text.queue_remove_unit
                0x000000000000e7c8       0x3e build/samus/RO/common/queue.o
                0x000000000000e7c8                queue_remove_unit
 .text.queue_remove_memcpy
                0x000000000000e806       0x3c build/samus/RO/common/queue.o
                0x000000000000e806                queue_remove_memcpy
 *fill*         0x000000000000e842        0x2 
 .text.queue_remove_units
                0x000000000000e844        0xc build/samus/RO/common/queue.o
                0x000000000000e844                queue_remove_units
 .text.queue_peek_memcpy
                0x000000000000e850       0x3a build/samus/RO/common/queue.o
                0x000000000000e850                queue_peek_memcpy
 *fill*         0x000000000000e88a        0x2 
 .text.queue_peek_units
                0x000000000000e88c       0x14 build/samus/RO/common/queue.o
                0x000000000000e88c                queue_peek_units
 .text.SHA256_transform
                0x000000000000e8a0      0x148 build/samus/RO/common/sha256.o
 .text.SHA256_init
                0x000000000000e9e8       0x4c build/samus/RO/common/sha256.o
                0x000000000000e9e8                SHA256_init
 .text.SHA256_update
                0x000000000000ea34       0x6c build/samus/RO/common/sha256.o
                0x000000000000ea34                SHA256_update
 .text.SHA256_final
                0x000000000000eaa0       0x86 build/samus/RO/common/sha256.o
                0x000000000000eaa0                SHA256_final
 *fill*         0x000000000000eb26        0x2 
 .text.shared_mem_size
                0x000000000000eb28       0x10 build/samus/RO/common/shared_mem.o
                0x000000000000eb28                shared_mem_size
 .text.command_shmem
                0x000000000000eb38       0x3c build/samus/RO/common/shared_mem.o
 .text.shared_mem_acquire
                0x000000000000eb74       0x38 build/samus/RO/common/shared_mem.o
                0x000000000000eb74                shared_mem_acquire
 .text.shared_mem_release
                0x000000000000ebac        0xc build/samus/RO/common/shared_mem.o
                0x000000000000ebac                shared_mem_release
 .text.switch_update
                0x000000000000ebb8       0x70 build/samus/RO/common/switch.o
 .text.switch_init
                0x000000000000ec28       0x2c build/samus/RO/common/switch.o
 .text.command_mmapinfo
                0x000000000000ec54       0x54 build/samus/RO/common/switch.o
 .text.switch_interrupt
                0x000000000000eca8        0xc build/samus/RO/common/switch.o
                0x000000000000eca8                switch_interrupt
 .text.system_get_image_copy
                0x000000000000ecb4       0x20 build/samus/RO/common/system.o
                0x000000000000ecb4                system_get_image_copy
 .text.command_system_lock
                0x000000000000ecd4       0x10 build/samus/RO/common/system.o
 .text.jump_to_image
                0x000000000000ece4       0x58 build/samus/RO/common/system.o
 .text.command_hibernate
                0x000000000000ed3c       0x60 build/samus/RO/common/system.o
 .text.command_reboot
                0x000000000000ed9c       0xc4 build/samus/RO/common/system.o
 .text.host_command_get_chip_info
                0x000000000000ee60       0x3c build/samus/RO/common/system.o
 .text.host_command_build_info
                0x000000000000ee9c       0x20 build/samus/RO/common/system.o
 .text.host_command_vbnvcontext
                0x000000000000eebc       0x3e build/samus/RO/common/system.o
                0x000000000000eebc                host_command_vbnvcontext
 *fill*         0x000000000000eefa        0x2 
 .text.command_sleepmask
                0x000000000000eefc       0x7c build/samus/RO/common/system.o
 .text.system_is_locked
                0x000000000000ef78       0x24 build/samus/RO/common/system.o
                0x000000000000ef78                system_is_locked
 .text.system_usable_ram_end
                0x000000000000ef9c       0x10 build/samus/RO/common/system.o
                0x000000000000ef9c                system_usable_ram_end
 .text.system_get_reset_flags
                0x000000000000efac        0xc build/samus/RO/common/system.o
                0x000000000000efac                system_get_reset_flags
 .text.system_set_reset_flags
                0x000000000000efb8       0x10 build/samus/RO/common/system.o
                0x000000000000efb8                system_set_reset_flags
 .text.system_print_reset_flags
                0x000000000000efc8       0x60 build/samus/RO/common/system.o
                0x000000000000efc8                system_print_reset_flags
 .text.system_jumped_to_this_image
                0x000000000000f028        0xc build/samus/RO/common/system.o
                0x000000000000f028                system_jumped_to_this_image
 .text.system_add_jump_tag
                0x000000000000f034       0x5c build/samus/RO/common/system.o
                0x000000000000f034                system_add_jump_tag
 .text.system_get_jump_tag
                0x000000000000f090       0x50 build/samus/RO/common/system.o
                0x000000000000f090                system_get_jump_tag
 .text.system_disable_jump
                0x000000000000f0e0       0xcc build/samus/RO/common/system.o
                0x000000000000f0e0                system_disable_jump
 .text.system_get_image_used
                0x000000000000f1ac       0x36 build/samus/RO/common/system.o
                0x000000000000f1ac                system_get_image_used
 *fill*         0x000000000000f1e2        0x2 
 .text.system_unsafe_to_overwrite
                0x000000000000f1e4       0x50 build/samus/RO/common/system.o
                0x000000000000f1e4                system_unsafe_to_overwrite
 .text.system_get_image_copy_string
                0x000000000000f234       0x2c build/samus/RO/common/system.o
                0x000000000000f234                system_get_image_copy_string
 .text.command_sysinfo
                0x000000000000f260       0xc0 build/samus/RO/common/system.o
 .text.system_run_image_copy
                0x000000000000f320       0xa4 build/samus/RO/common/system.o
                0x000000000000f320                system_run_image_copy
 .text.handle_pending_reboot
                0x000000000000f3c4       0x54 build/samus/RO/common/system.o
 .text.system_common_shutdown
                0x000000000000f418        0xc build/samus/RO/common/system.o
 .text.host_command_reboot
                0x000000000000f424       0x5c build/samus/RO/common/system.o
                0x000000000000f424                host_command_reboot
 .text.command_sysjump
                0x000000000000f480       0x9c build/samus/RO/common/system.o
 .text.system_get_version
                0x000000000000f51c       0xd8 build/samus/RO/common/system.o
                0x000000000000f51c                system_get_version
 .text.host_command_get_version
                0x000000000000f5f4       0x68 build/samus/RO/common/system.o
 .text.system_get_board_version
                0x000000000000f65c       0x2c build/samus/RO/common/system.o
                0x000000000000f65c                system_get_board_version
 .text.host_command_get_board_version
                0x000000000000f688       0x1a build/samus/RO/common/system.o
                0x000000000000f688                host_command_get_board_version
 *fill*         0x000000000000f6a2        0x2 
 .text.command_version
                0x000000000000f6a4       0x78 build/samus/RO/common/system.o
 .text.system_get_build_info
                0x000000000000f71c        0x8 build/samus/RO/common/system.o
                0x000000000000f71c                system_get_build_info
 .text.system_common_pre_init
                0x000000000000f724       0xac build/samus/RO/common/system.o
                0x000000000000f724                system_common_pre_init
 .text.temp_sensor_init
                0x000000000000f7d0       0x46 build/samus/RO/common/temp_sensor.o
 *fill*         0x000000000000f816        0x2 
 .text.temp_sensor_command_get_info
                0x000000000000f818       0x38 build/samus/RO/common/temp_sensor.o
                0x000000000000f818                temp_sensor_command_get_info
 .text.temp_sensor_read
                0x000000000000f850       0x1c build/samus/RO/common/temp_sensor.o
                0x000000000000f850                temp_sensor_read
 .text.update_mapped_memory
                0x000000000000f86c       0x4c build/samus/RO/common/temp_sensor.o
 .text.command_temps
                0x000000000000f8b8       0xd8 build/samus/RO/common/temp_sensor.o
 .text.thermal_command_set_threshold
                0x000000000000f990       0x38 build/samus/RO/common/thermal.o
 .text.thermal_command_get_threshold
                0x000000000000f9c8       0x3c build/samus/RO/common/thermal.o
 .text.dptf_init
                0x000000000000fa04       0x30 build/samus/RO/common/thermal.o
 .text.command_thermalget
                0x000000000000fa34       0xc8 build/samus/RO/common/thermal.o
 .text.command_dptftemp
                0x000000000000fafc       0xa4 build/samus/RO/common/thermal.o
 .text.command_thermalset
                0x000000000000fba0       0xdc build/samus/RO/common/thermal.o
 .text.dptf_query_next_sensor_event
                0x000000000000fc7c       0x40 build/samus/RO/common/thermal.o
                0x000000000000fc7c                dptf_query_next_sensor_event
 .text.dptf_set_temp_threshold
                0x000000000000fcbc       0x90 build/samus/RO/common/thermal.o
                0x000000000000fcbc                dptf_set_temp_threshold
 .text.thermal_fan_percent
                0x000000000000fd4c       0x20 build/samus/RO/common/thermal.o
                0x000000000000fd4c                thermal_fan_percent
 .text.thermal_control
                0x000000000000fd6c      0x2e0 build/samus/RO/common/thermal.o
 .text.command_apthrottle
                0x000000000001004c       0x4c build/samus/RO/common/throttle_ap.o
 .text.throttle_ap
                0x0000000000010098       0x7c build/samus/RO/common/throttle_ap.o
                0x0000000000010098                throttle_ap
 .text.udelay   0x0000000000010114       0x16 build/samus/RO/common/timer.o
                0x0000000000010114                udelay
 .text.command_wait
                0x000000000001012a       0x2e build/samus/RO/common/timer.o
 .text.timer_arm
                0x0000000000010158       0x78 build/samus/RO/common/timer.o
                0x0000000000010158                timer_arm
 .text.timer_cancel
                0x00000000000101d0       0x40 build/samus/RO/common/timer.o
                0x00000000000101d0                timer_cancel
 .text.usleep   0x0000000000010210       0x70 build/samus/RO/common/timer.o
                0x0000000000010210                usleep
 .text.get_time
                0x0000000000010280       0x24 build/samus/RO/common/timer.o
                0x0000000000010280                get_time
 .text.timestamp_expired
                0x00000000000102a4       0x22 build/samus/RO/common/timer.o
                0x00000000000102a4                timestamp_expired
 *fill*         0x00000000000102c6        0x2 
 .text.process_timers
                0x00000000000102c8       0xcc build/samus/RO/common/timer.o
                0x00000000000102c8                process_timers
 .text.timer_sysjump
                0x0000000000010394       0x1c build/samus/RO/common/timer.o
 .text.command_get_time
                0x00000000000103b0       0x24 build/samus/RO/common/timer.o
 .text.force_time
                0x00000000000103d4       0x18 build/samus/RO/common/timer.o
                0x00000000000103d4                force_time
 .text.timer_print_info
                0x00000000000103ec       0x98 build/samus/RO/common/timer.o
                0x00000000000103ec                timer_print_info
 .text.command_timer_info
                0x0000000000010484        0xa build/samus/RO/common/timer.o
                0x0000000000010484                command_timer_info
 *fill*         0x000000000001048e        0x2 
 .text.timer_init
                0x0000000000010490       0x38 build/samus/RO/common/timer.o
                0x0000000000010490                timer_init
 .text.__tx_char
                0x00000000000104c8       0x5c build/samus/RO/common/uart_buffering.o
 .text.host_command_console_snapshot
                0x0000000000010524       0x40 build/samus/RO/common/uart_buffering.o
 .text.console_read_helper
                0x0000000000010564       0x50 build/samus/RO/common/uart_buffering.o
 .text.host_command_console_read
                0x00000000000105b4       0x30 build/samus/RO/common/uart_buffering.o
 .text.uart_process_output
                0x00000000000105e4       0x4c build/samus/RO/common/uart_buffering.o
                0x00000000000105e4                uart_process_output
 .text.uart_process_input
                0x0000000000010630       0x68 build/samus/RO/common/uart_buffering.o
                0x0000000000010630                uart_process_input
 .text.uart_putc
                0x0000000000010698       0x28 build/samus/RO/common/uart_buffering.o
                0x0000000000010698                uart_putc
 .text.uart_puts
                0x00000000000106c0       0x34 build/samus/RO/common/uart_buffering.o
                0x00000000000106c0                uart_puts
 .text.uart_vprintf
                0x00000000000106f4       0x28 build/samus/RO/common/uart_buffering.o
                0x00000000000106f4                uart_vprintf
 .text.uart_flush_output
                0x000000000001071c       0x40 build/samus/RO/common/uart_buffering.o
                0x000000000001071c                uart_flush_output
 .text.uart_getc
                0x000000000001075c       0x3c build/samus/RO/common/uart_buffering.o
                0x000000000001075c                uart_getc
 .text.uart_buffer_empty
                0x0000000000010798       0x14 build/samus/RO/common/uart_buffering.o
                0x0000000000010798                uart_buffer_empty
 .text.usb_charge_set_enabled
                0x00000000000107ac        0xc build/samus/RO/common/usb_port_power_smart.o
 .text.usb_charge_preserve_state
                0x00000000000107b8       0x2c build/samus/RO/common/usb_port_power_smart.o
 .text.usb_charge_set_control_mode
                0x00000000000107e4       0x3e build/samus/RO/common/usb_port_power_smart.o
 *fill*         0x0000000000010822        0x2 
 .text.usb_charge_set_mode
                0x0000000000010824       0x80 build/samus/RO/common/usb_port_power_smart.o
                0x0000000000010824                usb_charge_set_mode
 .text.command_set_mode
                0x00000000000108a4       0x68 build/samus/RO/common/usb_port_power_smart.o
 .text.usb_charge_command_set_mode
                0x000000000001090c       0x16 build/samus/RO/common/usb_port_power_smart.o
 .text.usb_charge_init
                0x0000000000010922       0x40 build/samus/RO/common/usb_port_power_smart.o
 .text.usb_charge_resume
                0x0000000000010962       0x16 build/samus/RO/common/usb_port_power_smart.o
 .text.usb_charge_shutdown
                0x0000000000010978       0x16 build/samus/RO/common/usb_port_power_smart.o
 .text.strlen   0x000000000001098e       0x10 build/samus/RO/common/util.o
                0x000000000001098e                strlen
 .text.isspace  0x000000000001099e       0x1a build/samus/RO/common/util.o
                0x000000000001099e                isspace
 .text.isalpha  0x00000000000109b8       0x10 build/samus/RO/common/util.o
                0x00000000000109b8                isalpha
 .text.isprint  0x00000000000109c8        0xc build/samus/RO/common/util.o
                0x00000000000109c8                isprint
 .text.tolower  0x00000000000109d4        0xc build/samus/RO/common/util.o
                0x00000000000109d4                tolower
 .text.strncasecmp.part.1
                0x00000000000109e0       0x52 build/samus/RO/common/util.o
 .text.strcasecmp
                0x0000000000010a32       0x36 build/samus/RO/common/util.o
                0x0000000000010a32                strcasecmp
 .text.strncasecmp
                0x0000000000010a68        0xa build/samus/RO/common/util.o
                0x0000000000010a68                strncasecmp
 .text.strtoi   0x0000000000010a72       0xb6 build/samus/RO/common/util.o
                0x0000000000010a72                strtoi
 .text.parse_bool
                0x0000000000010b28       0x6c build/samus/RO/common/util.o
                0x0000000000010b28                parse_bool
 .text.memcpy   0x0000000000010b94       0x4e build/samus/RO/common/util.o
                0x0000000000010b94                memcpy
 .text.memset   0x0000000000010be2       0x44 build/samus/RO/common/util.o
                0x0000000000010be2                memset
 .text.memmove  0x0000000000010c26       0x5c build/samus/RO/common/util.o
                0x0000000000010c26                memmove
 .text.strzcpy  0x0000000000010c82       0x28 build/samus/RO/common/util.o
                0x0000000000010c82                strzcpy
 .text.uint64divmod
                0x0000000000010caa       0xce build/samus/RO/common/util.o
                0x0000000000010caa                uint64divmod
 .text.cond_init
                0x0000000000010d78        0xa build/samus/RO/common/util.o
                0x0000000000010d78                cond_init
 .text.cond_is  0x0000000000010d82       0x10 build/samus/RO/common/util.o
                0x0000000000010d82                cond_is
 .text.cond_set
                0x0000000000010d92       0x2e build/samus/RO/common/util.o
                0x0000000000010d92                cond_set
 .text.cond_went
                0x0000000000010dc0       0x20 build/samus/RO/common/util.o
                0x0000000000010dc0                cond_went
 .text.vboot_hash_start
                0x0000000000010de0       0x84 build/samus/RO/common/vboot_hash.o
 .text.vboot_hash_init
                0x0000000000010e64       0x1a build/samus/RO/common/vboot_hash.o
 *fill*         0x0000000000010e7e        0x2 
 .text.fill_response.part.1
                0x0000000000010e80       0x6c build/samus/RO/common/vboot_hash.o
 .text.vboot_hash_in_progress
                0x0000000000010eec        0xc build/samus/RO/common/vboot_hash.o
                0x0000000000010eec                vboot_hash_in_progress
 .text.vboot_hash_abort
                0x0000000000010ef8       0x28 build/samus/RO/common/vboot_hash.o
                0x0000000000010ef8                vboot_hash_abort
 .text.vboot_hash_next_chunk
                0x0000000000010f20       0x78 build/samus/RO/common/vboot_hash.o
 .text.command_hash
                0x0000000000010f98      0x140 build/samus/RO/common/vboot_hash.o
 .text.host_command_vboot_hash
                0x00000000000110d8       0xec build/samus/RO/common/vboot_hash.o
 .text.vboot_hash_invalidate
                0x00000000000111c4       0x40 build/samus/RO/common/vboot_hash.o
                0x00000000000111c4                vboot_hash_invalidate
 .text.wireless_get
                0x0000000000011204       0x20 build/samus/RO/common/wireless.o
 .text.wireless_enable
                0x0000000000011224       0x1c build/samus/RO/common/wireless.o
 .text.wireless_enable_cmd
                0x0000000000011240       0x50 build/samus/RO/common/wireless.o
 .text.command_wireless
                0x0000000000011290       0x60 build/samus/RO/common/wireless.o
 .text.wireless_set_state
                0x00000000000112f0       0x30 build/samus/RO/common/wireless.o
                0x00000000000112f0                wireless_set_state
 .text.cpu_init
                0x0000000000011320       0x18 build/samus/RO/core/cortex-m/cpu.o
                0x0000000000011320                cpu_init
 .text.mpu_config_region.part.0
                0x0000000000011338       0x6c build/samus/RO/core/cortex-m/mpu.o
 .text.mpu_enable
                0x00000000000113a4       0x10 build/samus/RO/core/cortex-m/mpu.o
                0x00000000000113a4                mpu_enable
 .text.mpu_disable
                0x00000000000113b4       0x10 build/samus/RO/core/cortex-m/mpu.o
                0x00000000000113b4                mpu_disable
 .text.mpu_get_type
                0x00000000000113c4        0xc build/samus/RO/core/cortex-m/mpu.o
                0x00000000000113c4                mpu_get_type
 .text.mpu_protect_ram
                0x00000000000113d0       0x3c build/samus/RO/core/cortex-m/mpu.o
                0x00000000000113d0                mpu_protect_ram
 .text.mpu_lock_ro_flash
                0x000000000001140c       0x1a build/samus/RO/core/cortex-m/mpu.o
                0x000000000001140c                mpu_lock_ro_flash
 .text.mpu_lock_rw_flash
                0x0000000000011426       0x1a build/samus/RO/core/cortex-m/mpu.o
                0x0000000000011426                mpu_lock_rw_flash
 .text.mpu_pre_init
                0x0000000000011440       0x3c build/samus/RO/core/cortex-m/mpu.o
                0x0000000000011440                mpu_pre_init
 .text.print_reg
                0x000000000001147c       0x78 build/samus/RO/core/cortex-m/panic.o
 .text.do_separate
                0x00000000000114f4       0x1c build/samus/RO/core/cortex-m/panic.o
 .text.panic_data_print
                0x0000000000011510      0x1c8 build/samus/RO/core/cortex-m/panic.o
                0x0000000000011510                panic_data_print
 .text.report_panic
                0x00000000000116d8      0x11c build/samus/RO/core/cortex-m/panic.o
                0x00000000000116d8                report_panic
 .text.exception_panic
                0x00000000000117f4       0x24 build/samus/RO/core/cortex-m/panic.o
                0x00000000000117f4                exception_panic
 .text.software_panic
                0x0000000000011818        0xa build/samus/RO/core/cortex-m/panic.o
                0x0000000000011818                software_panic
 *fill*         0x0000000000011822        0x2 
 .text.panic_set_reason
                0x0000000000011824       0x40 build/samus/RO/core/cortex-m/panic.o
                0x0000000000011824                panic_set_reason
 .text.panic_get_reason
                0x0000000000011864       0x40 build/samus/RO/core/cortex-m/panic.o
                0x0000000000011864                panic_get_reason
 .text.bus_fault_handler
                0x00000000000118a4       0x10 build/samus/RO/core/cortex-m/panic.o
                0x00000000000118a4                bus_fault_handler
 .text          0x00000000000118b4       0x74 build/samus/RO/core/cortex-m/switch.o
                0x00000000000118b4                __switchto
                0x00000000000118ee                __task_start
 .text.interrupt_disable
                0x0000000000011928        0x4 build/samus/RO/core/cortex-m/task.o
                0x0000000000011928                interrupt_disable
 .text.interrupt_enable
                0x000000000001192c        0x4 build/samus/RO/core/cortex-m/task.o
                0x000000000001192c                interrupt_enable
 .text.in_interrupt_context
                0x0000000000011930        0xa build/samus/RO/core/cortex-m/task.o
                0x0000000000011930                in_interrupt_context
 *fill*         0x000000000001193a        0x2 
 .text.__wait_evt
                0x000000000001193c       0xa4 build/samus/RO/core/cortex-m/task.o
 .text.get_interrupt_context
                0x00000000000119e0        0xa build/samus/RO/core/cortex-m/task.o
                0x00000000000119e0                get_interrupt_context
 *fill*         0x00000000000119ea        0x2 
 .text.task_get_current
                0x00000000000119ec       0x20 build/samus/RO/core/cortex-m/task.o
                0x00000000000119ec                task_get_current
 .text.task_get_event_bitmap
                0x0000000000011a0c       0x14 build/samus/RO/core/cortex-m/task.o
                0x0000000000011a0c                task_get_event_bitmap
 .text.task_start_called
                0x0000000000011a20        0xc build/samus/RO/core/cortex-m/task.o
                0x0000000000011a20                task_start_called
 .text.svc_handler
                0x0000000000011a2c      0x164 build/samus/RO/core/cortex-m/task.o
                0x0000000000011a2c                svc_handler
 .text.__schedule
                0x0000000000011b90        0x4 build/samus/RO/core/cortex-m/task.o
                0x0000000000011b90                __schedule
 .text.task_start_irq_handler
                0x0000000000011b94       0x4c build/samus/RO/core/cortex-m/task.o
                0x0000000000011b94                task_start_irq_handler
 .text.task_resched_if_needed
                0x0000000000011be0       0x20 build/samus/RO/core/cortex-m/task.o
                0x0000000000011be0                task_resched_if_needed
 .text.task_set_event
                0x0000000000011c00       0x84 build/samus/RO/core/cortex-m/task.o
                0x0000000000011c00                task_set_event
 .text.task_wait_event
                0x0000000000011c84        0x6 build/samus/RO/core/cortex-m/task.o
                0x0000000000011c84                task_wait_event
 *fill*         0x0000000000011c8a        0x2 
 .text.task_exit_trap
                0x0000000000011c8c       0x2c build/samus/RO/core/cortex-m/task.o
 .text.task_wait_event_mask
                0x0000000000011cb8       0x70 build/samus/RO/core/cortex-m/task.o
                0x0000000000011cb8                task_wait_event_mask
 .text.task_enable_all_tasks
                0x0000000000011d28       0x14 build/samus/RO/core/cortex-m/task.o
                0x0000000000011d28                task_enable_all_tasks
 .text.task_enable_irq
                0x0000000000011d3c       0x38 build/samus/RO/core/cortex-m/task.o
                0x0000000000011d3c                task_enable_irq
 .text.task_disable_irq
                0x0000000000011d74       0x2c build/samus/RO/core/cortex-m/task.o
                0x0000000000011d74                task_disable_irq
 .text.task_clear_pending_irq
                0x0000000000011da0       0x2c build/samus/RO/core/cortex-m/task.o
                0x0000000000011da0                task_clear_pending_irq
 .text.task_trigger_irq
                0x0000000000011dcc        0xc build/samus/RO/core/cortex-m/task.o
                0x0000000000011dcc                task_trigger_irq
 .text.mutex_lock
                0x0000000000011dd8       0x78 build/samus/RO/core/cortex-m/task.o
                0x0000000000011dd8                mutex_lock
 .text.mutex_unlock
                0x0000000000011e50       0x50 build/samus/RO/core/cortex-m/task.o
                0x0000000000011e50                mutex_unlock
 .text.task_print_list
                0x0000000000011ea0       0xa4 build/samus/RO/core/cortex-m/task.o
                0x0000000000011ea0                task_print_list
 .text.command_task_info
                0x0000000000011f44       0xc4 build/samus/RO/core/cortex-m/task.o
                0x0000000000011f44                command_task_info
 .text.task_pre_init
                0x0000000000012008      0x10c build/samus/RO/core/cortex-m/task.o
                0x0000000000012008                task_pre_init
 .text.task_start
                0x0000000000012114       0x38 build/samus/RO/core/cortex-m/task.o
                0x0000000000012114                task_start
 .text.__aeabi_uldivmod
                0x000000000001214c       0xa0 build/samus/RO/core/cortex-m/uldivmod.o
                0x000000000001214c                __aeabi_uldivmod
 .text.watchdog_trace
                0x00000000000121ec       0x50 build/samus/RO/core/cortex-m/watchdog.o
                0x00000000000121ec                watchdog_trace
 .text.find_param_index
                0x000000000001223c       0x2a build/samus/RO/driver/accel_kionix.o
 *fill*         0x0000000000012266        0x2 
 .text.get_range
                0x0000000000012268       0x10 build/samus/RO/driver/accel_kionix.o
 .text.get_resolution
                0x0000000000012278       0x14 build/samus/RO/driver/accel_kionix.o
 .text.get_data_rate
                0x000000000001228c       0x14 build/samus/RO/driver/accel_kionix.o
 .text.set_offset
                0x00000000000122a0       0x12 build/samus/RO/driver/accel_kionix.o
 .text.get_offset
                0x00000000000122b2       0x18 build/samus/RO/driver/accel_kionix.o
 *fill*         0x00000000000122ca        0x2 
 .text.read     0x00000000000122cc       0xe8 build/samus/RO/driver/accel_kionix.o
 .text.enable_sensor
                0x00000000000123b4       0x3e build/samus/RO/driver/accel_kionix.o
 .text.disable_sensor
                0x00000000000123f2       0x3a build/samus/RO/driver/accel_kionix.o
 .text.set_range
                0x000000000001242c       0x7c build/samus/RO/driver/accel_kionix.o
 .text.set_resolution
                0x00000000000124a8       0x7c build/samus/RO/driver/accel_kionix.o
 .text.init     0x0000000000012524       0xe8 build/samus/RO/driver/accel_kionix.o
 .text.set_data_rate
                0x000000000001260c       0x8c build/samus/RO/driver/accel_kionix.o
 .text.get_reg_val
                0x0000000000012698       0x2e build/samus/RO/driver/accelgyro_lsm6ds0.o
 .text.get_range
                0x00000000000126c6        0x6 build/samus/RO/driver/accelgyro_lsm6ds0.o
 .text.set_resolution
                0x00000000000126cc        0x4 build/samus/RO/driver/accelgyro_lsm6ds0.o
 .text.get_resolution
                0x00000000000126d0        0x4 build/samus/RO/driver/accelgyro_lsm6ds0.o
 .text.get_data_rate
                0x00000000000126d4        0x6 build/samus/RO/driver/accelgyro_lsm6ds0.o
 .text.set_offset
                0x00000000000126da       0x12 build/samus/RO/driver/accelgyro_lsm6ds0.o
 .text.get_offset
                0x00000000000126ec       0x18 build/samus/RO/driver/accelgyro_lsm6ds0.o
 .text.read     0x0000000000012704      0x110 build/samus/RO/driver/accelgyro_lsm6ds0.o
 .text.set_data_rate
                0x0000000000012814       0xd0 build/samus/RO/driver/accelgyro_lsm6ds0.o
 .text.set_range
                0x00000000000128e4       0x98 build/samus/RO/driver/accelgyro_lsm6ds0.o
 .text.init     0x000000000001297c       0xb0 build/samus/RO/driver/accelgyro_lsm6ds0.o
 .text.isl29035_init
                0x0000000000012a2c        0xc build/samus/RO/driver/als_isl29035.o
                0x0000000000012a2c                isl29035_init
 .text.isl29035_read_lux
                0x0000000000012a38       0x40 build/samus/RO/driver/als_isl29035.o
                0x0000000000012a38                isl29035_read_lux
 .text.command_fastcharge
                0x0000000000012a78       0x40 build/samus/RO/driver/battery/samus.o
 .text.battery_get_info
                0x0000000000012ab8        0x8 build/samus/RO/driver/battery/samus.o
                0x0000000000012ab8                battery_get_info
 .text.charger_profile_override
                0x0000000000012ac0       0xe4 build/samus/RO/driver/battery/samus.o
                0x0000000000012ac0                charger_profile_override
 .text.charger_profile_override_get_param
                0x0000000000012ba4       0x18 build/samus/RO/driver/battery/samus.o
                0x0000000000012ba4                charger_profile_override_get_param
 .text.charger_profile_override_set_param
                0x0000000000012bbc       0x14 build/samus/RO/driver/battery/samus.o
                0x0000000000012bbc                charger_profile_override_set_param
 .text.battery_get_disconnect_state
                0x0000000000012bd0       0x90 build/samus/RO/driver/battery/samus.o
                0x0000000000012bd0                battery_get_disconnect_state
 .text.board_cut_off_battery
                0x0000000000012c60       0x58 build/samus/RO/driver/battery/samus.o
                0x0000000000012c60                board_cut_off_battery
 .text.command_battfake
                0x0000000000012cb8       0x48 build/samus/RO/driver/battery/smart.o
 .text.sb_read  0x0000000000012d00       0x1e build/samus/RO/driver/battery/smart.o
                0x0000000000012d00                sb_read
 .text.sb_write
                0x0000000000012d1e       0x1e build/samus/RO/driver/battery/smart.o
                0x0000000000012d1e                sb_write
 .text.sb_read_string
                0x0000000000012d3c       0x30 build/samus/RO/driver/battery/smart.o
                0x0000000000012d3c                sb_read_string
 .text.battery_get_mode
                0x0000000000012d6c        0x8 build/samus/RO/driver/battery/smart.o
                0x0000000000012d6c                battery_get_mode
 .text.battery_force_mah_mode
                0x0000000000012d74       0x20 build/samus/RO/driver/battery/smart.o
 .text.battery_state_of_charge_abs
                0x0000000000012d94        0x8 build/samus/RO/driver/battery/smart.o
                0x0000000000012d94                battery_state_of_charge_abs
 .text.battery_remaining_capacity
                0x0000000000012d9c       0x18 build/samus/RO/driver/battery/smart.o
                0x0000000000012d9c                battery_remaining_capacity
 .text.battery_full_charge_capacity
                0x0000000000012db4       0x18 build/samus/RO/driver/battery/smart.o
                0x0000000000012db4                battery_full_charge_capacity
 .text.battery_time_to_empty
                0x0000000000012dcc        0x8 build/samus/RO/driver/battery/smart.o
                0x0000000000012dcc                battery_time_to_empty
 .text.battery_time_to_full
                0x0000000000012dd4        0x8 build/samus/RO/driver/battery/smart.o
                0x0000000000012dd4                battery_time_to_full
 .text.battery_status
                0x0000000000012ddc        0x8 build/samus/RO/driver/battery/smart.o
                0x0000000000012ddc                battery_status
 .text.battery_cycle_count
                0x0000000000012de4        0x8 build/samus/RO/driver/battery/smart.o
                0x0000000000012de4                battery_cycle_count
 .text.battery_design_capacity
                0x0000000000012dec       0x18 build/samus/RO/driver/battery/smart.o
                0x0000000000012dec                battery_design_capacity
 .text.battery_design_voltage
                0x0000000000012e04        0x8 build/samus/RO/driver/battery/smart.o
                0x0000000000012e04                battery_design_voltage
 .text.battery_serial_number
                0x0000000000012e0c        0x8 build/samus/RO/driver/battery/smart.o
                0x0000000000012e0c                battery_serial_number
 .text.battery_manufacturer_name
                0x0000000000012e14       0x16 build/samus/RO/driver/battery/smart.o
                0x0000000000012e14                battery_manufacturer_name
 .text.battery_device_name
                0x0000000000012e2a       0x16 build/samus/RO/driver/battery/smart.o
                0x0000000000012e2a                battery_device_name
 .text.battery_device_chemistry
                0x0000000000012e40       0x16 build/samus/RO/driver/battery/smart.o
                0x0000000000012e40                battery_device_chemistry
 *fill*         0x0000000000012e56        0x2 
 .text.battery_get_params
                0x0000000000012e58      0x128 build/samus/RO/driver/battery/smart.o
                0x0000000000012e58                battery_get_params
 .text.charger_set_input_current
                0x0000000000012f80       0x1c build/samus/RO/driver/charger/bq24773.o
                0x0000000000012f80                charger_set_input_current
 .text.charger_get_input_current
                0x0000000000012f9c       0x24 build/samus/RO/driver/charger/bq24773.o
                0x0000000000012f9c                charger_get_input_current
 .text.charger_manufacturer_id
                0x0000000000012fc0        0x8 build/samus/RO/driver/charger/bq24773.o
                0x0000000000012fc0                charger_manufacturer_id
 .text.charger_device_id
                0x0000000000012fc8        0xc build/samus/RO/driver/charger/bq24773.o
                0x0000000000012fc8                charger_device_id
 .text.charger_get_option
                0x0000000000012fd4        0xc build/samus/RO/driver/charger/bq24773.o
                0x0000000000012fd4                charger_get_option
 .text.charger_set_option
                0x0000000000012fe0        0xc build/samus/RO/driver/charger/bq24773.o
                0x0000000000012fe0                charger_set_option
 .text.charger_get_info
                0x0000000000012fec        0x8 build/samus/RO/driver/charger/bq24773.o
                0x0000000000012fec                charger_get_info
 .text.charger_get_status
                0x0000000000012ff4       0x24 build/samus/RO/driver/charger/bq24773.o
                0x0000000000012ff4                charger_get_status
 .text.charger_set_mode
                0x0000000000013018       0x26 build/samus/RO/driver/charger/bq24773.o
                0x0000000000013018                charger_set_mode
 .text.charger_get_current
                0x000000000001303e       0x24 build/samus/RO/driver/charger/bq24773.o
                0x000000000001303e                charger_get_current
 .text.charger_set_current
                0x0000000000013062       0x1c build/samus/RO/driver/charger/bq24773.o
                0x0000000000013062                charger_set_current
 .text.charger_get_voltage
                0x000000000001307e        0xc build/samus/RO/driver/charger/bq24773.o
                0x000000000001307e                charger_get_voltage
 .text.charger_set_voltage
                0x000000000001308a       0x16 build/samus/RO/driver/charger/bq24773.o
                0x000000000001308a                charger_set_voltage
 .text.charger_post_init
                0x00000000000130a0       0x6c build/samus/RO/driver/charger/bq24773.o
                0x00000000000130a0                charger_post_init
 .text.charger_discharge_on_ac
                0x000000000001310c       0x22 build/samus/RO/driver/charger/bq24773.o
                0x000000000001310c                charger_discharge_on_ac
 *fill*         0x000000000001312e        0x2 
 .text.tmp006_init
                0x0000000000013130       0x9c build/samus/RO/driver/temp_sensor/tmp006.o
 .text.tmp006_get_calibration
                0x00000000000131cc      0x144 build/samus/RO/driver/temp_sensor/tmp006.o
                0x00000000000131cc                tmp006_get_calibration
 .text.tmp006_set_calibration
                0x0000000000013310      0x15c build/samus/RO/driver/temp_sensor/tmp006.o
                0x0000000000013310                tmp006_set_calibration
 .text.tmp006_get_raw
                0x000000000001346c       0x48 build/samus/RO/driver/temp_sensor/tmp006.o
                0x000000000001346c                tmp006_get_raw
 .text.command_sensor_info
                0x00000000000134b4      0x14c build/samus/RO/driver/temp_sensor/tmp006.o
 .text.tmp006_poll
                0x0000000000013600       0xb0 build/samus/RO/driver/temp_sensor/tmp006.o
 .text.tmp006_get_val
                0x00000000000136b0      0x174 build/samus/RO/driver/temp_sensor/tmp006.o
                0x00000000000136b0                tmp006_get_val
 .text.host_command_pause_in_s5
                0x0000000000013824       0x44 build/samus/RO/power/common.o
 .text.command_powerinfo
                0x0000000000013868       0x2c build/samus/RO/power/common.o
 .text.power_update_signals
                0x0000000000013894       0x58 build/samus/RO/power/common.o
 .text.host_command_hibernation_delay
                0x00000000000138ec       0x78 build/samus/RO/power/common.o
 .text.command_hibernation_delay
                0x0000000000013964       0x8c build/samus/RO/power/common.o
 .text.command_powerindebug
                0x00000000000139f0       0x90 build/samus/RO/power/common.o
 .text.command_pause_in_s5
                0x0000000000013a80       0x40 build/samus/RO/power/common.o
 .text.power_ac_change
                0x0000000000013ac0       0x54 build/samus/RO/power/common.o
 .text.power_lid_change
                0x0000000000013b14        0xc build/samus/RO/power/common.o
 .text.power_get_signals
                0x0000000000013b20        0xc build/samus/RO/power/common.o
                0x0000000000013b20                power_get_signals
 .text.power_has_signals
                0x0000000000013b2c       0x28 build/samus/RO/power/common.o
                0x0000000000013b2c                power_has_signals
 .text.power_wait_signals
                0x0000000000013b54       0x48 build/samus/RO/power/common.o
                0x0000000000013b54                power_wait_signals
 .text.power_set_state
                0x0000000000013b9c       0x2c build/samus/RO/power/common.o
                0x0000000000013b9c                power_set_state
 .text.power_common_init
                0x0000000000013bc8       0x2c build/samus/RO/power/common.o
 .text.chipset_in_state
                0x0000000000013bf4       0x24 build/samus/RO/power/common.o
                0x0000000000013bf4                chipset_in_state
 .text.chipset_exit_hard_off
                0x0000000000013c18       0x30 build/samus/RO/power/common.o
                0x0000000000013c18                chipset_exit_hard_off
 .text.chipset_task
                0x0000000000013c48       0xfc build/samus/RO/power/common.o
                0x0000000000013c48                chipset_task
 .text.power_signal_interrupt
                0x0000000000013d44       0x16 build/samus/RO/power/common.o
                0x0000000000013d44                power_signal_interrupt
 *fill*         0x0000000000013d5a        0x2 
 .text.power_get_pause_in_s5
                0x0000000000013d5c        0xc build/samus/RO/power/common.o
                0x0000000000013d5c                power_get_pause_in_s5
 .text.power_get_pause_in_s5.__stub
                0x0000000000013d68       0x10 linker stubs

.glue_7         0x0000000000013d78        0x0
 .glue_7        0x0000000000013d78        0x0 linker stubs

.glue_7t        0x0000000000013d78        0x0
 .glue_7t       0x0000000000013d78        0x0 linker stubs

.vfp11_veneer   0x0000000000013d78        0x0
 .vfp11_veneer  0x0000000000013d78        0x0 linker stubs

.v4_bx          0x0000000000013d78        0x0
 .v4_bx         0x0000000000013d78        0x0 linker stubs

.iplt           0x0000000000013d78        0x0
 .iplt          0x0000000000013d78        0x0 build/samus/RO/board/samus/board.o
                0x0000000000013d78                . = ALIGN (0x4)

.rodata         0x0000000000013d78     0x76e8
                0x0000000000013d78                __irqprio = .
 *(.rodata.irqprio)
 .rodata.irqprio
                0x0000000000013d78        0x8 build/samus/RO/chip/lm4/adc.o
                0x0000000000013d78                prio_17
                0x0000000000013d7a                prio_16
                0x0000000000013d7c                prio_15
                0x0000000000013d7e                prio_14
 .rodata.irqprio
                0x0000000000013d80       0x1c build/samus/RO/chip/lm4/gpio.o
                0x0000000000013d80                prio_124
                0x0000000000013d82                prio_116
                0x0000000000013d84                prio_112
                0x0000000000013d86                prio_111
                0x0000000000013d88                prio_56
                0x0000000000013d8a                prio_54
                0x0000000000013d8c                prio_32
                0x0000000000013d8e                prio_31
                0x0000000000013d90                prio_30
                0x0000000000013d92                prio_4
                0x0000000000013d94                prio_3
                0x0000000000013d96                prio_2
                0x0000000000013d98                prio_1
                0x0000000000013d9a                prio_0
 .rodata.irqprio
                0x0000000000013d9c        0x2 build/samus/RO/chip/lm4/hwtimer.o
                0x0000000000013d9c                prio_94
 .rodata.irqprio
                0x0000000000013d9e        0xc build/samus/RO/chip/lm4/i2c.o
                0x0000000000013d9e                prio_110
                0x0000000000013da0                prio_109
                0x0000000000013da2                prio_69
                0x0000000000013da4                prio_68
                0x0000000000013da6                prio_37
                0x0000000000013da8                prio_8
 .rodata.irqprio
                0x0000000000013daa        0x2 build/samus/RO/chip/lm4/keyboard_raw.o
                0x0000000000013daa                prio_55
 .rodata.irqprio
                0x0000000000013dac        0x2 build/samus/RO/chip/lm4/lpc.o
                0x0000000000013dac                prio_108
 .rodata.irqprio
                0x0000000000013dae        0x2 build/samus/RO/chip/lm4/system.o
                0x0000000000013dae                prio_43
 .rodata.irqprio
                0x0000000000013db0        0x4 build/samus/RO/chip/lm4/uart.o
                0x0000000000013db0                prio_33
                0x0000000000013db2                prio_5
 .rodata.irqprio
                0x0000000000013db4        0x2 build/samus/RO/chip/lm4/watchdog.o
                0x0000000000013db4                prio_18
                0x0000000000013db6                __irqprio_end = .
                0x0000000000013db8                . = ALIGN (0x4)
 *fill*         0x0000000000013db6        0x2 
                0x0000000000013db8                __cmds = .
 *(SORT(.rodata.cmds*))
 .rodata.cmds.8042
                0x0000000000013db8       0x10 build/samus/RO/common/keyboard_8042.o
                0x0000000000013db8                __con_cmd_8042
 .rodata.cmds.accelinfo
                0x0000000000013dc8       0x10 build/samus/RO/common/motion_sense.o
                0x0000000000013dc8                __con_cmd_accelinfo
 .rodata.cmds.accelinit
                0x0000000000013dd8       0x10 build/samus/RO/common/motion_sense.o
                0x0000000000013dd8                __con_cmd_accelinit
 .rodata.cmds.accelrange
                0x0000000000013de8       0x10 build/samus/RO/common/motion_sense.o
                0x0000000000013de8                __con_cmd_accelrange
 .rodata.cmds.accelrate
                0x0000000000013df8       0x10 build/samus/RO/common/motion_sense.o
                0x0000000000013df8                __con_cmd_accelrate
 .rodata.cmds.accelread
                0x0000000000013e08       0x10 build/samus/RO/common/motion_sense.o
                0x0000000000013e08                __con_cmd_accelread
 .rodata.cmds.accelres
                0x0000000000013e18       0x10 build/samus/RO/common/motion_sense.o
                0x0000000000013e18                __con_cmd_accelres
 .rodata.cmds.adc
                0x0000000000013e28       0x10 build/samus/RO/common/adc.o
                0x0000000000013e28                __con_cmd_adc
 .rodata.cmds.apreset
                0x0000000000013e38       0x10 build/samus/RO/common/chipset.o
                0x0000000000013e38                __con_cmd_apreset
 .rodata.cmds.apshutdown
                0x0000000000013e48       0x10 build/samus/RO/common/chipset.o
                0x0000000000013e48                __con_cmd_apshutdown
 .rodata.cmds.apthrottle
                0x0000000000013e58       0x10 build/samus/RO/common/throttle_ap.o
                0x0000000000013e58                __con_cmd_apthrottle
 .rodata.cmds.battery
                0x0000000000013e68       0x10 build/samus/RO/common/battery.o
                0x0000000000013e68                __con_cmd_battery
 .rodata.cmds.battfake
                0x0000000000013e78       0x10 build/samus/RO/driver/battery/smart.o
                0x0000000000013e78                __con_cmd_battfake
 .rodata.cmds.bkboost
                0x0000000000013e88       0x10 build/samus/RO/board/samus/extpower.o
                0x0000000000013e88                __con_cmd_bkboost
 .rodata.cmds.chan
                0x0000000000013e98       0x10 build/samus/RO/common/console_output.o
                0x0000000000013e98                __con_cmd_chan
 .rodata.cmds.charger
                0x0000000000013ea8       0x10 build/samus/RO/common/charger.o
                0x0000000000013ea8                __con_cmd_charger
 .rodata.cmds.chgstate
                0x0000000000013eb8       0x10 build/samus/RO/common/charge_state_v2.o
                0x0000000000013eb8                __con_cmd_chgstate
 .rodata.cmds.codeset
                0x0000000000013ec8       0x10 build/samus/RO/common/keyboard_8042.o
                0x0000000000013ec8                __con_cmd_codeset
 .rodata.cmds.crash
                0x0000000000013ed8       0x10 build/samus/RO/common/panic_output.o
                0x0000000000013ed8                __con_cmd_crash
 .rodata.cmds.ctrlram
                0x0000000000013ee8       0x10 build/samus/RO/common/keyboard_8042.o
                0x0000000000013ee8                __con_cmd_ctrlram
 .rodata.cmds.cutoff
                0x0000000000013ef8       0x10 build/samus/RO/common/battery.o
                0x0000000000013ef8                __con_cmd_cutoff
 .rodata.cmds.dptftemp
                0x0000000000013f08       0x10 build/samus/RO/common/thermal.o
                0x0000000000013f08                __con_cmd_dptftemp
 .rodata.cmds.dsleep
                0x0000000000013f18       0x10 build/samus/RO/chip/lm4/clock.o
                0x0000000000013f18                __con_cmd_dsleep
 .rodata.cmds.fanauto
                0x0000000000013f28       0x10 build/samus/RO/common/fan.o
                0x0000000000013f28                __con_cmd_fanauto
 .rodata.cmds.fanduty
                0x0000000000013f38       0x10 build/samus/RO/common/fan.o
                0x0000000000013f38                __con_cmd_fanduty
 .rodata.cmds.faninfo
                0x0000000000013f48       0x10 build/samus/RO/common/fan.o
                0x0000000000013f48                __con_cmd_faninfo
 .rodata.cmds.fanset
                0x0000000000013f58       0x10 build/samus/RO/common/fan.o
                0x0000000000013f58                __con_cmd_fanset
 .rodata.cmds.fastcharge
                0x0000000000013f68       0x10 build/samus/RO/driver/battery/samus.o
                0x0000000000013f68                __con_cmd_fastcharge
 .rodata.cmds.flashinfo
                0x0000000000013f78       0x10 build/samus/RO/common/flash.o
                0x0000000000013f78                __con_cmd_flashinfo
 .rodata.cmds.flashwp
                0x0000000000013f88       0x10 build/samus/RO/common/flash.o
                0x0000000000013f88                __con_cmd_flashwp
 .rodata.cmds.gettime
                0x0000000000013f98       0x10 build/samus/RO/common/timer.o
                0x0000000000013f98                __con_cmd_gettime
 .rodata.cmds.gpioget
                0x0000000000013fa8       0x10 build/samus/RO/common/gpio.o
                0x0000000000013fa8                __con_cmd_gpioget
 .rodata.cmds.gpioset
                0x0000000000013fb8       0x10 build/samus/RO/common/gpio.o
                0x0000000000013fb8                __con_cmd_gpioset
 .rodata.cmds.hash
                0x0000000000013fc8       0x10 build/samus/RO/common/vboot_hash.o
                0x0000000000013fc8                __con_cmd_hash
 .rodata.cmds.hcdebug
                0x0000000000013fd8       0x10 build/samus/RO/common/host_command.o
                0x0000000000013fd8                __con_cmd_hcdebug
 .rodata.cmds.help
                0x0000000000013fe8       0x10 build/samus/RO/common/console.o
                0x0000000000013fe8                __con_cmd_help
 .rodata.cmds.hibdelay
                0x0000000000013ff8       0x10 build/samus/RO/power/common.o
                0x0000000000013ff8                __con_cmd_hibdelay
 .rodata.cmds.hibernate
                0x0000000000014008       0x10 build/samus/RO/common/system.o
                0x0000000000014008                __con_cmd_hibernate
 .rodata.cmds.history
                0x0000000000014018       0x10 build/samus/RO/common/console.o
                0x0000000000014018                __con_cmd_history
 .rodata.cmds.hostevent
                0x0000000000014028       0x10 build/samus/RO/common/host_event_commands.o
                0x0000000000014028                __con_cmd_hostevent
 .rodata.cmds.i2cscan
                0x0000000000014038       0x10 build/samus/RO/common/i2c.o
                0x0000000000014038                __con_cmd_i2cscan
 .rodata.cmds.i2cxfer
                0x0000000000014048       0x10 build/samus/RO/common/i2c.o
                0x0000000000014048                __con_cmd_i2cxfer
 .rodata.cmds.idlestats
                0x0000000000014058       0x10 build/samus/RO/chip/lm4/clock.o
                0x0000000000014058                __con_cmd_idlestats
 .rodata.cmds.kbd
                0x0000000000014068       0x10 build/samus/RO/common/keyboard_8042.o
                0x0000000000014068                __con_cmd_kbd
 .rodata.cmds.kblight
                0x0000000000014078       0x10 build/samus/RO/common/pwm_kblight.o
                0x0000000000014078                __con_cmd_kblight
 .rodata.cmds.kblog
                0x0000000000014088       0x10 build/samus/RO/common/keyboard_8042.o
                0x0000000000014088                __con_cmd_kblog
 .rodata.cmds.kbpress
                0x0000000000014098       0x10 build/samus/RO/common/keyboard_scan.o
                0x0000000000014098                __con_cmd_kbpress
 .rodata.cmds.ksstate
                0x00000000000140a8       0x10 build/samus/RO/common/keyboard_scan.o
                0x00000000000140a8                __con_cmd_ksstate
 .rodata.cmds.lidclose
                0x00000000000140b8       0x10 build/samus/RO/common/lid_switch.o
                0x00000000000140b8                __con_cmd_lidclose
 .rodata.cmds.lidopen
                0x00000000000140c8       0x10 build/samus/RO/common/lid_switch.o
                0x00000000000140c8                __con_cmd_lidopen
 .rodata.cmds.lightbar
                0x00000000000140d8       0x10 build/samus/RO/common/lightbar.o
                0x00000000000140d8                __con_cmd_lightbar
 .rodata.cmds.md
                0x00000000000140e8       0x10 build/samus/RO/common/memory_commands.o
                0x00000000000140e8                __con_cmd_md
 .rodata.cmds.mmapinfo
                0x00000000000140f8       0x10 build/samus/RO/common/switch.o
                0x00000000000140f8                __con_cmd_mmapinfo
 .rodata.cmds.panicinfo
                0x0000000000014108       0x10 build/samus/RO/common/panic_output.o
                0x0000000000014108                __con_cmd_panicinfo
 .rodata.cmds.pause_in_s5
                0x0000000000014118       0x10 build/samus/RO/power/common.o
                0x0000000000014118                __con_cmd_pause_in_s5
 .rodata.cmds.pdcmd
                0x0000000000014128       0x10 build/samus/RO/common/host_command_master.o
                0x0000000000014128                __con_cmd_pdcmd
 .rodata.cmds.pecitemp
                0x0000000000014138       0x10 build/samus/RO/chip/lm4/peci.o
                0x0000000000014138                __con_cmd_pecitemp
 .rodata.cmds.port80
                0x0000000000014148       0x10 build/samus/RO/common/port80.o
                0x0000000000014148                __con_cmd_port80
 .rodata.cmds.powerbtn
                0x0000000000014158       0x10 build/samus/RO/common/power_button.o
                0x0000000000014158                __con_cmd_powerbtn
 .rodata.cmds.powerindebug
                0x0000000000014168       0x10 build/samus/RO/power/common.o
                0x0000000000014168                __con_cmd_powerindebug
 .rodata.cmds.powerinfo
                0x0000000000014178       0x10 build/samus/RO/power/common.o
                0x0000000000014178                __con_cmd_powerinfo
 .rodata.cmds.pwmduty
                0x0000000000014188       0x10 build/samus/RO/common/pwm.o
                0x0000000000014188                __con_cmd_pwmduty
 .rodata.cmds.reboot
                0x0000000000014198       0x10 build/samus/RO/common/system.o
                0x0000000000014198                __con_cmd_reboot
 .rodata.cmds.rtc
                0x00000000000141a8       0x10 build/samus/RO/chip/lm4/system.o
                0x00000000000141a8                __con_cmd_rtc
 .rodata.cmds.rw
                0x00000000000141b8       0x10 build/samus/RO/common/memory_commands.o
                0x00000000000141b8                __con_cmd_rw
 .rodata.cmds.shmem
                0x00000000000141c8       0x10 build/samus/RO/common/shared_mem.o
                0x00000000000141c8                __con_cmd_shmem
 .rodata.cmds.sleepmask
                0x00000000000141d8       0x10 build/samus/RO/common/system.o
                0x00000000000141d8                __con_cmd_sleepmask
 .rodata.cmds.sysinfo
                0x00000000000141e8       0x10 build/samus/RO/common/system.o
                0x00000000000141e8                __con_cmd_sysinfo
 .rodata.cmds.sysjump
                0x00000000000141f8       0x10 build/samus/RO/common/system.o
                0x00000000000141f8                __con_cmd_sysjump
 .rodata.cmds.syslock
                0x0000000000014208       0x10 build/samus/RO/common/system.o
                0x0000000000014208                __con_cmd_syslock
 .rodata.cmds.tapinfo
                0x0000000000014218       0x10 build/samus/RO/common/gesture.o
                0x0000000000014218                __con_cmd_tapinfo
 .rodata.cmds.taskinfo
                0x0000000000014228       0x10 build/samus/RO/core/cortex-m/task.o
                0x0000000000014228                __con_cmd_taskinfo
 .rodata.cmds.temps
                0x0000000000014238       0x10 build/samus/RO/common/temp_sensor.o
                0x0000000000014238                __con_cmd_temps
 .rodata.cmds.thermalget
                0x0000000000014248       0x10 build/samus/RO/common/thermal.o
                0x0000000000014248                __con_cmd_thermalget
 .rodata.cmds.thermalset
                0x0000000000014258       0x10 build/samus/RO/common/thermal.o
                0x0000000000014258                __con_cmd_thermalset
 .rodata.cmds.timerinfo
                0x0000000000014268       0x10 build/samus/RO/common/timer.o
                0x0000000000014268                __con_cmd_timerinfo
 .rodata.cmds.tmp006
                0x0000000000014278       0x10 build/samus/RO/driver/temp_sensor/tmp006.o
                0x0000000000014278                __con_cmd_tmp006
 .rodata.cmds.typematic
                0x0000000000014288       0x10 build/samus/RO/common/keyboard_8042.o
                0x0000000000014288                __con_cmd_typematic
 .rodata.cmds.usbchargemode
                0x0000000000014298       0x10 build/samus/RO/common/usb_port_power_smart.o
                0x0000000000014298                __con_cmd_usbchargemode
 .rodata.cmds.version
                0x00000000000142a8       0x10 build/samus/RO/common/system.o
                0x00000000000142a8                __con_cmd_version
 .rodata.cmds.waitms
                0x00000000000142b8       0x10 build/samus/RO/common/timer.o
                0x00000000000142b8                __con_cmd_waitms
 .rodata.cmds.wireless
                0x00000000000142c8       0x10 build/samus/RO/common/wireless.o
                0x00000000000142c8                __con_cmd_wireless
                0x00000000000142d8                __cmds_end = .
                0x00000000000142d8                . = ALIGN (0x4)
                0x00000000000142d8                __extension_cmds = .
 *(.rodata.extensioncmds)
                0x00000000000142d8                __extension_cmds_end = .
                0x00000000000142d8                . = ALIGN (0x4)
                0x00000000000142d8                __hcmds = .
 *(.rodata.hcmds)
 .rodata.hcmds  0x00000000000142d8        0xc build/samus/RO/board/samus/panel.o
                0x00000000000142d8                __host_cmd_EC_CMD_SWITCH_ENABLE_BKLIGHT
 .rodata.hcmds  0x00000000000142e4        0xc build/samus/RO/chip/lm4/lpc.o
                0x00000000000142e4                __host_cmd_EC_CMD_GET_PROTOCOL_INFO
 .rodata.hcmds  0x00000000000142f0       0x18 build/samus/RO/chip/lm4/system.o
                0x00000000000142f0                __host_cmd_EC_CMD_RTC_SET_VALUE
                0x00000000000142fc                __host_cmd_EC_CMD_RTC_GET_VALUE
 .rodata.hcmds  0x0000000000014308        0xc build/samus/RO/common/battery.o
                0x0000000000014308                __host_cmd_EC_CMD_BATTERY_CUT_OFF
 .rodata.hcmds  0x0000000000014314       0x24 build/samus/RO/common/charge_state_v2.o
                0x0000000000014314                __host_cmd_EC_CMD_CHARGE_STATE
                0x0000000000014320                __host_cmd_EC_CMD_CHARGE_CURRENT_LIMIT
                0x000000000001432c                __host_cmd_EC_CMD_CHARGE_CONTROL
 .rodata.hcmds  0x0000000000014338       0x30 build/samus/RO/common/fan.o
                0x0000000000014338                __host_cmd_EC_CMD_THERMAL_AUTO_FAN_CTRL
                0x0000000000014344                __host_cmd_EC_CMD_PWM_SET_FAN_DUTY
                0x0000000000014350                __host_cmd_EC_CMD_PWM_SET_FAN_TARGET_RPM
                0x000000000001435c                __host_cmd_EC_CMD_PWM_GET_FAN_TARGET_RPM
 .rodata.hcmds  0x0000000000014368       0x48 build/samus/RO/common/flash.o
                0x0000000000014368                __host_cmd_EC_CMD_FLASH_REGION_INFO
                0x0000000000014374                __host_cmd_EC_CMD_FLASH_PROTECT
                0x0000000000014380                __host_cmd_EC_CMD_FLASH_ERASE
                0x000000000001438c                __host_cmd_EC_CMD_FLASH_WRITE
                0x0000000000014398                __host_cmd_EC_CMD_FLASH_READ
                0x00000000000143a4                __host_cmd_EC_CMD_FLASH_INFO
 .rodata.hcmds  0x00000000000143b0       0x18 build/samus/RO/common/gpio.o
                0x00000000000143b0                __host_cmd_EC_CMD_GPIO_SET
                0x00000000000143bc                __host_cmd_EC_CMD_GPIO_GET
 .rodata.hcmds  0x00000000000143c8       0x54 build/samus/RO/common/host_command.o
                0x00000000000143c8                __host_cmd_EC_CMD_GET_FEATURES
                0x00000000000143d4                __host_cmd_EC_CMD_TEST_PROTOCOL
                0x00000000000143e0                __host_cmd_EC_CMD_ENTERING_MODE
                0x00000000000143ec                __host_cmd_EC_CMD_GET_CMD_VERSIONS
                0x00000000000143f8                __host_cmd_EC_CMD_READ_TEST
                0x0000000000014404                __host_cmd_EC_CMD_HELLO
                0x0000000000014410                __host_cmd_EC_CMD_PROTO_VERSION
 .rodata.hcmds  0x000000000001441c       0x6c build/samus/RO/common/host_event_commands.o
                0x000000000001441c                __host_cmd_EC_CMD_HOST_EVENT_CLEAR_B
                0x0000000000014428                __host_cmd_EC_CMD_HOST_EVENT_CLEAR
                0x0000000000014434                __host_cmd_EC_CMD_HOST_EVENT_GET_B
                0x0000000000014440                __host_cmd_EC_CMD_HOST_EVENT_SET_WAKE_MASK
                0x000000000001444c                __host_cmd_EC_CMD_HOST_EVENT_SET_SCI_MASK
                0x0000000000014458                __host_cmd_EC_CMD_HOST_EVENT_SET_SMI_MASK
                0x0000000000014464                __host_cmd_EC_CMD_HOST_EVENT_GET_WAKE_MASK
                0x0000000000014470                __host_cmd_EC_CMD_HOST_EVENT_GET_SCI_MASK
                0x000000000001447c                __host_cmd_EC_CMD_HOST_EVENT_GET_SMI_MASK
 .rodata.hcmds  0x0000000000014488       0x24 build/samus/RO/common/i2c.o
                0x0000000000014488                __host_cmd_EC_CMD_I2C_PASSTHRU
                0x0000000000014494                __host_cmd_EC_CMD_I2C_WRITE
                0x00000000000144a0                __host_cmd_EC_CMD_I2C_READ
 .rodata.hcmds  0x00000000000144ac        0xc build/samus/RO/common/keyboard_scan.o
                0x00000000000144ac                __host_cmd_EC_CMD_MKBP_SIMULATE_KEY
 .rodata.hcmds  0x00000000000144b8        0xc build/samus/RO/common/lid_switch.o
                0x00000000000144b8                __host_cmd_EC_CMD_FORCE_LID_OPEN
 .rodata.hcmds  0x00000000000144c4        0xc build/samus/RO/common/lightbar.o
                0x00000000000144c4                __host_cmd_EC_CMD_LIGHTBAR_CMD
 .rodata.hcmds  0x00000000000144d0        0xc build/samus/RO/common/motion_sense.o
                0x00000000000144d0                __host_cmd_EC_CMD_MOTION_SENSE_CMD
 .rodata.hcmds  0x00000000000144dc        0xc build/samus/RO/common/panic_output.o
                0x00000000000144dc                __host_cmd_EC_CMD_GET_PANIC_INFO
 .rodata.hcmds  0x00000000000144e8        0xc build/samus/RO/common/port80.o
                0x00000000000144e8                __host_cmd_EC_CMD_PORT80_READ
 .rodata.hcmds  0x00000000000144f4       0x18 build/samus/RO/common/pwm_kblight.o
                0x00000000000144f4                __host_cmd_EC_CMD_PWM_SET_KEYBOARD_BACKLIGHT
                0x0000000000014500                __host_cmd_EC_CMD_PWM_GET_KEYBOARD_BACKLIGHT
 .rodata.hcmds  0x000000000001450c       0x48 build/samus/RO/common/system.o
                0x000000000001450c                __host_cmd_EC_CMD_REBOOT_EC
                0x0000000000014518                __host_cmd_EC_CMD_VBNV_CONTEXT
                0x0000000000014524                __host_cmd_EC_CMD_GET_BOARD_VERSION
                0x0000000000014530                __host_cmd_EC_CMD_GET_CHIP_INFO
                0x000000000001453c                __host_cmd_EC_CMD_GET_BUILD_INFO
                0x0000000000014548                __host_cmd_EC_CMD_GET_VERSION
 .rodata.hcmds  0x0000000000014554        0xc build/samus/RO/common/temp_sensor.o
                0x0000000000014554                __host_cmd_EC_CMD_TEMP_SENSOR_GET_INFO
 .rodata.hcmds  0x0000000000014560       0x18 build/samus/RO/common/thermal.o
                0x0000000000014560                __host_cmd_EC_CMD_THERMAL_GET_THRESHOLD
                0x000000000001456c                __host_cmd_EC_CMD_THERMAL_SET_THRESHOLD
 .rodata.hcmds  0x0000000000014578       0x18 build/samus/RO/common/uart_buffering.o
                0x0000000000014578                __host_cmd_EC_CMD_CONSOLE_READ
                0x0000000000014584                __host_cmd_EC_CMD_CONSOLE_SNAPSHOT
 .rodata.hcmds  0x0000000000014590        0xc build/samus/RO/common/usb_port_power_smart.o
                0x0000000000014590                __host_cmd_EC_CMD_USB_CHARGE_SET_MODE
 .rodata.hcmds  0x000000000001459c        0xc build/samus/RO/common/vboot_hash.o
                0x000000000001459c                __host_cmd_EC_CMD_VBOOT_HASH
 .rodata.hcmds  0x00000000000145a8        0xc build/samus/RO/common/wireless.o
                0x00000000000145a8                __host_cmd_EC_CMD_SWITCH_ENABLE_WIRELESS
 .rodata.hcmds  0x00000000000145b4       0x24 build/samus/RO/driver/temp_sensor/tmp006.o
                0x00000000000145b4                __host_cmd_EC_CMD_TMP006_GET_RAW
                0x00000000000145c0                __host_cmd_EC_CMD_TMP006_SET_CALIBRATION
                0x00000000000145cc                __host_cmd_EC_CMD_TMP006_GET_CALIBRATION
 .rodata.hcmds  0x00000000000145d8       0x18 build/samus/RO/power/common.o
                0x00000000000145d8                __host_cmd_EC_CMD_GSV_PAUSE_IN_S5
                0x00000000000145e4                __host_cmd_EC_CMD_HIBERNATION_DELAY
                0x00000000000145f0                __hcmds_end = .
                0x00000000000145f0                . = ALIGN (0x4)
                0x00000000000145f0                __mkbp_evt_srcs = .
 *(.rodata.evtsrcs)
 .rodata.evtsrcs
                0x00000000000145f0        0x8 build/samus/RO/common/host_event_commands.o
                0x00000000000145f0                __evt_src_EC_MKBP_EVENT_HOST_EVENT
                0x00000000000145f8                __mkbp_evt_srcs_end = .
                0x00000000000145f8                . = ALIGN (0x4)
                0x00000000000145f8                __hooks_init = .
 *(.rodata.HOOK_INIT)
 .rodata.HOOK_INIT
                0x00000000000145f8        0x8 build/samus/RO/board/samus/board.o
                0x00000000000145f8                __hook_HOOK_INIT_board_init
 .rodata.HOOK_INIT
                0x0000000000014600        0x8 build/samus/RO/board/samus/extpower.o
                0x0000000000014600                __hook_HOOK_INIT_extpower_init
 .rodata.HOOK_INIT
                0x0000000000014608        0x8 build/samus/RO/board/samus/panel.o
                0x0000000000014608                __hook_HOOK_INIT_backlight_init
 .rodata.HOOK_INIT
                0x0000000000014610        0x8 build/samus/RO/chip/lm4/adc.o
                0x0000000000014610                __hook_HOOK_INIT_adc_init
 .rodata.HOOK_INIT
                0x0000000000014618        0x8 build/samus/RO/chip/lm4/fan.o
                0x0000000000014618                __hook_HOOK_INIT_fan_init
 .rodata.HOOK_INIT
                0x0000000000014620        0x8 build/samus/RO/chip/lm4/gpio.o
                0x0000000000014620                __hook_HOOK_INIT_gpio_init
 .rodata.HOOK_INIT
                0x0000000000014628        0x8 build/samus/RO/chip/lm4/i2c.o
                0x0000000000014628                __hook_HOOK_INIT_i2c_init
 .rodata.HOOK_INIT
                0x0000000000014630        0x8 build/samus/RO/chip/lm4/lpc.o
                0x0000000000014630                __hook_HOOK_INIT_lpc_init
 .rodata.HOOK_INIT
                0x0000000000014638        0x8 build/samus/RO/chip/lm4/peci.o
                0x0000000000014638                __hook_HOOK_INIT_peci_init
 .rodata.HOOK_INIT
                0x0000000000014640        0x8 build/samus/RO/chip/lm4/pwm.o
                0x0000000000014640                __hook_HOOK_INIT_pwm_init
 .rodata.HOOK_INIT
                0x0000000000014648        0x8 build/samus/RO/common/als.o
                0x0000000000014648                __hook_HOOK_INIT_als_task_init
 .rodata.HOOK_INIT
                0x0000000000014650        0x8 build/samus/RO/common/charge_state_v2.o
                0x0000000000014650                __hook_HOOK_INIT_charger_init
 .rodata.HOOK_INIT
                0x0000000000014658        0x8 build/samus/RO/common/fan.o
                0x0000000000014658                __hook_HOOK_INIT_pwm_fan_init
 .rodata.HOOK_INIT
                0x0000000000014660        0x8 build/samus/RO/common/keyboard_8042.o
                0x0000000000014660                __hook_HOOK_INIT_keyboard_restore_state
 .rodata.HOOK_INIT
                0x0000000000014668        0x8 build/samus/RO/common/lid_switch.o
                0x0000000000014668                __hook_HOOK_INIT_lid_init
 .rodata.HOOK_INIT
                0x0000000000014670        0x8 build/samus/RO/common/motion_sense.o
                0x0000000000014670                __hook_HOOK_INIT_motion_sense_startup
 .rodata.HOOK_INIT
                0x0000000000014678        0x8 build/samus/RO/common/panic_output.o
                0x0000000000014678                __hook_HOOK_INIT_panic_init
 .rodata.HOOK_INIT
                0x0000000000014680        0x8 build/samus/RO/common/power_button.o
                0x0000000000014680                __hook_HOOK_INIT_power_button_init
 .rodata.HOOK_INIT
                0x0000000000014688        0x8 build/samus/RO/common/power_button_x86.o
                0x0000000000014688                __hook_HOOK_INIT_powerbtn_x86_init
 .rodata.HOOK_INIT
                0x0000000000014690        0x8 build/samus/RO/common/pwm.o
                0x0000000000014690                __hook_HOOK_INIT_pwm_pin_init
 .rodata.HOOK_INIT
                0x0000000000014698        0x8 build/samus/RO/common/pwm_kblight.o
                0x0000000000014698                __hook_HOOK_INIT_pwm_kblight_init
 .rodata.HOOK_INIT
                0x00000000000146a0        0x8 build/samus/RO/common/switch.o
                0x00000000000146a0                __hook_HOOK_INIT_switch_init
 .rodata.HOOK_INIT
                0x00000000000146a8        0x8 build/samus/RO/common/temp_sensor.o
                0x00000000000146a8                __hook_HOOK_INIT_temp_sensor_init
 .rodata.HOOK_INIT
                0x00000000000146b0        0x8 build/samus/RO/common/thermal.o
                0x00000000000146b0                __hook_HOOK_INIT_dptf_init
 .rodata.HOOK_INIT
                0x00000000000146b8        0x8 build/samus/RO/common/usb_port_power_smart.o
                0x00000000000146b8                __hook_HOOK_INIT_usb_charge_init
 .rodata.HOOK_INIT
                0x00000000000146c0        0x8 build/samus/RO/common/vboot_hash.o
                0x00000000000146c0                __hook_HOOK_INIT_vboot_hash_init
 .rodata.HOOK_INIT
                0x00000000000146c8        0x8 build/samus/RO/driver/temp_sensor/tmp006.o
                0x00000000000146c8                __hook_HOOK_INIT_tmp006_init
 .rodata.HOOK_INIT
                0x00000000000146d0        0x8 build/samus/RO/power/common.o
                0x00000000000146d0                __hook_HOOK_INIT_power_common_init
                0x00000000000146d8                __hooks_init_end = .
                0x00000000000146d8                __hooks_pre_freq_change = .
 *(.rodata.HOOK_PRE_FREQ_CHANGE)
                0x00000000000146d8                __hooks_pre_freq_change_end = .
                0x00000000000146d8                __hooks_freq_change = .
 *(.rodata.HOOK_FREQ_CHANGE)
 .rodata.HOOK_FREQ_CHANGE
                0x00000000000146d8        0x8 build/samus/RO/chip/lm4/hwtimer.o
                0x00000000000146d8                __hook_HOOK_FREQ_CHANGE_update_prescaler
 .rodata.HOOK_FREQ_CHANGE
                0x00000000000146e0        0x8 build/samus/RO/chip/lm4/i2c.o
                0x00000000000146e0                __hook_HOOK_FREQ_CHANGE_i2c_freq_changed
 .rodata.HOOK_FREQ_CHANGE
                0x00000000000146e8        0x8 build/samus/RO/chip/lm4/peci.o
                0x00000000000146e8                __hook_HOOK_FREQ_CHANGE_peci_freq_changed
 .rodata.HOOK_FREQ_CHANGE
                0x00000000000146f0        0x8 build/samus/RO/chip/lm4/watchdog.o
                0x00000000000146f0                __hook_HOOK_FREQ_CHANGE_watchdog_freq_changed
 .rodata.HOOK_FREQ_CHANGE
                0x00000000000146f8        0x8 build/samus/RO/common/keyboard_scan.o
                0x00000000000146f8                __hook_HOOK_FREQ_CHANGE_keyboard_freq_change
                0x0000000000014700                __hooks_freq_change_end = .
                0x0000000000014700                __hooks_sysjump = .
 *(.rodata.HOOK_SYSJUMP)
 .rodata.HOOK_SYSJUMP
                0x0000000000014700        0x8 build/samus/RO/chip/lm4/lpc.o
                0x0000000000014700                __hook_HOOK_SYSJUMP_lpc_sysjump
 .rodata.HOOK_SYSJUMP
                0x0000000000014708        0x8 build/samus/RO/common/fan.o
                0x0000000000014708                __hook_HOOK_SYSJUMP_pwm_fan_preserve_state
 .rodata.HOOK_SYSJUMP
                0x0000000000014710        0x8 build/samus/RO/common/keyboard_8042.o
                0x0000000000014710                __hook_HOOK_SYSJUMP_keyboard_preserve_state
 .rodata.HOOK_SYSJUMP
                0x0000000000014718        0x8 build/samus/RO/common/lightbar.o
                0x0000000000014718                __hook_HOOK_SYSJUMP_lightbar_preserve_state
 .rodata.HOOK_SYSJUMP
                0x0000000000014720        0x8 build/samus/RO/common/pwm_kblight.o
                0x0000000000014720                __hook_HOOK_SYSJUMP_pwm_kblight_preserve_state
 .rodata.HOOK_SYSJUMP
                0x0000000000014728        0x8 build/samus/RO/common/timer.o
                0x0000000000014728                __hook_HOOK_SYSJUMP_timer_sysjump
 .rodata.HOOK_SYSJUMP
                0x0000000000014730        0x8 build/samus/RO/common/usb_port_power_smart.o
                0x0000000000014730                __hook_HOOK_SYSJUMP_usb_charge_preserve_state
                0x0000000000014738                __hooks_sysjump_end = .
                0x0000000000014738                __hooks_chipset_pre_init = .
 *(.rodata.HOOK_CHIPSET_PRE_INIT)
 .rodata.HOOK_CHIPSET_PRE_INIT
                0x0000000000014738        0x8 build/samus/RO/board/samus/extpower.o
                0x0000000000014738                __hook_HOOK_CHIPSET_PRE_INIT_extpower_buffer_to_pch
                0x0000000000014740                __hooks_chipset_pre_init_end = .
                0x0000000000014740                __hooks_chipset_startup = .
 *(.rodata.HOOK_CHIPSET_STARTUP)
 .rodata.HOOK_CHIPSET_STARTUP
                0x0000000000014740        0x8 build/samus/RO/common/lightbar.o
                0x0000000000014740                __hook_HOOK_CHIPSET_STARTUP_lightbar_startup
                0x0000000000014748                __hooks_chipset_startup_end = .
                0x0000000000014748                __hooks_chipset_resume = .
 *(.rodata.HOOK_CHIPSET_RESUME)
 .rodata.HOOK_CHIPSET_RESUME
                0x0000000000014748        0x8 build/samus/RO/board/samus/extpower.o
                0x0000000000014748                __hook_HOOK_CHIPSET_RESUME_cancel_charging_cutoff
 .rodata.HOOK_CHIPSET_RESUME
                0x0000000000014750        0x8 build/samus/RO/chip/lm4/lpc.o
                0x0000000000014750                __hook_HOOK_CHIPSET_RESUME_lpc_resume
 .rodata.HOOK_CHIPSET_RESUME
                0x0000000000014758        0x8 build/samus/RO/common/als.o
                0x0000000000014758                __hook_HOOK_CHIPSET_RESUME_als_task_enable
 .rodata.HOOK_CHIPSET_RESUME
                0x0000000000014760        0x8 build/samus/RO/common/charge_state_v2.o
                0x0000000000014760                __hook_HOOK_CHIPSET_RESUME_charge_wakeup
 .rodata.HOOK_CHIPSET_RESUME
                0x0000000000014768        0x8 build/samus/RO/common/fan.o
                0x0000000000014768                __hook_HOOK_CHIPSET_RESUME_pwm_fan_resume
 .rodata.HOOK_CHIPSET_RESUME
                0x0000000000014770        0x8 build/samus/RO/common/gesture.o
                0x0000000000014770                __hook_HOOK_CHIPSET_RESUME_gesture_chipset_resume
 .rodata.HOOK_CHIPSET_RESUME
                0x0000000000014778        0x8 build/samus/RO/common/lightbar.o
                0x0000000000014778                __hook_HOOK_CHIPSET_RESUME_lightbar_resume
 .rodata.HOOK_CHIPSET_RESUME
                0x0000000000014780        0x8 build/samus/RO/common/motion_sense.o
                0x0000000000014780                __hook_HOOK_CHIPSET_RESUME_motion_sense_resume
 .rodata.HOOK_CHIPSET_RESUME
                0x0000000000014788        0x8 build/samus/RO/common/usb_port_power_smart.o
                0x0000000000014788                __hook_HOOK_CHIPSET_RESUME_usb_charge_resume
                0x0000000000014790                __hooks_chipset_resume_end = .
                0x0000000000014790                __hooks_chipset_suspend = .
 *(.rodata.HOOK_CHIPSET_SUSPEND)
 .rodata.HOOK_CHIPSET_SUSPEND
                0x0000000000014790        0x8 build/samus/RO/board/samus/extpower.o
                0x0000000000014790                __hook_HOOK_CHIPSET_SUSPEND_check_charging_cutoff
 .rodata.HOOK_CHIPSET_SUSPEND
                0x0000000000014798        0x8 build/samus/RO/common/als.o
                0x0000000000014798                __hook_HOOK_CHIPSET_SUSPEND_als_task_disable
 .rodata.HOOK_CHIPSET_SUSPEND
                0x00000000000147a0        0x8 build/samus/RO/common/charge_state_v2.o
                0x00000000000147a0                __hook_HOOK_CHIPSET_SUSPEND_reset_current_limit
 .rodata.HOOK_CHIPSET_SUSPEND
                0x00000000000147a8        0x8 build/samus/RO/common/charger.o
                0x00000000000147a8                __hook_HOOK_CHIPSET_SUSPEND_dptf_disable_hook
 .rodata.HOOK_CHIPSET_SUSPEND
                0x00000000000147b0        0x8 build/samus/RO/common/fan.o
                0x00000000000147b0                __hook_HOOK_CHIPSET_SUSPEND_pwm_fan_S3_S5
 .rodata.HOOK_CHIPSET_SUSPEND
                0x00000000000147b8        0x8 build/samus/RO/common/gesture.o
                0x00000000000147b8                __hook_HOOK_CHIPSET_SUSPEND_gesture_chipset_suspend
 .rodata.HOOK_CHIPSET_SUSPEND
                0x00000000000147c0        0x8 build/samus/RO/common/lightbar.o
                0x00000000000147c0                __hook_HOOK_CHIPSET_SUSPEND_lightbar_suspend
 .rodata.HOOK_CHIPSET_SUSPEND
                0x00000000000147c8        0x8 build/samus/RO/common/motion_sense.o
                0x00000000000147c8                __hook_HOOK_CHIPSET_SUSPEND_motion_sense_suspend
 .rodata.HOOK_CHIPSET_SUSPEND
                0x00000000000147d0        0x8 build/samus/RO/common/pwm_kblight.o
                0x00000000000147d0                __hook_HOOK_CHIPSET_SUSPEND_pwm_kblight_suspend
                0x00000000000147d8                __hooks_chipset_suspend_end = .
                0x00000000000147d8                __hooks_chipset_shutdown = .
 *(.rodata.HOOK_CHIPSET_SHUTDOWN)
 .rodata.HOOK_CHIPSET_SHUTDOWN
                0x00000000000147d8        0x8 build/samus/RO/board/samus/extpower.o
                0x00000000000147d8                __hook_HOOK_CHIPSET_SHUTDOWN_extpower_shutdown
 .rodata.HOOK_CHIPSET_SHUTDOWN
                0x00000000000147e0        0x8 build/samus/RO/common/battery.o
                0x00000000000147e0                __hook_HOOK_CHIPSET_SHUTDOWN_check_pending_cutoff
 .rodata.HOOK_CHIPSET_SHUTDOWN
                0x00000000000147e8        0x8 build/samus/RO/common/charge_state_v2.o
                0x00000000000147e8                __hook_HOOK_CHIPSET_SHUTDOWN_reset_current_limit
 .rodata.HOOK_CHIPSET_SHUTDOWN
                0x00000000000147f0        0x8 build/samus/RO/common/charger.o
                0x00000000000147f0                __hook_HOOK_CHIPSET_SHUTDOWN_dptf_disable_hook
 .rodata.HOOK_CHIPSET_SHUTDOWN
                0x00000000000147f8        0x8 build/samus/RO/common/fan.o
                0x00000000000147f8                __hook_HOOK_CHIPSET_SHUTDOWN_pwm_fan_S3_S5
 .rodata.HOOK_CHIPSET_SHUTDOWN
                0x0000000000014800        0x8 build/samus/RO/common/lightbar.o
                0x0000000000014800                __hook_HOOK_CHIPSET_SHUTDOWN_lightbar_shutdown
 .rodata.HOOK_CHIPSET_SHUTDOWN
                0x0000000000014808        0x8 build/samus/RO/common/motion_sense.o
                0x0000000000014808                __hook_HOOK_CHIPSET_SHUTDOWN_motion_sense_shutdown
 .rodata.HOOK_CHIPSET_SHUTDOWN
                0x0000000000014810        0x8 build/samus/RO/common/pwm_kblight.o
                0x0000000000014810                __hook_HOOK_CHIPSET_SHUTDOWN_pwm_kblight_shutdown
 .rodata.HOOK_CHIPSET_SHUTDOWN
                0x0000000000014818        0x8 build/samus/RO/common/system.o
                0x0000000000014818                __hook_HOOK_CHIPSET_SHUTDOWN_system_common_shutdown
 .rodata.HOOK_CHIPSET_SHUTDOWN
                0x0000000000014820        0x8 build/samus/RO/common/usb_port_power_smart.o
                0x0000000000014820                __hook_HOOK_CHIPSET_SHUTDOWN_usb_charge_shutdown
                0x0000000000014828                __hooks_chipset_shutdown_end = .
                0x0000000000014828                __hooks_ac_change = .
 *(.rodata.HOOK_AC_CHANGE)
 .rodata.HOOK_AC_CHANGE
                0x0000000000014828        0x8 build/samus/RO/common/battery.o
                0x0000000000014828                __hook_HOOK_AC_CHANGE_clear_pending_cutoff
 .rodata.HOOK_AC_CHANGE
                0x0000000000014830        0x8 build/samus/RO/common/charge_state_v2.o
                0x0000000000014830                __hook_HOOK_AC_CHANGE_charge_wakeup
 .rodata.HOOK_AC_CHANGE
                0x0000000000014838        0x8 build/samus/RO/power/common.o
                0x0000000000014838                __hook_HOOK_AC_CHANGE_power_ac_change
                0x0000000000014840                __hooks_ac_change_end = .
                0x0000000000014840                __hooks_lid_change = .
 *(.rodata.HOOK_LID_CHANGE)
 .rodata.HOOK_LID_CHANGE
                0x0000000000014840       0x10 build/samus/RO/board/samus/panel.o
                0x0000000000014840                __hook_HOOK_LID_CHANGE_printstmt
                0x0000000000014848                __hook_HOOK_LID_CHANGE_update_backlight
 .rodata.HOOK_LID_CHANGE
                0x0000000000014850        0x8 build/samus/RO/common/keyboard_scan.o
                0x0000000000014850                __hook_HOOK_LID_CHANGE_keyboard_lid_change
 .rodata.HOOK_LID_CHANGE
                0x0000000000014858        0x8 build/samus/RO/common/power_button_x86.o
                0x0000000000014858                __hook_HOOK_LID_CHANGE_powerbtn_x86_lid_change
 .rodata.HOOK_LID_CHANGE
                0x0000000000014860        0x8 build/samus/RO/common/pwm_kblight.o
                0x0000000000014860                __hook_HOOK_LID_CHANGE_pwm_kblight_lid_change
 .rodata.HOOK_LID_CHANGE
                0x0000000000014868        0x8 build/samus/RO/common/switch.o
                0x0000000000014868                __hook_HOOK_LID_CHANGE_switch_update
 .rodata.HOOK_LID_CHANGE
                0x0000000000014870        0x8 build/samus/RO/power/common.o
                0x0000000000014870                __hook_HOOK_LID_CHANGE_power_lid_change
                0x0000000000014878                __hooks_lid_change_end = .
                0x0000000000014878                __hooks_pwrbtn_change = .
 *(.rodata.HOOK_POWER_BUTTON_CHANGE)
 .rodata.HOOK_POWER_BUTTON_CHANGE
                0x0000000000014878        0x8 build/samus/RO/common/keyboard_8042.o
                0x0000000000014878                __hook_HOOK_POWER_BUTTON_CHANGE_keyboard_power_button
 .rodata.HOOK_POWER_BUTTON_CHANGE
                0x0000000000014880        0x8 build/samus/RO/common/power_button_x86.o
                0x0000000000014880                __hook_HOOK_POWER_BUTTON_CHANGE_powerbtn_x86_changed
 .rodata.HOOK_POWER_BUTTON_CHANGE
                0x0000000000014888        0x8 build/samus/RO/common/switch.o
                0x0000000000014888                __hook_HOOK_POWER_BUTTON_CHANGE_switch_update
                0x0000000000014890                __hooks_pwrbtn_change_end = .
                0x0000000000014890                __hooks_charge_state_change = .
 *(.rodata.HOOK_CHARGE_STATE_CHANGE)
 .rodata.HOOK_CHARGE_STATE_CHANGE
                0x0000000000014890        0x8 build/samus/RO/common/power_button_x86.o
                0x0000000000014890                __hook_HOOK_CHARGE_STATE_CHANGE_powerbtn_x86_charge
                0x0000000000014898                __hooks_charge_state_change_end = .
                0x0000000000014898                __hooks_battery_soc_change = .
 *(.rodata.HOOK_BATTERY_SOC_CHANGE)
 .rodata.HOOK_BATTERY_SOC_CHANGE
                0x0000000000014898        0x8 build/samus/RO/board/samus/extpower.o
                0x0000000000014898                __hook_HOOK_BATTERY_SOC_CHANGE_batt_soc_change
                0x00000000000148a0                __hooks_battery_soc_change_end = .
                0x00000000000148a0                __hooks_tick = .
 *(.rodata.HOOK_TICK)
 .rodata.HOOK_TICK
                0x00000000000148a0        0x8 build/samus/RO/chip/lm4/lpc.o
                0x00000000000148a0                __hook_HOOK_TICK_lpc_tick
 .rodata.HOOK_TICK
                0x00000000000148a8        0x8 build/samus/RO/chip/lm4/peci.o
                0x00000000000148a8                __hook_HOOK_TICK_peci_temp_sensor_poll
 .rodata.HOOK_TICK
                0x00000000000148b0        0x8 build/samus/RO/chip/lm4/watchdog.o
                0x00000000000148b0                __hook_HOOK_TICK_watchdog_reload
                0x00000000000148b8                __hooks_tick_end = .
                0x00000000000148b8                __hooks_second = .
 *(.rodata.HOOK_SECOND)
 .rodata.HOOK_SECOND
                0x00000000000148b8        0x8 build/samus/RO/chip/lm4/chip_temp_sensor.o
                0x00000000000148b8                __hook_HOOK_SECOND_chip_temp_sensor_poll
 .rodata.HOOK_SECOND
                0x00000000000148c0        0x8 build/samus/RO/common/fan.o
                0x00000000000148c0                __hook_HOOK_SECOND_pwm_fan_second
 .rodata.HOOK_SECOND
                0x00000000000148c8        0x8 build/samus/RO/common/lightbar.o
                0x00000000000148c8                __hook_HOOK_SECOND_my_led_flash
 .rodata.HOOK_SECOND
                0x00000000000148d0        0x8 build/samus/RO/common/temp_sensor.o
                0x00000000000148d0                __hook_HOOK_SECOND_update_mapped_memory
 .rodata.HOOK_SECOND
                0x00000000000148d8        0x8 build/samus/RO/common/thermal.o
                0x00000000000148d8                __hook_HOOK_SECOND_thermal_control
 .rodata.HOOK_SECOND
                0x00000000000148e0        0x8 build/samus/RO/driver/temp_sensor/tmp006.o
                0x00000000000148e0                __hook_HOOK_SECOND_tmp006_poll
                0x00000000000148e8                __hooks_second_end = .
                0x00000000000148e8                __deferred_funcs = .
 *(.rodata.deferred)
 .rodata.deferred
                0x00000000000148e8        0x8 build/samus/RO/board/samus/extpower.o
                0x00000000000148e8                __deferred_allow_min_charging
                0x00000000000148ec                __deferred_allow_max_request
 .rodata.deferred
                0x00000000000148f0        0x4 build/samus/RO/board/samus/panel.o
                0x00000000000148f0                __deferred_lp8555_enable_pwm_mode
 .rodata.deferred
                0x00000000000148f4        0x4 build/samus/RO/common/acpi.o
                0x00000000000148f4                __deferred_acpi_disable_burst_deferred
 .rodata.deferred
                0x00000000000148f8        0x4 build/samus/RO/common/battery.o
                0x00000000000148f8                __deferred_pending_cutoff_deferred
 .rodata.deferred
                0x00000000000148fc        0x4 build/samus/RO/common/lid_switch.o
                0x00000000000148fc                __deferred_lid_change_deferred
 .rodata.deferred
                0x0000000000014900        0x4 build/samus/RO/common/lightbar.o
                0x0000000000014900                __deferred_my_blink_from_queue
 .rodata.deferred
                0x0000000000014904        0x4 build/samus/RO/common/power_button.o
                0x0000000000014904                __deferred_power_button_change_deferred
 .rodata.deferred
                0x0000000000014908        0x4 build/samus/RO/common/switch.o
                0x0000000000014908                __deferred_switch_update
 .rodata.deferred
                0x000000000001490c        0x4 build/samus/RO/common/vboot_hash.o
                0x000000000001490c                __deferred_vboot_hash_next_chunk
                0x0000000000014910                __deferred_funcs_end = .
                0x0000000000014910                __usb_desc = .
 *(.rodata.usb_desc_conf)
 *(SORT(.rodata.usb_desc*))
                0x0000000000014910                __usb_desc_end = .
                0x0000000000014910                . = ALIGN (0x4)
 *(.rodata.usb_ep)
                0x0000000000014910                . = ALIGN (0x4)
 *(.rodata*)
 .rodata        0x0000000000014910      0x878 build/samus/RO/board/samus/board.o
                0x0000000000014910                motion_sensor_count
                0x0000000000014914                lid_standard_ref
                0x0000000000014938                base_standard_ref
                0x000000000001495c                temp_sensors
                0x0000000000014a88                tmp006_sensors
                0x0000000000014ab8                i2c_ports_used
                0x0000000000014abc                i2c_ports
                0x0000000000014aec                fans
                0x0000000000014b24                pwm_channels
                0x0000000000014b2c                adc_channels
                0x0000000000014b74                power_signal_list
                0x0000000000014be0                gpio_ih_count
                0x0000000000014be4                gpio_irq_handlers
                0x0000000000014c2c                gpio_alt_funcs_count
                0x0000000000014c30                gpio_alt_funcs
                0x0000000000014cd8                gpio_list
 .rodata.str1.1
                0x0000000000015188      0x55c build/samus/RO/board/samus/board.o
 .rodata        0x00000000000156e4        0x8 build/samus/RO/board/samus/extpower.o
 .rodata.str1.1
                0x00000000000156ec       0x78 build/samus/RO/board/samus/extpower.o
 .rodata.str1.1
                0x0000000000015764       0x8e build/samus/RO/board/samus/panel.o
 *fill*         0x00000000000157f2        0x2 
 .rodata        0x00000000000157f4       0x28 build/samus/RO/board/samus/power_sequence.o
 .rodata.str1.1
                0x000000000001581c       0xf2 build/samus/RO/board/samus/power_sequence.o
 *fill*         0x000000000001590e        0x2 
 .rodata        0x0000000000015910       0x14 build/samus/RO/chip/lm4/adc.o
 .rodata.str1.1
                0x0000000000015924       0x2d build/samus/RO/chip/lm4/adc.o
 *fill*         0x0000000000015951        0x3 
 .rodata        0x0000000000015954       0x14 build/samus/RO/chip/lm4/clock.o
 .rodata.str1.1
                0x0000000000015968      0x294 build/samus/RO/chip/lm4/clock.o
                                        0x295 (size before relaxing)
 .rodata        0x0000000000015bfc       0x50 build/samus/RO/chip/lm4/gpio.o
 .rodata        0x0000000000015c4c       0x18 build/samus/RO/chip/lm4/i2c.o
 .rodata.str1.1
                0x0000000000015c64       0x32 build/samus/RO/chip/lm4/i2c.o
 .rodata.str1.1
                0x0000000000015c96       0x48 build/samus/RO/chip/lm4/lpc.o
                                         0x4c (size before relaxing)
 *fill*         0x0000000000015cde        0x2 
 .rodata        0x0000000000015ce0        0xc build/samus/RO/chip/lm4/peci.o
 .rodata.str1.1
                0x0000000000015cec       0x41 build/samus/RO/chip/lm4/peci.o
 *fill*         0x0000000000015d2d        0x3 
 .rodata        0x0000000000015d30        0x4 build/samus/RO/chip/lm4/system.o
 .rodata.str1.1
                0x0000000000015d34       0x98 build/samus/RO/chip/lm4/system.o
                                         0x9c (size before relaxing)
 .rodata.str1.1
                0x0000000000015dcc       0x81 build/samus/RO/common/acpi.o
 *fill*         0x0000000000015e4d        0x3 
 .rodata        0x0000000000015e50        0x4 build/samus/RO/common/adc.o
 .rodata.str1.1
                0x0000000000015e54       0x27 build/samus/RO/common/adc.o
 .rodata.str1.1
                0x0000000000015e7b       0x2c build/samus/RO/common/als.o
 *fill*         0x0000000000015ea7        0x1 
 .rodata        0x0000000000015ea8       0x40 build/samus/RO/common/battery.o
 .rodata.str1.1
                0x0000000000015ee8      0x2e3 build/samus/RO/common/battery.o
                                        0x309 (size before relaxing)
 *fill*         0x00000000000161cb        0x1 
 .rodata        0x00000000000161cc       0x6c build/samus/RO/common/charge_state_v2.o
 .rodata.str1.1
                0x0000000000016238      0x570 build/samus/RO/common/charge_state_v2.o
                                        0x57f (size before relaxing)
 .rodata        0x00000000000167a8        0x8 build/samus/RO/common/charger.o
 .rodata.str1.1
                0x00000000000167b0       0xd9 build/samus/RO/common/charger.o
                                         0xff (size before relaxing)
 *fill*         0x0000000000016889        0x3 
 .rodata        0x000000000001688c       0x14 build/samus/RO/common/chipset.o
 .rodata.str1.1
                0x00000000000168a0       0x51 build/samus/RO/common/chipset.o
 *fill*         0x00000000000168f1        0x3 
 .rodata        0x00000000000168f4       0x38 build/samus/RO/common/console.o
 .rodata.str1.1
                0x000000000001692c      0x1bf build/samus/RO/common/console.o
                                        0x1cf (size before relaxing)
 *fill*         0x0000000000016aeb        0x1 
 .rodata        0x0000000000016aec       0x88 build/samus/RO/common/console_output.o
 .rodata.str1.1
                0x0000000000016b74      0x139 build/samus/RO/common/console_output.o
                                        0x163 (size before relaxing)
 *fill*         0x0000000000016cad        0x3 
 .rodata        0x0000000000016cb0       0x30 build/samus/RO/common/fan.o
 .rodata.str1.1
                0x0000000000016ce0      0x1c0 build/samus/RO/common/fan.o
                                        0x1c9 (size before relaxing)
 .rodata        0x0000000000016ea0       0x14 build/samus/RO/common/flash.o
 .rodata.str1.1
                0x0000000000016eb4      0x120 build/samus/RO/common/flash.o
                                        0x13e (size before relaxing)
 .rodata        0x0000000000016fd4        0x8 build/samus/RO/common/gesture.o
 .rodata.str1.1
                0x0000000000016fdc       0xd4 build/samus/RO/common/gesture.o
                                         0xdb (size before relaxing)
 .rodata        0x00000000000170b0       0x10 build/samus/RO/common/gpio.o
 .rodata.str1.1
                0x00000000000170c0       0x36 build/samus/RO/common/gpio.o
                                         0x3d (size before relaxing)
 *fill*         0x00000000000170f6        0x2 
 .rodata        0x00000000000170f8       0x80 build/samus/RO/common/hooks.o
 .rodata        0x0000000000017178       0x2c build/samus/RO/common/host_command.o
 .rodata.str1.1
                0x00000000000171a4      0x109 build/samus/RO/common/host_command.o
                                        0x114 (size before relaxing)
 *fill*         0x00000000000172ad        0x3 
 .rodata        0x00000000000172b0        0x8 build/samus/RO/common/host_command_master.o
 .rodata.str1.1
                0x00000000000172b8      0x170 build/samus/RO/common/host_command_master.o
                                        0x178 (size before relaxing)
 .rodata        0x0000000000017428       0x14 build/samus/RO/common/host_command_pd.o
 .rodata.str1.1
                0x000000000001743c       0x56 build/samus/RO/common/host_command_pd.o
 *fill*         0x0000000000017492        0x2 
 .rodata        0x0000000000017494        0xc build/samus/RO/common/host_event_commands.o
 .rodata.str1.1
                0x00000000000174a0      0x100 build/samus/RO/common/host_event_commands.o
                                        0x104 (size before relaxing)
 .rodata        0x00000000000175a0       0x40 build/samus/RO/common/i2c.o
 .rodata.str1.1
                0x00000000000175e0      0x178 build/samus/RO/common/i2c.o
                                        0x180 (size before relaxing)
 .rodata        0x0000000000017758       0xc8 build/samus/RO/common/keyboard_8042.o
 .rodata.str1.1
                0x0000000000017820      0x41a build/samus/RO/common/keyboard_8042.o
                                        0x449 (size before relaxing)
 *fill*         0x0000000000017c3a        0x2 
 .rodata        0x0000000000017c3c      0x1f8 build/samus/RO/common/keyboard_8042_sharedlib.o
                0x0000000000017c3c                buttons_8042
                0x0000000000017c94                scancode_set2
                0x0000000000017d64                scancode_set1
 .rodata        0x0000000000017e34       0x18 build/samus/RO/common/keyboard_scan.o
 .rodata.str1.1
                0x0000000000017e4c      0x171 build/samus/RO/common/keyboard_scan.o
                                        0x181 (size before relaxing)
 *fill*         0x0000000000017fbd        0x3 
 .rodata        0x0000000000017fc0       0x40 build/samus/RO/common/lb_common.o
 .rodata.str1.1
                0x0000000000018000       0x30 build/samus/RO/common/lb_common.o
                                         0x36 (size before relaxing)
 .rodata        0x0000000000018030       0x14 build/samus/RO/common/lid_switch.o
 .rodata.str1.1
                0x0000000000018044       0xad build/samus/RO/common/lid_switch.o
 *fill*         0x00000000000180f1        0x3 
 .rodata        0x00000000000180f4      0x3f0 build/samus/RO/common/lightbar.o
 .rodata.str1.1
                0x00000000000184e4      0x798 build/samus/RO/common/lightbar.o
                                        0x7e4 (size before relaxing)
 .rodata.str1.1
                0x0000000000018c7c       0x87 build/samus/RO/common/main.o
                                         0x8a (size before relaxing)
 *fill*         0x0000000000018d03        0x1 
 .rodata        0x0000000000018d04       0x9c build/samus/RO/common/math_util.o
 .rodata.str1.1
                0x0000000000018da0       0x13 build/samus/RO/common/math_util.o
                                         0x15 (size before relaxing)
 *fill*         0x0000000000018db3        0x1 
 .rodata        0x0000000000018db4        0x8 build/samus/RO/common/memory_commands.o
 .rodata.str1.1
                0x0000000000018dbc      0x122 build/samus/RO/common/memory_commands.o
                                        0x133 (size before relaxing)
 *fill*         0x0000000000018ede        0x2 
 .rodata        0x0000000000018ee0       0x58 build/samus/RO/common/motion_lid.o
                0x0000000000018ee0                acc_orient
                0x0000000000018f34                p_acc_orient
 .rodata        0x0000000000018f38       0x5c build/samus/RO/common/motion_sense.o
 .rodata.str1.1
                0x0000000000018f94      0x2b8 build/samus/RO/common/motion_sense.o
                                        0x2be (size before relaxing)
 .rodata        0x000000000001924c       0x3c build/samus/RO/common/panic_output.o
 .rodata.str1.1
                0x0000000000019288      0x168 build/samus/RO/common/panic_output.o
                                        0x177 (size before relaxing)
 .rodata        0x00000000000193f0        0x8 build/samus/RO/common/port80.o
 .rodata.str1.1
                0x00000000000193f8       0xda build/samus/RO/common/port80.o
                                         0xe3 (size before relaxing)
 *fill*         0x00000000000194d2        0x2 
 .rodata        0x00000000000194d4        0xc build/samus/RO/common/power_button.o
 .rodata.str1.1
                0x00000000000194e0       0xbb build/samus/RO/common/power_button.o
                                         0xcc (size before relaxing)
 *fill*         0x000000000001959b        0x1 
 .rodata        0x000000000001959c       0x2c build/samus/RO/common/power_button_x86.o
 .rodata.str1.1
                0x00000000000195c8      0x159 build/samus/RO/common/power_button_x86.o
                                        0x181 (size before relaxing)
 *fill*         0x0000000000019721        0x3 
 .rodata        0x0000000000019724        0x8 build/samus/RO/common/printf.o
 .rodata.str1.1
                0x000000000001972c        0x7 build/samus/RO/common/printf.o
 *fill*         0x0000000000019733        0x1 
 .rodata        0x0000000000019734        0x8 build/samus/RO/common/pwm.o
 .rodata.str1.1
                0x000000000001973c       0x83 build/samus/RO/common/pwm.o
 *fill*         0x00000000000197bf        0x1 
 .rodata        0x00000000000197c0        0x8 build/samus/RO/common/pwm_kblight.o
 .rodata.str1.1
                0x00000000000197c8       0x31 build/samus/RO/common/pwm_kblight.o
                                         0x39 (size before relaxing)
 *fill*         0x00000000000197f9        0x3 
 .rodata        0x00000000000197fc       0x14 build/samus/RO/common/queue.o
                0x0000000000019808                queue_policy_null
 .rodata.str1.1
                0x0000000000019810       0x58 build/samus/RO/common/queue.o
 .rodata        0x0000000000019868      0x100 build/samus/RO/common/sha256.o
 .rodata        0x0000000000019968        0x8 build/samus/RO/common/shared_mem.o
 .rodata.str1.1
                0x0000000000019970       0x38 build/samus/RO/common/shared_mem.o
 .rodata        0x00000000000199a8       0x24 build/samus/RO/common/switch.o
 .rodata.str1.1
                0x00000000000199cc       0x6f build/samus/RO/common/switch.o
                                         0x74 (size before relaxing)
 *fill*         0x0000000000019a3b        0x1 
 .rodata        0x0000000000019a3c       0x84 build/samus/RO/common/system.o
 .rodata.str1.1
                0x0000000000019ac0      0x3b5 build/samus/RO/common/system.o
                                        0x3f9 (size before relaxing)
 *fill*         0x0000000000019e75        0x3 
 .rodata        0x0000000000019e78        0x8 build/samus/RO/common/temp_sensor.o
 .rodata.str1.1
                0x0000000000019e80       0x57 build/samus/RO/common/temp_sensor.o
                                         0x59 (size before relaxing)
 *fill*         0x0000000000019ed7        0x1 
 .rodata        0x0000000000019ed8       0x24 build/samus/RO/common/thermal.o
 .rodata.str1.1
                0x0000000000019efc      0x275 build/samus/RO/common/thermal.o
                                        0x284 (size before relaxing)
 *fill*         0x000000000001a171        0x3 
 .rodata        0x000000000001a174        0xc build/samus/RO/common/throttle_ap.o
 .rodata.str1.1
                0x000000000001a180       0x6f build/samus/RO/common/throttle_ap.o
                                         0x76 (size before relaxing)
 *fill*         0x000000000001a1ef        0x1 
 .rodata        0x000000000001a1f0       0x40 build/samus/RO/common/timer.o
 .rodata.str1.1
                0x000000000001a230       0xe5 build/samus/RO/common/timer.o
                                         0xed (size before relaxing)
 *fill*         0x000000000001a315        0x3 
 .rodata        0x000000000001a318       0x10 build/samus/RO/common/usb_port_power_smart.o
 .rodata.str1.1
                0x000000000001a328       0x57 build/samus/RO/common/usb_port_power_smart.o
 .rodata.str1.1
                0x000000000001a37f        0x4 build/samus/RO/common/util.o
                                          0xf (size before relaxing)
 *fill*         0x000000000001a383        0x1 
 .rodata        0x000000000001a384        0x8 build/samus/RO/common/vboot_hash.o
 .rodata.str1.1
                0x000000000001a38c       0xf1 build/samus/RO/common/vboot_hash.o
                                        0x103 (size before relaxing)
 .rodata.buildinfo
                0x000000000001a47d       0x42 build/samus/RO/common/version.o
                0x000000000001a47d                build_info
 *fill*         0x000000000001a4bf        0x1 
 .rodata        0x000000000001a4c0        0xc build/samus/RO/common/wireless.o
 .rodata.str1.1
                0x000000000001a4cc       0x4f build/samus/RO/common/wireless.o
 *fill*         0x000000000001a51b        0x1 
 .rodata        0x000000000001a51c       0xa8 build/samus/RO/core/cortex-m/panic.o
 .rodata.str1.1
                0x000000000001a5c4      0x2ae build/samus/RO/core/cortex-m/panic.o
                                        0x2c0 (size before relaxing)
 *fill*         0x000000000001a872        0x2 
 .rodata        0x000000000001a874      0x120 build/samus/RO/core/cortex-m/task.o
 .rodata.str1.1
                0x000000000001a994      0x275 build/samus/RO/core/cortex-m/task.o
 .rodata.str1.1
                0x000000000001ac09       0x45 build/samus/RO/core/cortex-m/watchdog.o
 *fill*         0x000000000001ac4e        0x2 
 .rodata        0x000000000001ac50       0xbc build/samus/RO/driver/accel_kionix.o
                0x000000000001ace0                kionix_accel_drv
 .rodata.str1.1
                0x000000000001ad0c       0x27 build/samus/RO/driver/accel_kionix.o
 *fill*         0x000000000001ad33        0x1 
 .rodata        0x000000000001ad34       0xd4 build/samus/RO/driver/accelgyro_lsm6ds0.o
                0x000000000001ad34                gyro_on_odr
                0x000000000001ad6c                gyro_off_odr
                0x000000000001ada4                dps_ranges
                0x000000000001addc                lsm6ds0_drv
 .rodata.str1.1
                0x000000000001ae08       0x64 build/samus/RO/driver/accelgyro_lsm6ds0.o
 .rodata        0x000000000001ae6c       0x24 build/samus/RO/driver/battery/samus.o
 .rodata.str1.1
                0x000000000001ae90       0x39 build/samus/RO/driver/battery/samus.o
                                         0x40 (size before relaxing)
 *fill*         0x000000000001aec9        0x3 
 .rodata        0x000000000001aecc        0xc build/samus/RO/driver/battery/smart.o
 .rodata.str1.1
                0x000000000001aed8       0xa3 build/samus/RO/driver/battery/smart.o
 *fill*         0x000000000001af7b        0x1 
 .rodata        0x000000000001af7c       0x18 build/samus/RO/driver/charger/bq24773.o
 .rodata.str1.1
                0x000000000001af94        0x8 build/samus/RO/driver/charger/bq24773.o
 .rodata        0x000000000001af9c        0x8 build/samus/RO/driver/temp_sensor/tmp006.o
 .rodata.str1.1
                0x000000000001afa4       0xe6 build/samus/RO/driver/temp_sensor/tmp006.o
 *fill*         0x000000000001b08a        0x2 
 .rodata        0x000000000001b08c       0x68 build/samus/RO/power/common.o
 .rodata.str1.1
                0x000000000001b0f4      0x1eb build/samus/RO/power/common.o
                                        0x21a (size before relaxing)
                0x000000000001b300                . = ALIGN (0x40)
 *fill*         0x000000000001b2df       0x21 
 *(.google)
 .google        0x000000000001b300      0x15e build/samus/RO/common/fmap.o
                0x000000000001b300                ec_fmap
                0x000000000001b460                . = ALIGN (0x4)
 *fill*         0x000000000001b45e        0x2 
                0x000000000001b460                __ro_end = .
                0x000000000000000a                __deferred_funcs_count = ((__deferred_funcs_end - __deferred_funcs) / 0x4)
                0x0000000000000001                ASSERT ((__deferred_funcs_count <= 0xa), Increase DEFERRABLE_MAX_COUNT)

.rel.dyn        0x000000000001b460        0x0
 .rel.iplt      0x000000000001b460        0x0 build/samus/RO/board/samus/board.o

.bss            0x0000000020000000     0x6e70
                0x0000000020000000                . = ALIGN (0x200)
                0x0000000020000000                __bss_start = .
 *(.bss.big_align)
                0x0000000020000000                . = ALIGN (0x8)
 *(.bss.system_stack)
 .bss.system_stack
                0x0000000020000000     0x1000 build/samus/RO/core/cortex-m/init.o
                0x0000000020001000                stack_end
 *(.bss)
 .bss           0x0000000020001000       0x34 build/samus/RO/board/samus/board.o
                0x0000000020001004                g_saved_data
 .bss           0x0000000020001034       0x2c build/samus/RO/board/samus/extpower.o
 .bss           0x0000000020001060        0x4 build/samus/RO/board/samus/power_sequence.o
 .bss           0x0000000020001064       0x10 build/samus/RO/chip/lm4/adc.o
 *fill*         0x0000000020001074        0x4 
 .bss           0x0000000020001078       0x20 build/samus/RO/chip/lm4/clock.o
 .bss           0x0000000020001098        0x8 build/samus/RO/chip/lm4/flash.o
                0x0000000020001098                all_protected
                0x000000002000109c                stuck_locked
 .bss           0x00000000200010a0       0xd8 build/samus/RO/chip/lm4/i2c.o
 .bss           0x0000000020001178      0x150 build/samus/RO/chip/lm4/lpc.o
 .bss           0x00000000200012c8       0x14 build/samus/RO/chip/lm4/peci.o
 .bss           0x00000000200012dc       0x18 build/samus/RO/chip/lm4/system.o
 .bss           0x00000000200012f4        0x4 build/samus/RO/chip/lm4/uart.o
 .bss           0x00000000200012f8        0x4 build/samus/RO/chip/lm4/watchdog.o
 .bss           0x00000000200012fc        0xc build/samus/RO/common/acpi.o
 .bss           0x0000000020001308        0x1 build/samus/RO/common/battery.o
 *fill*         0x0000000020001309        0x7 
 .bss           0x0000000020001310       0xb0 build/samus/RO/common/charge_state_v2.o
 .bss           0x00000000200013c0      0x2e8 build/samus/RO/common/console.o
 .bss           0x00000000200016a8      0x408 build/samus/RO/common/console_output.o
 .bss           0x0000000020001ab0       0x10 build/samus/RO/common/fan.o
 .bss           0x0000000020001ac0      0x188 build/samus/RO/common/gesture.o
 .bss           0x0000000020001c48        0xc build/samus/RO/common/gpio.o
 *fill*         0x0000000020001c54        0x4 
 .bss           0x0000000020001c58       0x58 build/samus/RO/common/hooks.o
 .bss           0x0000000020001cb0       0x38 build/samus/RO/common/host_command.o
 .bss           0x0000000020001ce8      0x208 build/samus/RO/common/host_command_master.o
 .bss           0x0000000020001ef0        0x4 build/samus/RO/common/host_command_pd.o
 .bss           0x0000000020001ef4        0x8 build/samus/RO/common/host_event_commands.o
 .bss           0x0000000020001efc       0x38 build/samus/RO/common/i2c.o
 *fill*         0x0000000020001f34        0x4 
 .bss           0x0000000020001f38       0x80 build/samus/RO/common/keyboard_8042.o
 .bss           0x0000000020001fb8        0x8 build/samus/RO/common/keyboard_scan.o
 .bss           0x0000000020001fc0        0xc build/samus/RO/common/lb_common.o
 .bss           0x0000000020001fcc        0x8 build/samus/RO/common/lid_switch.o
 .bss           0x0000000020001fd4      0x27c build/samus/RO/common/lightbar.o
 .bss           0x0000000020002250        0x8 build/samus/RO/common/motion_lid.o
 .bss           0x0000000020002258       0x18 build/samus/RO/common/motion_sense.o
 .bss           0x0000000020002270        0x4 build/samus/RO/common/port80.o
 .bss           0x0000000020002274        0x8 build/samus/RO/common/power_button.o
 *fill*         0x000000002000227c        0x4 
 .bss           0x0000000020002280       0x10 build/samus/RO/common/power_button_x86.o
 .bss           0x0000000020002290        0x8 build/samus/RO/common/shared_mem.o
 .bss           0x0000000020002298        0x8 build/samus/RO/common/switch.o
 .bss           0x00000000200022a0       0x1c build/samus/RO/common/system.o
                0x00000000200022b0                sleep_mask
 .bss           0x00000000200022bc       0xf8 build/samus/RO/common/thermal.o
 .bss           0x00000000200023b4       0x10 build/samus/RO/common/throttle_ap.o
 *fill*         0x00000000200023c4        0x4 
 .bss           0x00000000200023c8       0x80 build/samus/RO/common/timer.o
 .bss           0x0000000020002448     0x20a4 build/samus/RO/common/uart_buffering.o
 .bss           0x00000000200044ec        0x4 build/samus/RO/common/usb_port_power_smart.o
 .bss           0x00000000200044f0       0xe0 build/samus/RO/common/vboot_hash.o
 .bss           0x00000000200045d0        0x4 build/samus/RO/core/cortex-m/panic.o
 *fill*         0x00000000200045d4        0x4 
 .bss           0x00000000200045d8     0x26e0 build/samus/RO/core/cortex-m/task.o
                0x0000000020004970                task_stacks
                0x0000000020006c70                scratchpad
 .bss           0x0000000020006cb8       0x14 build/samus/RO/driver/battery/samus.o
 .bss           0x0000000020006ccc      0x180 build/samus/RO/driver/temp_sensor/tmp006.o
 *fill*         0x0000000020006e4c        0x4 
 .bss           0x0000000020006e50       0x20 build/samus/RO/power/common.o

.bss.slow       0x0000000020006e70      0x3dc
 *(.bss.slow)
 .bss.slow      0x0000000020006e70       0x14 build/samus/RO/common/acpi.o
 *fill*         0x0000000020006e84        0x4 
 .bss.slow      0x0000000020006e88       0x80 build/samus/RO/common/charge_state_v2.o
 .bss.slow      0x0000000020006f08      0x100 build/samus/RO/common/host_command_master.o
 .bss.slow      0x0000000020007008      0x13c build/samus/RO/common/keyboard_scan.o
 .bss.slow      0x0000000020007144      0x108 build/samus/RO/common/port80.o
                0x000000002000724c                . = ALIGN (0x4)
                0x000000002000724c                __bss_end = .

.data           0x0000000020007250      0x434 load address 0x000000000001b460
                0x0000000020007250                . = ALIGN (0x4)
                0x0000000020007250                __data_start = .
 *(.data.tasks)
 *(.data)
 .data          0x0000000020007250      0x2c8 build/samus/RO/board/samus/board.o
                0x0000000020007250                motion_sensors
                0x00000000200073a0                g_kxcj9_data
                0x00000000200073bc                keyscan_config
                0x00000000200073dc                thermal_params
                0x0000000020007508                als
 .data          0x0000000020007518        0x4 build/samus/RO/board/samus/extpower.o
 .data          0x000000002000751c        0x4 build/samus/RO/chip/lm4/chip_temp_sensor.o
 .data          0x0000000020007520        0x8 build/samus/RO/chip/lm4/clock.o
 .data          0x0000000020007528       0x10 build/samus/RO/chip/lm4/system.o
 .data          0x0000000020007538        0x4 build/samus/RO/common/als.o
 .data          0x000000002000753c        0x8 build/samus/RO/common/charge_state_v2.o
 .data          0x0000000020007544        0x4 build/samus/RO/common/charger.o
 .data          0x0000000020007548       0x1c build/samus/RO/common/console_output.o
                0x0000000020007548                ucd_lb_queue
 *fill*         0x0000000020007564        0x4 
 .data          0x0000000020007568       0x10 build/samus/RO/common/hooks.o
 .data          0x0000000020007578        0x1 build/samus/RO/common/host_command.o
 *fill*         0x0000000020007579        0x3 
 .data          0x000000002000757c        0x8 build/samus/RO/common/host_command_pd.o
 .data          0x0000000020007584       0x24 build/samus/RO/common/keyboard_8042.o
 .data          0x00000000200075a8        0x1 build/samus/RO/common/keyboard_scan.o
 *fill*         0x00000000200075a9        0x3 
 .data          0x00000000200075ac        0x4 build/samus/RO/common/lb_common.o
 .data          0x00000000200075b0       0x70 build/samus/RO/common/lightbar.o
                0x00000000200075b0                blink_state
 .data          0x0000000020007620        0x8 build/samus/RO/common/motion_lid.o
                0x0000000020007620                accel_base
                0x0000000020007624                accel_lid
 .data          0x0000000020007628        0x4 build/samus/RO/common/motion_sense.o
                0x0000000020007628                motion_min_interval
 .data          0x000000002000762c        0x4 build/samus/RO/common/port80.o
 .data          0x0000000020007630        0x4 build/samus/RO/common/power_button.o
 .data          0x0000000020007634        0x4 build/samus/RO/common/timer.o
 .data          0x0000000020007638        0x4 build/samus/RO/common/wireless.o
 .data          0x000000002000763c        0x4 build/samus/RO/core/cortex-m/panic.o
 .data          0x0000000020007640        0x8 build/samus/RO/core/cortex-m/task.o
 .data          0x0000000020007648        0x8 build/samus/RO/driver/battery/samus.o
 .data          0x0000000020007650        0x4 build/samus/RO/driver/battery/smart.o
 .data          0x0000000020007654        0x4 build/samus/RO/power/common.o
                0x0000000020007660                . = ALIGN (0x20)
 *fill*         0x0000000020007658        0x8 
                0x0000000020007660                __iram_text_start = .
 *(.iram.text)
 .iram.text     0x0000000020007660        0xc build/samus/RO/chip/lm4/system.o
                0x0000000020007660                __enter_hibernate
                0x0000000020007680                . = ALIGN (0x20)
 *fill*         0x000000002000766c       0x14 
                0x0000000020007680                __iram_text_end = .
                0x0000000020007680                __data_end = .
                0x0000000020007680                __shared_mem_buf = .
                0x0000000020007680                . = ALIGN (0x4)
                0x0000000020007680        0x1 BYTE 0x45
                0x0000000020007681        0x1 BYTE 0x4e
                0x0000000020007682        0x1 BYTE 0x44
                0x0000000020007683        0x1 BYTE 0xea
                0x000000000001b894                __hey_flash_used = ((LOADADDR (.data) + SIZEOF (.data)) - 0x0)
                0x0000000000000001                ASSERT ((0x1f800 >= ((LOADADDR (.data) + SIZEOF (.data)) - 0x0)), No room left in the flash)

.igot.plt       0x0000000020007684        0x0 load address 0x000000000001b894
 .igot.plt      0x0000000020007684        0x0 build/samus/RO/board/samus/board.o

/DISCARD/
 *(.ARM.*)
OUTPUT(build/samus/RO/ec.RO.elf elf32-littlearm)

.debug_info     0x0000000000000000    0x4ea66
 .debug_info    0x0000000000000000     0x14de build/samus/RO/board/samus/board.o
 .debug_info    0x00000000000014de     0x1398 build/samus/RO/board/samus/extpower.o
 .debug_info    0x0000000000002876      0xb77 build/samus/RO/board/samus/panel.o
 .debug_info    0x00000000000033ed     0x18d3 build/samus/RO/board/samus/power_sequence.o
 .debug_info    0x0000000000004cc0      0xb39 build/samus/RO/chip/lm4/adc.o
 .debug_info    0x00000000000057f9      0x258 build/samus/RO/chip/lm4/chip_temp_sensor.o
 .debug_info    0x0000000000005a51      0xf1d build/samus/RO/chip/lm4/clock.o
 .debug_info    0x000000000000696e      0x69b build/samus/RO/chip/lm4/fan.o
 .debug_info    0x0000000000007009      0x60d build/samus/RO/chip/lm4/flash.o
 .debug_info    0x0000000000007616      0xf21 build/samus/RO/chip/lm4/gpio.o
 .debug_info    0x0000000000008537      0x3c1 build/samus/RO/chip/lm4/hwtimer.o
 .debug_info    0x00000000000088f8     0x1322 build/samus/RO/chip/lm4/i2c.o
 .debug_info    0x0000000000009c1a      0x47c build/samus/RO/chip/lm4/jtag.o
 .debug_info    0x000000000000a096      0x2d7 build/samus/RO/chip/lm4/keyboard_raw.o
 .debug_info    0x000000000000a36d     0x1a7b build/samus/RO/chip/lm4/lpc.o
 .debug_info    0x000000000000bde8      0x7ad build/samus/RO/chip/lm4/peci.o
 .debug_info    0x000000000000c595      0x32c build/samus/RO/chip/lm4/pwm.o
 .debug_info    0x000000000000c8c1     0x1370 build/samus/RO/chip/lm4/system.o
 .debug_info    0x000000000000dc31      0xc5c build/samus/RO/chip/lm4/uart.o
 .debug_info    0x000000000000e88d      0x3e5 build/samus/RO/chip/lm4/watchdog.o
 .debug_info    0x000000000000ec72      0x779 build/samus/RO/common/acpi.o
 .debug_info    0x000000000000f3eb      0x5ff build/samus/RO/common/adc.o
 .debug_info    0x000000000000f9ea      0x710 build/samus/RO/common/als.o
 .debug_info    0x00000000000100fa     0x1586 build/samus/RO/common/battery.o
 .debug_info    0x0000000000011680     0x2958 build/samus/RO/common/charge_state_v2.o
 .debug_info    0x0000000000013fd8      0xc79 build/samus/RO/common/charger.o
 .debug_info    0x0000000000014c51      0x407 build/samus/RO/common/chipset.o
 .debug_info    0x0000000000015058     0x11f4 build/samus/RO/common/console.o
 .debug_info    0x000000000001624c      0xa59 build/samus/RO/common/console_output.o
 .debug_info    0x0000000000016ca5     0x1f2c build/samus/RO/common/fan.o
 .debug_info    0x0000000000018bd1     0x1734 build/samus/RO/common/flash.o
 .debug_info    0x000000000001a305      0x230 build/samus/RO/common/fmap.o
 .debug_info    0x000000000001a535      0xc8c build/samus/RO/common/gesture.o
 .debug_info    0x000000000001b1c1     0x117f build/samus/RO/common/gpio.o
 .debug_info    0x000000000001c340      0x8e1 build/samus/RO/common/hooks.o
 .debug_info    0x000000000001cc21     0x16f0 build/samus/RO/common/host_command.o
 .debug_info    0x000000000001e311      0xbc1 build/samus/RO/common/host_command_master.o
 .debug_info    0x000000000001eed2      0x830 build/samus/RO/common/host_command_pd.o
 .debug_info    0x000000000001f702      0xfb6 build/samus/RO/common/host_event_commands.o
 .debug_info    0x00000000000206b8     0x2646 build/samus/RO/common/i2c.o
 .debug_info    0x0000000000022cfe     0x2ced build/samus/RO/common/keyboard_8042.o
 .debug_info    0x00000000000259eb      0x191 build/samus/RO/common/keyboard_8042_sharedlib.o
 .debug_info    0x0000000000025b7c     0x1b26 build/samus/RO/common/keyboard_scan.o
 .debug_info    0x00000000000276a2     0x16f5 build/samus/RO/common/lb_common.o
 .debug_info    0x0000000000028d97      0xc66 build/samus/RO/common/lid_switch.o
 .debug_info    0x00000000000299fd     0x4f4e build/samus/RO/common/lightbar.o
 .debug_info    0x000000000002e94b      0x3e5 build/samus/RO/common/main.o
 .debug_info    0x000000000002ed30      0x526 build/samus/RO/common/math_util.o
 .debug_info    0x000000000002f256      0x7ce build/samus/RO/common/memory_commands.o
 .debug_info    0x000000000002fa24     0x1048 build/samus/RO/common/motion_lid.o
 .debug_info    0x0000000000030a6c     0x2aaf build/samus/RO/common/motion_sense.o
 .debug_info    0x000000000003351b      0xe6c build/samus/RO/common/panic_output.o
 .debug_info    0x0000000000034387      0x989 build/samus/RO/common/port80.o
 .debug_info    0x0000000000034d10      0xcb9 build/samus/RO/common/power_button.o
 .debug_info    0x00000000000359c9      0xea8 build/samus/RO/common/power_button_x86.o
 .debug_info    0x0000000000036871      0x696 build/samus/RO/common/printf.o
 .debug_info    0x0000000000036f07      0x6cd build/samus/RO/common/pwm.o
 .debug_info    0x00000000000375d4      0xa58 build/samus/RO/common/pwm_kblight.o
 .debug_info    0x000000000003802c      0xbaf build/samus/RO/common/queue.o
 .debug_info    0x0000000000038bdb      0x469 build/samus/RO/common/sha256.o
 .debug_info    0x0000000000039044      0x4bf build/samus/RO/common/shared_mem.o
 .debug_info    0x0000000000039503      0x867 build/samus/RO/common/switch.o
 .debug_info    0x0000000000039d6a     0x27ca build/samus/RO/common/system.o
 .debug_info    0x000000000003c534      0xaaa build/samus/RO/common/temp_sensor.o
 .debug_info    0x000000000003cfde     0x17c4 build/samus/RO/common/thermal.o
 .debug_info    0x000000000003e7a2      0x5d9 build/samus/RO/common/throttle_ap.o
 .debug_info    0x000000000003ed7b      0xf6a build/samus/RO/common/timer.o
 .debug_info    0x000000000003fce5      0x95e build/samus/RO/common/uart_buffering.o
 .debug_info    0x0000000000040643      0xed6 build/samus/RO/common/usb_port_power_smart.o
 .debug_info    0x0000000000041519      0xbe3 build/samus/RO/common/util.o
 .debug_info    0x00000000000420fc     0x103a build/samus/RO/common/vboot_hash.o
 .debug_info    0x0000000000043136      0x152 build/samus/RO/common/version.o
 .debug_info    0x0000000000043288      0x9c1 build/samus/RO/common/wireless.o
 .debug_info    0x0000000000043c49       0xe9 build/samus/RO/core/cortex-m/cpu.o
 .debug_info    0x0000000000043d32       0x65 build/samus/RO/core/cortex-m/init.o
 .debug_info    0x0000000000043d97      0x6dc build/samus/RO/core/cortex-m/mpu.o
 .debug_info    0x0000000000044473      0xc4b build/samus/RO/core/cortex-m/panic.o
 .debug_info    0x00000000000450be       0x67 build/samus/RO/core/cortex-m/switch.o
 .debug_info    0x0000000000045125     0x1771 build/samus/RO/core/cortex-m/task.o
 .debug_info    0x0000000000046896       0x69 build/samus/RO/core/cortex-m/uldivmod.o
 .debug_info    0x00000000000468ff      0x1b0 build/samus/RO/core/cortex-m/watchdog.o
 .debug_info    0x0000000000046aaf     0x15e1 build/samus/RO/driver/accel_kionix.o
 .debug_info    0x0000000000048090     0x14fd build/samus/RO/driver/accelgyro_lsm6ds0.o
 .debug_info    0x000000000004958d      0x24c build/samus/RO/driver/als_isl29035.o
 .debug_info    0x00000000000497d9      0xc9b build/samus/RO/driver/battery/samus.o
 .debug_info    0x000000000004a474     0x11f3 build/samus/RO/driver/battery/smart.o
 .debug_info    0x000000000004b667      0x9f8 build/samus/RO/driver/charger/bq24773.o
 .debug_info    0x000000000004c05f     0x1321 build/samus/RO/driver/temp_sensor/tmp006.o
 .debug_info    0x000000000004d380     0x16e6 build/samus/RO/power/common.o

.debug_abbrev   0x0000000000000000     0xfa70
 .debug_abbrev  0x0000000000000000      0x250 build/samus/RO/board/samus/board.o
 .debug_abbrev  0x0000000000000250      0x3d2 build/samus/RO/board/samus/extpower.o
 .debug_abbrev  0x0000000000000622      0x222 build/samus/RO/board/samus/panel.o
 .debug_abbrev  0x0000000000000844      0x2e3 build/samus/RO/board/samus/power_sequence.o
 .debug_abbrev  0x0000000000000b27      0x314 build/samus/RO/chip/lm4/adc.o
 .debug_abbrev  0x0000000000000e3b      0x11a build/samus/RO/chip/lm4/chip_temp_sensor.o
 .debug_abbrev  0x0000000000000f55      0x3d0 build/samus/RO/chip/lm4/clock.o
 .debug_abbrev  0x0000000000001325      0x24b build/samus/RO/chip/lm4/fan.o
 .debug_abbrev  0x0000000000001570      0x280 build/samus/RO/chip/lm4/flash.o
 .debug_abbrev  0x00000000000017f0      0x32d build/samus/RO/chip/lm4/gpio.o
 .debug_abbrev  0x0000000000001b1d      0x238 build/samus/RO/chip/lm4/hwtimer.o
 .debug_abbrev  0x0000000000001d55      0x3a0 build/samus/RO/chip/lm4/i2c.o
 .debug_abbrev  0x00000000000020f5      0x195 build/samus/RO/chip/lm4/jtag.o
 .debug_abbrev  0x000000000000228a      0x1c5 build/samus/RO/chip/lm4/keyboard_raw.o
 .debug_abbrev  0x000000000000244f      0x4e8 build/samus/RO/chip/lm4/lpc.o
 .debug_abbrev  0x0000000000002937      0x235 build/samus/RO/chip/lm4/peci.o
 .debug_abbrev  0x0000000000002b6c      0x1c0 build/samus/RO/chip/lm4/pwm.o
 .debug_abbrev  0x0000000000002d2c      0x4a9 build/samus/RO/chip/lm4/system.o
 .debug_abbrev  0x00000000000031d5      0x364 build/samus/RO/chip/lm4/uart.o
 .debug_abbrev  0x0000000000003539      0x1df build/samus/RO/chip/lm4/watchdog.o
 .debug_abbrev  0x0000000000003718      0x252 build/samus/RO/common/acpi.o
 .debug_abbrev  0x000000000000396a      0x1ad build/samus/RO/common/adc.o
 .debug_abbrev  0x0000000000003b17      0x2a8 build/samus/RO/common/als.o
 .debug_abbrev  0x0000000000003dbf      0x396 build/samus/RO/common/battery.o
 .debug_abbrev  0x0000000000004155      0x576 build/samus/RO/common/charge_state_v2.o
 .debug_abbrev  0x00000000000046cb      0x2aa build/samus/RO/common/charger.o
 .debug_abbrev  0x0000000000004975      0x159 build/samus/RO/common/chipset.o
 .debug_abbrev  0x0000000000004ace      0x3a5 build/samus/RO/common/console.o
 .debug_abbrev  0x0000000000004e73      0x2cc build/samus/RO/common/console_output.o
 .debug_abbrev  0x000000000000513f      0x4a0 build/samus/RO/common/fan.o
 .debug_abbrev  0x00000000000055df      0x37c build/samus/RO/common/flash.o
 .debug_abbrev  0x000000000000595b       0xa0 build/samus/RO/common/fmap.o
 .debug_abbrev  0x00000000000059fb      0x273 build/samus/RO/common/gesture.o
 .debug_abbrev  0x0000000000005c6e      0x36d build/samus/RO/common/gpio.o
 .debug_abbrev  0x0000000000005fdb      0x255 build/samus/RO/common/hooks.o
 .debug_abbrev  0x0000000000006230      0x4fb build/samus/RO/common/host_command.o
 .debug_abbrev  0x000000000000672b      0x248 build/samus/RO/common/host_command_master.o
 .debug_abbrev  0x0000000000006973      0x295 build/samus/RO/common/host_command_pd.o
 .debug_abbrev  0x0000000000006c08      0x31a build/samus/RO/common/host_event_commands.o
 .debug_abbrev  0x0000000000006f22      0x4e2 build/samus/RO/common/i2c.o
 .debug_abbrev  0x0000000000007404      0x4dc build/samus/RO/common/keyboard_8042.o
 .debug_abbrev  0x00000000000078e0       0xa4 build/samus/RO/common/keyboard_8042_sharedlib.o
 .debug_abbrev  0x0000000000007984      0x4dd build/samus/RO/common/keyboard_scan.o
 .debug_abbrev  0x0000000000007e61      0x389 build/samus/RO/common/lb_common.o
 .debug_abbrev  0x00000000000081ea      0x2af build/samus/RO/common/lid_switch.o
 .debug_abbrev  0x0000000000008499      0x57d build/samus/RO/common/lightbar.o
 .debug_abbrev  0x0000000000008a16      0x103 build/samus/RO/common/main.o
 .debug_abbrev  0x0000000000008b19      0x1ed build/samus/RO/common/math_util.o
 .debug_abbrev  0x0000000000008d06      0x22d build/samus/RO/common/memory_commands.o
 .debug_abbrev  0x0000000000008f33      0x2ef build/samus/RO/common/motion_lid.o
 .debug_abbrev  0x0000000000009222      0x535 build/samus/RO/common/motion_sense.o
 .debug_abbrev  0x0000000000009757      0x371 build/samus/RO/common/panic_output.o
 .debug_abbrev  0x0000000000009ac8      0x2a5 build/samus/RO/common/port80.o
 .debug_abbrev  0x0000000000009d6d      0x2f1 build/samus/RO/common/power_button.o
 .debug_abbrev  0x000000000000a05e      0x35d build/samus/RO/common/power_button_x86.o
 .debug_abbrev  0x000000000000a3bb      0x34c build/samus/RO/common/printf.o
 .debug_abbrev  0x000000000000a707      0x1db build/samus/RO/common/pwm.o
 .debug_abbrev  0x000000000000a8e2      0x28e build/samus/RO/common/pwm_kblight.o
 .debug_abbrev  0x000000000000ab70      0x207 build/samus/RO/common/queue.o
 .debug_abbrev  0x000000000000ad77      0x1a7 build/samus/RO/common/sha256.o
 .debug_abbrev  0x000000000000af1e      0x1c6 build/samus/RO/common/shared_mem.o
 .debug_abbrev  0x000000000000b0e4      0x1cd build/samus/RO/common/switch.o
 .debug_abbrev  0x000000000000b2b1      0x5b0 build/samus/RO/common/system.o
 .debug_abbrev  0x000000000000b861      0x2a7 build/samus/RO/common/temp_sensor.o
 .debug_abbrev  0x000000000000bb08      0x438 build/samus/RO/common/thermal.o
 .debug_abbrev  0x000000000000bf40      0x195 build/samus/RO/common/throttle_ap.o
 .debug_abbrev  0x000000000000c0d5      0x3d7 build/samus/RO/common/timer.o
 .debug_abbrev  0x000000000000c4ac      0x384 build/samus/RO/common/uart_buffering.o
 .debug_abbrev  0x000000000000c830      0x313 build/samus/RO/common/usb_port_power_smart.o
 .debug_abbrev  0x000000000000cb43      0x2bb build/samus/RO/common/util.o
 .debug_abbrev  0x000000000000cdfe      0x3d2 build/samus/RO/common/vboot_hash.o
 .debug_abbrev  0x000000000000d1d0       0xb9 build/samus/RO/common/version.o
 .debug_abbrev  0x000000000000d289      0x27c build/samus/RO/common/wireless.o
 .debug_abbrev  0x000000000000d505       0x65 build/samus/RO/core/cortex-m/cpu.o
 .debug_abbrev  0x000000000000d56a       0x14 build/samus/RO/core/cortex-m/init.o
 .debug_abbrev  0x000000000000d57e      0x1db build/samus/RO/core/cortex-m/mpu.o
 .debug_abbrev  0x000000000000d759      0x33a build/samus/RO/core/cortex-m/panic.o
 .debug_abbrev  0x000000000000da93       0x14 build/samus/RO/core/cortex-m/switch.o
 .debug_abbrev  0x000000000000daa7      0x53e build/samus/RO/core/cortex-m/task.o
 .debug_abbrev  0x000000000000dfe5       0x14 build/samus/RO/core/cortex-m/uldivmod.o
 .debug_abbrev  0x000000000000dff9      0x103 build/samus/RO/core/cortex-m/watchdog.o
 .debug_abbrev  0x000000000000e0fc      0x39c build/samus/RO/driver/accel_kionix.o
 .debug_abbrev  0x000000000000e498      0x3f0 build/samus/RO/driver/accelgyro_lsm6ds0.o
 .debug_abbrev  0x000000000000e888      0x104 build/samus/RO/driver/als_isl29035.o
 .debug_abbrev  0x000000000000e98c      0x274 build/samus/RO/driver/battery/samus.o
 .debug_abbrev  0x000000000000ec00      0x39b build/samus/RO/driver/battery/smart.o
 .debug_abbrev  0x000000000000ef9b      0x1e9 build/samus/RO/driver/charger/bq24773.o
 .debug_abbrev  0x000000000000f184      0x3eb build/samus/RO/driver/temp_sensor/tmp006.o
 .debug_abbrev  0x000000000000f56f      0x501 build/samus/RO/power/common.o

.debug_loc      0x0000000000000000    0x1b784
 .debug_loc     0x0000000000000000       0x4d build/samus/RO/board/samus/board.o
 .debug_loc     0x000000000000004d      0x360 build/samus/RO/board/samus/extpower.o
 .debug_loc     0x00000000000003ad      0x195 build/samus/RO/board/samus/panel.o
 .debug_loc     0x0000000000000542      0x40d build/samus/RO/board/samus/power_sequence.o
 .debug_loc     0x000000000000094f      0x22a build/samus/RO/chip/lm4/adc.o
 .debug_loc     0x0000000000000b79       0x21 build/samus/RO/chip/lm4/chip_temp_sensor.o
 .debug_loc     0x0000000000000b9a      0x39a build/samus/RO/chip/lm4/clock.o
 .debug_loc     0x0000000000000f34      0x462 build/samus/RO/chip/lm4/fan.o
 .debug_loc     0x0000000000001396      0x3f3 build/samus/RO/chip/lm4/flash.o
 .debug_loc     0x0000000000001789      0x504 build/samus/RO/chip/lm4/gpio.o
 .debug_loc     0x0000000000001c8d       0xca build/samus/RO/chip/lm4/hwtimer.o
 .debug_loc     0x0000000000001d57      0x5b1 build/samus/RO/chip/lm4/i2c.o
 .debug_loc     0x0000000000002308       0x21 build/samus/RO/chip/lm4/jtag.o
 .debug_loc     0x0000000000002329       0x1e build/samus/RO/chip/lm4/keyboard_raw.o
 .debug_loc     0x0000000000002347      0x66b build/samus/RO/chip/lm4/lpc.o
 .debug_loc     0x00000000000029b2      0x252 build/samus/RO/chip/lm4/peci.o
 .debug_loc     0x0000000000002c04       0xdc build/samus/RO/chip/lm4/pwm.o
 .debug_loc     0x0000000000002ce0      0x77c build/samus/RO/chip/lm4/system.o
 .debug_loc     0x000000000000345c       0x8d build/samus/RO/chip/lm4/uart.o
 .debug_loc     0x00000000000034e9       0x13 build/samus/RO/chip/lm4/watchdog.o
 .debug_loc     0x00000000000034fc      0x599 build/samus/RO/common/acpi.o
 .debug_loc     0x0000000000003a95      0x19e build/samus/RO/common/adc.o
 .debug_loc     0x0000000000003c33       0xf6 build/samus/RO/common/als.o
 .debug_loc     0x0000000000003d29      0x419 build/samus/RO/common/battery.o
 .debug_loc     0x0000000000004142      0xb5d build/samus/RO/common/charge_state_v2.o
 .debug_loc     0x0000000000004c9f      0x254 build/samus/RO/common/charger.o
 .debug_loc     0x0000000000004ef3       0x84 build/samus/RO/common/chipset.o
 .debug_loc     0x0000000000004f77      0x79e build/samus/RO/common/console.o
 .debug_loc     0x0000000000005715      0x2e0 build/samus/RO/common/console_output.o
 .debug_loc     0x00000000000059f5      0xf21 build/samus/RO/common/fan.o
 .debug_loc     0x0000000000006916      0x925 build/samus/RO/common/flash.o
 .debug_loc     0x000000000000723b      0x359 build/samus/RO/common/gesture.o
 .debug_loc     0x0000000000007594      0x762 build/samus/RO/common/gpio.o
 .debug_loc     0x0000000000007cf6      0x21e build/samus/RO/common/hooks.o
 .debug_loc     0x0000000000007f14      0x908 build/samus/RO/common/host_command.o
 .debug_loc     0x000000000000881c      0x6d9 build/samus/RO/common/host_command_master.o
 .debug_loc     0x0000000000008ef5      0x18c build/samus/RO/common/host_command_pd.o
 .debug_loc     0x0000000000009081      0x3f3 build/samus/RO/common/host_event_commands.o
 .debug_loc     0x0000000000009474     0x132e build/samus/RO/common/i2c.o
 .debug_loc     0x000000000000a7a2     0x119b build/samus/RO/common/keyboard_8042.o
 .debug_loc     0x000000000000b93d      0x95a build/samus/RO/common/keyboard_scan.o
 .debug_loc     0x000000000000c297      0x622 build/samus/RO/common/lb_common.o
 .debug_loc     0x000000000000c8b9       0xe9 build/samus/RO/common/lid_switch.o
 .debug_loc     0x000000000000c9a2     0x1fe4 build/samus/RO/common/lightbar.o
 .debug_loc     0x000000000000e986      0x734 build/samus/RO/common/math_util.o
 .debug_loc     0x000000000000f0ba      0x3f2 build/samus/RO/common/memory_commands.o
 .debug_loc     0x000000000000f4ac      0x178 build/samus/RO/common/motion_lid.o
 .debug_loc     0x000000000000f624     0x1387 build/samus/RO/common/motion_sense.o
 .debug_loc     0x00000000000109ab      0x367 build/samus/RO/common/panic_output.o
 .debug_loc     0x0000000000010d12      0x3a2 build/samus/RO/common/port80.o
 .debug_loc     0x00000000000110b4      0x167 build/samus/RO/common/power_button.o
 .debug_loc     0x000000000001121b      0x1df build/samus/RO/common/power_button_x86.o
 .debug_loc     0x00000000000113fa      0x9a9 build/samus/RO/common/printf.o
 .debug_loc     0x0000000000011da3      0x155 build/samus/RO/common/pwm.o
 .debug_loc     0x0000000000011ef8      0x108 build/samus/RO/common/pwm_kblight.o
 .debug_loc     0x0000000000012000      0xadc build/samus/RO/common/queue.o
 .debug_loc     0x0000000000012adc      0x483 build/samus/RO/common/sha256.o
 .debug_loc     0x0000000000012f5f       0x9a build/samus/RO/common/shared_mem.o
 .debug_loc     0x0000000000012ff9       0xa8 build/samus/RO/common/switch.o
 .debug_loc     0x00000000000130a1      0xd90 build/samus/RO/common/system.o
 .debug_loc     0x0000000000013e31      0x348 build/samus/RO/common/temp_sensor.o
 .debug_loc     0x0000000000014179      0x980 build/samus/RO/common/thermal.o
 .debug_loc     0x0000000000014af9      0x140 build/samus/RO/common/throttle_ap.o
 .debug_loc     0x0000000000014c39      0x610 build/samus/RO/common/timer.o
 .debug_loc     0x0000000000015249      0x340 build/samus/RO/common/uart_buffering.o
 .debug_loc     0x0000000000015589      0x428 build/samus/RO/common/usb_port_power_smart.o
 .debug_loc     0x00000000000159b1      0xfcc build/samus/RO/common/util.o
 .debug_loc     0x000000000001697d      0x65a build/samus/RO/common/vboot_hash.o
 .debug_loc     0x0000000000016fd7       0x8f build/samus/RO/common/version.o
 .debug_loc     0x0000000000017066      0x1b8 build/samus/RO/common/wireless.o
 .debug_loc     0x000000000001721e      0x28b build/samus/RO/core/cortex-m/mpu.o
 .debug_loc     0x00000000000174a9      0x483 build/samus/RO/core/cortex-m/panic.o
 .debug_loc     0x000000000001792c      0xa68 build/samus/RO/core/cortex-m/task.o
 .debug_loc     0x0000000000018394       0x68 build/samus/RO/core/cortex-m/watchdog.o
 .debug_loc     0x00000000000183fc      0xb01 build/samus/RO/driver/accel_kionix.o
 .debug_loc     0x0000000000018efd      0xa02 build/samus/RO/driver/accelgyro_lsm6ds0.o
 .debug_loc     0x00000000000198ff       0xa3 build/samus/RO/driver/als_isl29035.o
 .debug_loc     0x00000000000199a2      0x214 build/samus/RO/driver/battery/samus.o
 .debug_loc     0x0000000000019bb6      0x9ce build/samus/RO/driver/battery/smart.o
 .debug_loc     0x000000000001a584      0x4be build/samus/RO/driver/charger/bq24773.o
 .debug_loc     0x000000000001aa42      0x627 build/samus/RO/driver/temp_sensor/tmp006.o
 .debug_loc     0x000000000001b069      0x71b build/samus/RO/power/common.o

.debug_aranges  0x0000000000000000     0x2588
 .debug_aranges
                0x0000000000000000       0x40 build/samus/RO/board/samus/board.o
 .debug_aranges
                0x0000000000000040       0x90 build/samus/RO/board/samus/extpower.o
 .debug_aranges
                0x00000000000000d0       0x58 build/samus/RO/board/samus/panel.o
 .debug_aranges
                0x0000000000000128       0x58 build/samus/RO/board/samus/power_sequence.o
 .debug_aranges
                0x0000000000000180       0x78 build/samus/RO/chip/lm4/adc.o
 .debug_aranges
                0x00000000000001f8       0x28 build/samus/RO/chip/lm4/chip_temp_sensor.o
 .debug_aranges
                0x0000000000000220       0x70 build/samus/RO/chip/lm4/clock.o
 .debug_aranges
                0x0000000000000290       0x80 build/samus/RO/chip/lm4/fan.o
 .debug_aranges
                0x0000000000000310       0x60 build/samus/RO/chip/lm4/flash.o
 .debug_aranges
                0x0000000000000370      0x140 build/samus/RO/chip/lm4/gpio.o
 .debug_aranges
                0x00000000000004b0       0x60 build/samus/RO/chip/lm4/hwtimer.o
 .debug_aranges
                0x0000000000000510       0xd0 build/samus/RO/chip/lm4/i2c.o
 .debug_aranges
                0x00000000000005e0       0x28 build/samus/RO/chip/lm4/jtag.o
 .debug_aranges
                0x0000000000000608       0x50 build/samus/RO/chip/lm4/keyboard_raw.o
 .debug_aranges
                0x0000000000000658      0x100 build/samus/RO/chip/lm4/lpc.o
 .debug_aranges
                0x0000000000000758       0x48 build/samus/RO/chip/lm4/peci.o
 .debug_aranges
                0x00000000000007a0       0x40 build/samus/RO/chip/lm4/pwm.o
 .debug_aranges
                0x00000000000007e0       0xf8 build/samus/RO/chip/lm4/system.o
 .debug_aranges
                0x00000000000008d8       0xc8 build/samus/RO/chip/lm4/uart.o
 .debug_aranges
                0x00000000000009a0       0x38 build/samus/RO/chip/lm4/watchdog.o
 .debug_aranges
                0x00000000000009d8       0x28 build/samus/RO/common/acpi.o
 .debug_aranges
                0x0000000000000a00       0x20 build/samus/RO/common/adc.o
 .debug_aranges
                0x0000000000000a20       0x40 build/samus/RO/common/als.o
 .debug_aranges
                0x0000000000000a60       0x68 build/samus/RO/common/battery.o
 .debug_aranges
                0x0000000000000ac8       0xb8 build/samus/RO/common/charge_state_v2.o
 .debug_aranges
                0x0000000000000b80       0x68 build/samus/RO/common/charger.o
 .debug_aranges
                0x0000000000000be8       0x28 build/samus/RO/common/chipset.o
 .debug_aranges
                0x0000000000000c10       0x58 build/samus/RO/common/console.o
 .debug_aranges
                0x0000000000000c68       0x60 build/samus/RO/common/console_output.o
 .debug_aranges
                0x0000000000000cc8       0xb0 build/samus/RO/common/fan.o
 .debug_aranges
                0x0000000000000d78       0xa0 build/samus/RO/common/flash.o
 .debug_aranges
                0x0000000000000e18       0x18 build/samus/RO/common/fmap.o
 .debug_aranges
                0x0000000000000e30       0x38 build/samus/RO/common/gesture.o
 .debug_aranges
                0x0000000000000e68       0x68 build/samus/RO/common/gpio.o
 .debug_aranges
                0x0000000000000ed0       0x30 build/samus/RO/common/hooks.o
 .debug_aranges
                0x0000000000000f00       0xa0 build/samus/RO/common/host_command.o
 .debug_aranges
                0x0000000000000fa0       0x28 build/samus/RO/common/host_command_master.o
 .debug_aranges
                0x0000000000000fc8       0x40 build/samus/RO/common/host_command_pd.o
 .debug_aranges
                0x0000000000001008       0x98 build/samus/RO/common/host_event_commands.o
 .debug_aranges
                0x00000000000010a0       0xc8 build/samus/RO/common/i2c.o
 .debug_aranges
                0x0000000000001168       0xc0 build/samus/RO/common/keyboard_8042.o
 .debug_aranges
                0x0000000000001228       0x18 build/samus/RO/common/keyboard_8042_sharedlib.o
 .debug_aranges
                0x0000000000001240       0x90 build/samus/RO/common/keyboard_scan.o
 .debug_aranges
                0x00000000000012d0       0x70 build/samus/RO/common/lb_common.o
 .debug_aranges
                0x0000000000001340       0x60 build/samus/RO/common/lid_switch.o
 .debug_aranges
                0x00000000000013a0      0x1b0 build/samus/RO/common/lightbar.o
 .debug_aranges
                0x0000000000001550       0x20 build/samus/RO/common/main.o
 .debug_aranges
                0x0000000000001570       0x48 build/samus/RO/common/math_util.o
 .debug_aranges
                0x00000000000015b8       0x28 build/samus/RO/common/memory_commands.o
 .debug_aranges
                0x00000000000015e0       0x30 build/samus/RO/common/motion_lid.o
 .debug_aranges
                0x0000000000001610       0xb8 build/samus/RO/common/motion_sense.o
 .debug_aranges
                0x00000000000016c8       0x70 build/samus/RO/common/panic_output.o
 .debug_aranges
                0x0000000000001738       0x38 build/samus/RO/common/port80.o
 .debug_aranges
                0x0000000000001770       0x50 build/samus/RO/common/power_button.o
 .debug_aranges
                0x00000000000017c0       0x60 build/samus/RO/common/power_button_x86.o
 .debug_aranges
                0x0000000000001820       0x30 build/samus/RO/common/printf.o
 .debug_aranges
                0x0000000000001850       0x30 build/samus/RO/common/pwm.o
 .debug_aranges
                0x0000000000001880       0x58 build/samus/RO/common/pwm_kblight.o
 .debug_aranges
                0x00000000000018d8       0xb0 build/samus/RO/common/queue.o
 .debug_aranges
                0x0000000000001988       0x38 build/samus/RO/common/sha256.o
 .debug_aranges
                0x00000000000019c0       0x38 build/samus/RO/common/shared_mem.o
 .debug_aranges
                0x00000000000019f8       0x38 build/samus/RO/common/switch.o
 .debug_aranges
                0x0000000000001a30      0x138 build/samus/RO/common/system.o
 .debug_aranges
                0x0000000000001b68       0x40 build/samus/RO/common/temp_sensor.o
 .debug_aranges
                0x0000000000001ba8       0x68 build/samus/RO/common/thermal.o
 .debug_aranges
                0x0000000000001c10       0x28 build/samus/RO/common/throttle_ap.o
 .debug_aranges
                0x0000000000001c38       0x90 build/samus/RO/common/timer.o
 .debug_aranges
                0x0000000000001cc8       0x80 build/samus/RO/common/uart_buffering.o
 .debug_aranges
                0x0000000000001d48       0x68 build/samus/RO/common/usb_port_power_smart.o
 .debug_aranges
                0x0000000000001db0       0xd8 build/samus/RO/common/util.o
 .debug_aranges
                0x0000000000001e88       0x60 build/samus/RO/common/vboot_hash.o
 .debug_aranges
                0x0000000000001ee8       0x20 build/samus/RO/common/version.o
 .debug_aranges
                0x0000000000001f08       0x40 build/samus/RO/common/wireless.o
 .debug_aranges
                0x0000000000001f48       0x20 build/samus/RO/core/cortex-m/cpu.o
 .debug_aranges
                0x0000000000001f68       0x20 build/samus/RO/core/cortex-m/init.o
 .debug_aranges
                0x0000000000001f88       0x58 build/samus/RO/core/cortex-m/mpu.o
 .debug_aranges
                0x0000000000001fe0       0x68 build/samus/RO/core/cortex-m/panic.o
 .debug_aranges
                0x0000000000002048       0x20 build/samus/RO/core/cortex-m/switch.o
 .debug_aranges
                0x0000000000002068       0xf8 build/samus/RO/core/cortex-m/task.o
 .debug_aranges
                0x0000000000002160       0x20 build/samus/RO/core/cortex-m/uldivmod.o
 .debug_aranges
                0x0000000000002180       0x20 build/samus/RO/core/cortex-m/watchdog.o
 .debug_aranges
                0x00000000000021a0       0x80 build/samus/RO/driver/accel_kionix.o
 .debug_aranges
                0x0000000000002220       0x70 build/samus/RO/driver/accelgyro_lsm6ds0.o
 .debug_aranges
                0x0000000000002290       0x28 build/samus/RO/driver/als_isl29035.o
 .debug_aranges
                0x00000000000022b8       0x50 build/samus/RO/driver/battery/samus.o
 .debug_aranges
                0x0000000000002308       0xe8 build/samus/RO/driver/battery/smart.o
 .debug_aranges
                0x00000000000023f0       0x90 build/samus/RO/driver/charger/bq24773.o
 .debug_aranges
                0x0000000000002480       0x50 build/samus/RO/driver/temp_sensor/tmp006.o
 .debug_aranges
                0x00000000000024d0       0xb8 build/samus/RO/power/common.o

.debug_ranges   0x0000000000000000     0x3870
 .debug_ranges  0x0000000000000000       0x30 build/samus/RO/board/samus/board.o
 .debug_ranges  0x0000000000000030       0xd0 build/samus/RO/board/samus/extpower.o
 .debug_ranges  0x0000000000000100       0x48 build/samus/RO/board/samus/panel.o
 .debug_ranges  0x0000000000000148       0x60 build/samus/RO/board/samus/power_sequence.o
 .debug_ranges  0x00000000000001a8       0xd8 build/samus/RO/chip/lm4/adc.o
 .debug_ranges  0x0000000000000280       0x18 build/samus/RO/chip/lm4/chip_temp_sensor.o
 .debug_ranges  0x0000000000000298       0x78 build/samus/RO/chip/lm4/clock.o
 .debug_ranges  0x0000000000000310       0xa0 build/samus/RO/chip/lm4/fan.o
 .debug_ranges  0x00000000000003b0       0x70 build/samus/RO/chip/lm4/flash.o
 .debug_ranges  0x0000000000000420      0x1d8 build/samus/RO/chip/lm4/gpio.o
 .debug_ranges  0x00000000000005f8       0x50 build/samus/RO/chip/lm4/hwtimer.o
 .debug_ranges  0x0000000000000648      0x108 build/samus/RO/chip/lm4/i2c.o
 .debug_ranges  0x0000000000000750       0x18 build/samus/RO/chip/lm4/jtag.o
 .debug_ranges  0x0000000000000768       0x58 build/samus/RO/chip/lm4/keyboard_raw.o
 .debug_ranges  0x00000000000007c0      0x1c8 build/samus/RO/chip/lm4/lpc.o
 .debug_ranges  0x0000000000000988       0x38 build/samus/RO/chip/lm4/peci.o
 .debug_ranges  0x00000000000009c0       0x30 build/samus/RO/chip/lm4/pwm.o
 .debug_ranges  0x00000000000009f0      0x168 build/samus/RO/chip/lm4/system.o
 .debug_ranges  0x0000000000000b58       0xe8 build/samus/RO/chip/lm4/uart.o
 .debug_ranges  0x0000000000000c40       0x28 build/samus/RO/chip/lm4/watchdog.o
 .debug_ranges  0x0000000000000c68       0x18 build/samus/RO/common/acpi.o
 .debug_ranges  0x0000000000000c80       0x28 build/samus/RO/common/adc.o
 .debug_ranges  0x0000000000000ca8       0x48 build/samus/RO/common/als.o
 .debug_ranges  0x0000000000000cf0       0x88 build/samus/RO/common/battery.o
 .debug_ranges  0x0000000000000d78      0x160 build/samus/RO/common/charge_state_v2.o
 .debug_ranges  0x0000000000000ed8       0x58 build/samus/RO/common/charger.o
 .debug_ranges  0x0000000000000f30       0x18 build/samus/RO/common/chipset.o
 .debug_ranges  0x0000000000000f48      0x140 build/samus/RO/common/console.o
 .debug_ranges  0x0000000000001088       0x50 build/samus/RO/common/console_output.o
 .debug_ranges  0x00000000000010d8      0x1d0 build/samus/RO/common/fan.o
 .debug_ranges  0x00000000000012a8      0x138 build/samus/RO/common/flash.o
 .debug_ranges  0x00000000000013e0       0x28 build/samus/RO/common/gesture.o
 .debug_ranges  0x0000000000001408       0x70 build/samus/RO/common/gpio.o
 .debug_ranges  0x0000000000001478       0x38 build/samus/RO/common/hooks.o
 .debug_ranges  0x00000000000014b0      0x108 build/samus/RO/common/host_command.o
 .debug_ranges  0x00000000000015b8       0x30 build/samus/RO/common/host_command_master.o
 .debug_ranges  0x00000000000015e8       0x68 build/samus/RO/common/host_command_pd.o
 .debug_ranges  0x0000000000001650       0x88 build/samus/RO/common/host_event_commands.o
 .debug_ranges  0x00000000000016d8      0x178 build/samus/RO/common/i2c.o
 .debug_ranges  0x0000000000001850      0x238 build/samus/RO/common/keyboard_8042.o
 .debug_ranges  0x0000000000001a88      0x138 build/samus/RO/common/keyboard_scan.o
 .debug_ranges  0x0000000000001bc0       0xf0 build/samus/RO/common/lb_common.o
 .debug_ranges  0x0000000000001cb0       0x80 build/samus/RO/common/lid_switch.o
 .debug_ranges  0x0000000000001d30      0x440 build/samus/RO/common/lightbar.o
 .debug_ranges  0x0000000000002170       0x10 build/samus/RO/common/main.o
 .debug_ranges  0x0000000000002180       0x50 build/samus/RO/common/math_util.o
 .debug_ranges  0x00000000000021d0       0x18 build/samus/RO/common/memory_commands.o
 .debug_ranges  0x00000000000021e8       0x20 build/samus/RO/common/motion_lid.o
 .debug_ranges  0x0000000000002208      0x128 build/samus/RO/common/motion_sense.o
 .debug_ranges  0x0000000000002330       0x60 build/samus/RO/common/panic_output.o
 .debug_ranges  0x0000000000002390       0x48 build/samus/RO/common/port80.o
 .debug_ranges  0x00000000000023d8       0xc0 build/samus/RO/common/power_button.o
 .debug_ranges  0x0000000000002498       0xf8 build/samus/RO/common/power_button_x86.o
 .debug_ranges  0x0000000000002590       0x58 build/samus/RO/common/printf.o
 .debug_ranges  0x00000000000025e8       0x38 build/samus/RO/common/pwm.o
 .debug_ranges  0x0000000000002620       0x48 build/samus/RO/common/pwm_kblight.o
 .debug_ranges  0x0000000000002668      0x140 build/samus/RO/common/queue.o
 .debug_ranges  0x00000000000027a8       0x28 build/samus/RO/common/sha256.o
 .debug_ranges  0x00000000000027d0       0x28 build/samus/RO/common/shared_mem.o
 .debug_ranges  0x00000000000027f8       0x28 build/samus/RO/common/switch.o
 .debug_ranges  0x0000000000002820      0x1c0 build/samus/RO/common/system.o
 .debug_ranges  0x00000000000029e0       0x30 build/samus/RO/common/temp_sensor.o
 .debug_ranges  0x0000000000002a10       0x90 build/samus/RO/common/thermal.o
 .debug_ranges  0x0000000000002aa0       0x18 build/samus/RO/common/throttle_ap.o
 .debug_ranges  0x0000000000002ab8       0xb0 build/samus/RO/common/timer.o
 .debug_ranges  0x0000000000002b68       0x88 build/samus/RO/common/uart_buffering.o
 .debug_ranges  0x0000000000002bf0       0xa0 build/samus/RO/common/usb_port_power_smart.o
 .debug_ranges  0x0000000000002c90       0xc8 build/samus/RO/common/util.o
 .debug_ranges  0x0000000000002d58       0xc8 build/samus/RO/common/vboot_hash.o
 .debug_ranges  0x0000000000002e20       0x10 build/samus/RO/common/version.o
 .debug_ranges  0x0000000000002e30       0x30 build/samus/RO/common/wireless.o
 .debug_ranges  0x0000000000002e60       0x10 build/samus/RO/core/cortex-m/cpu.o
 .debug_ranges  0x0000000000002e70       0x60 build/samus/RO/core/cortex-m/mpu.o
 .debug_ranges  0x0000000000002ed0       0xe0 build/samus/RO/core/cortex-m/panic.o
 .debug_ranges  0x0000000000002fb0      0x1e0 build/samus/RO/core/cortex-m/task.o
 .debug_ranges  0x0000000000003190       0x10 build/samus/RO/core/cortex-m/watchdog.o
 .debug_ranges  0x00000000000031a0      0x100 build/samus/RO/driver/accel_kionix.o
 .debug_ranges  0x00000000000032a0      0x188 build/samus/RO/driver/accelgyro_lsm6ds0.o
 .debug_ranges  0x0000000000003428       0x18 build/samus/RO/driver/als_isl29035.o
 .debug_ranges  0x0000000000003440       0x40 build/samus/RO/driver/battery/samus.o
 .debug_ranges  0x0000000000003480      0x138 build/samus/RO/driver/battery/smart.o
 .debug_ranges  0x00000000000035b8      0x120 build/samus/RO/driver/charger/bq24773.o
 .debug_ranges  0x00000000000036d8       0x58 build/samus/RO/driver/temp_sensor/tmp006.o
 .debug_ranges  0x0000000000003730      0x140 build/samus/RO/power/common.o

.debug_line     0x0000000000000000    0x112e2
 .debug_line    0x0000000000000000      0x2ff build/samus/RO/board/samus/board.o
 .debug_line    0x00000000000002ff      0x3c1 build/samus/RO/board/samus/extpower.o
 .debug_line    0x00000000000006c0      0x25c build/samus/RO/board/samus/panel.o
 .debug_line    0x000000000000091c      0x3ea build/samus/RO/board/samus/power_sequence.o
 .debug_line    0x0000000000000d06      0x30b build/samus/RO/chip/lm4/adc.o
 .debug_line    0x0000000000001011       0x9f build/samus/RO/chip/lm4/chip_temp_sensor.o
 .debug_line    0x00000000000010b0      0x34a build/samus/RO/chip/lm4/clock.o
 .debug_line    0x00000000000013fa      0x29f build/samus/RO/chip/lm4/fan.o
 .debug_line    0x0000000000001699      0x295 build/samus/RO/chip/lm4/flash.o
 .debug_line    0x000000000000192e      0x4f3 build/samus/RO/chip/lm4/gpio.o
 .debug_line    0x0000000000001e21      0x1e6 build/samus/RO/chip/lm4/hwtimer.o
 .debug_line    0x0000000000002007      0x4d5 build/samus/RO/chip/lm4/i2c.o
 .debug_line    0x00000000000024dc      0x192 build/samus/RO/chip/lm4/jtag.o
 .debug_line    0x000000000000266e      0x1d0 build/samus/RO/chip/lm4/keyboard_raw.o
 .debug_line    0x000000000000283e      0x5d5 build/samus/RO/chip/lm4/lpc.o
 .debug_line    0x0000000000002e13      0x1f2 build/samus/RO/chip/lm4/peci.o
 .debug_line    0x0000000000003005      0x18c build/samus/RO/chip/lm4/pwm.o
 .debug_line    0x0000000000003191      0x4fa build/samus/RO/chip/lm4/system.o
 .debug_line    0x000000000000368b      0x391 build/samus/RO/chip/lm4/uart.o
 .debug_line    0x0000000000003a1c      0x18e build/samus/RO/chip/lm4/watchdog.o
 .debug_line    0x0000000000003baa      0x201 build/samus/RO/common/acpi.o
 .debug_line    0x0000000000003dab      0x17d build/samus/RO/common/adc.o
 .debug_line    0x0000000000003f28      0x20d build/samus/RO/common/als.o
 .debug_line    0x0000000000004135      0x3af build/samus/RO/common/battery.o
 .debug_line    0x00000000000044e4      0x763 build/samus/RO/common/charge_state_v2.o
 .debug_line    0x0000000000004c47      0x274 build/samus/RO/common/charger.o
 .debug_line    0x0000000000004ebb       0xab build/samus/RO/common/chipset.o
 .debug_line    0x0000000000004f66      0x423 build/samus/RO/common/console.o
 .debug_line    0x0000000000005389      0x2b1 build/samus/RO/common/console_output.o
 .debug_line    0x000000000000563a      0x4dd build/samus/RO/common/fan.o
 .debug_line    0x0000000000005b17      0x482 build/samus/RO/common/flash.o
 .debug_line    0x0000000000005f99       0xff build/samus/RO/common/fmap.o
 .debug_line    0x0000000000006098      0x2b8 build/samus/RO/common/gesture.o
 .debug_line    0x0000000000006350      0x313 build/samus/RO/common/gpio.o
 .debug_line    0x0000000000006663      0x230 build/samus/RO/common/hooks.o
 .debug_line    0x0000000000006893      0x4c3 build/samus/RO/common/host_command.o
 .debug_line    0x0000000000006d56      0x244 build/samus/RO/common/host_command_master.o
 .debug_line    0x0000000000006f9a      0x222 build/samus/RO/common/host_command_pd.o
 .debug_line    0x00000000000071bc      0x334 build/samus/RO/common/host_event_commands.o
 .debug_line    0x00000000000074f0      0x603 build/samus/RO/common/i2c.o
 .debug_line    0x0000000000007af3      0x7b8 build/samus/RO/common/keyboard_8042.o
 .debug_line    0x00000000000082ab      0x12e build/samus/RO/common/keyboard_8042_sharedlib.o
 .debug_line    0x00000000000083d9      0x5b1 build/samus/RO/common/keyboard_scan.o
 .debug_line    0x000000000000898a      0x2ec build/samus/RO/common/lb_common.o
 .debug_line    0x0000000000008c76      0x25c build/samus/RO/common/lid_switch.o
 .debug_line    0x0000000000008ed2      0xc56 build/samus/RO/common/lightbar.o
 .debug_line    0x0000000000009b28      0x1f6 build/samus/RO/common/main.o
 .debug_line    0x0000000000009d1e      0x271 build/samus/RO/common/math_util.o
 .debug_line    0x0000000000009f8f      0x1f1 build/samus/RO/common/memory_commands.o
 .debug_line    0x000000000000a180      0x22b build/samus/RO/common/motion_lid.o
 .debug_line    0x000000000000a3ab      0x6ec build/samus/RO/common/motion_sense.o
 .debug_line    0x000000000000aa97      0x2f7 build/samus/RO/common/panic_output.o
 .debug_line    0x000000000000ad8e      0x243 build/samus/RO/common/port80.o
 .debug_line    0x000000000000afd1      0x2b9 build/samus/RO/common/power_button.o
 .debug_line    0x000000000000b28a      0x3a7 build/samus/RO/common/power_button_x86.o
 .debug_line    0x000000000000b631      0x2fa build/samus/RO/common/printf.o
 .debug_line    0x000000000000b92b      0x108 build/samus/RO/common/pwm.o
 .debug_line    0x000000000000ba33      0x248 build/samus/RO/common/pwm_kblight.o
 .debug_line    0x000000000000bc7b      0x33b build/samus/RO/common/queue.o
 .debug_line    0x000000000000bfb6      0x205 build/samus/RO/common/sha256.o
 .debug_line    0x000000000000c1bb      0x1a6 build/samus/RO/common/shared_mem.o
 .debug_line    0x000000000000c361      0x1fb build/samus/RO/common/switch.o
 .debug_line    0x000000000000c55c      0x864 build/samus/RO/common/system.o
 .debug_line    0x000000000000cdc0      0x251 build/samus/RO/common/temp_sensor.o
 .debug_line    0x000000000000d011      0x46b build/samus/RO/common/thermal.o
 .debug_line    0x000000000000d47c      0x1ae build/samus/RO/common/throttle_ap.o
 .debug_line    0x000000000000d62a      0x3b4 build/samus/RO/common/timer.o
 .debug_line    0x000000000000d9de      0x33f build/samus/RO/common/uart_buffering.o
 .debug_line    0x000000000000dd1d      0x2c0 build/samus/RO/common/usb_port_power_smart.o
 .debug_line    0x000000000000dfdd      0x47c build/samus/RO/common/util.o
 .debug_line    0x000000000000e459      0x30a build/samus/RO/common/vboot_hash.o
 .debug_line    0x000000000000e763      0x139 build/samus/RO/common/version.o
 .debug_line    0x000000000000e89c      0x210 build/samus/RO/common/wireless.o
 .debug_line    0x000000000000eaac      0x10a build/samus/RO/core/cortex-m/cpu.o
 .debug_line    0x000000000000ebb6       0x7b build/samus/RO/core/cortex-m/init.o
 .debug_line    0x000000000000ec31      0x1e8 build/samus/RO/core/cortex-m/mpu.o
 .debug_line    0x000000000000ee19      0x35f build/samus/RO/core/cortex-m/panic.o
 .debug_line    0x000000000000f178       0x6a build/samus/RO/core/cortex-m/switch.o
 .debug_line    0x000000000000f1e2      0x572 build/samus/RO/core/cortex-m/task.o
 .debug_line    0x000000000000f754       0x94 build/samus/RO/core/cortex-m/uldivmod.o
 .debug_line    0x000000000000f7e8      0x14c build/samus/RO/core/cortex-m/watchdog.o
 .debug_line    0x000000000000f934      0x3ed build/samus/RO/driver/accel_kionix.o
 .debug_line    0x000000000000fd21      0x406 build/samus/RO/driver/accelgyro_lsm6ds0.o
 .debug_line    0x0000000000010127       0x7e build/samus/RO/driver/als_isl29035.o
 .debug_line    0x00000000000101a5      0x2a8 build/samus/RO/driver/battery/samus.o
 .debug_line    0x000000000001044d      0x3c9 build/samus/RO/driver/battery/smart.o
 .debug_line    0x0000000000010816      0x2e0 build/samus/RO/driver/charger/bq24773.o
 .debug_line    0x0000000000010af6      0x346 build/samus/RO/driver/temp_sensor/tmp006.o
 .debug_line    0x0000000000010e3c      0x4a6 build/samus/RO/power/common.o

.debug_str      0x0000000000000000     0xee08
 .debug_str     0x0000000000000000     0x1c1a build/samus/RO/board/samus/board.o
                                       0x1d6d (size before relaxing)
 .debug_str     0x0000000000001c1a      0xbbf build/samus/RO/board/samus/extpower.o
                                       0x1939 (size before relaxing)
 .debug_str     0x00000000000027d9      0x2fa build/samus/RO/board/samus/panel.o
                                       0x1132 (size before relaxing)
 .debug_str     0x0000000000002ad3      0x3ed build/samus/RO/board/samus/power_sequence.o
                                       0x105e (size before relaxing)
 .debug_str     0x0000000000002ec0      0x2fe build/samus/RO/chip/lm4/adc.o
                                        0xa5d (size before relaxing)
 .debug_str     0x00000000000031be       0x70 build/samus/RO/chip/lm4/chip_temp_sensor.o
                                        0x5bb (size before relaxing)
 .debug_str     0x000000000000322e      0x2aa build/samus/RO/chip/lm4/clock.o
                                       0x105f (size before relaxing)
 .debug_str     0x00000000000034d8      0x169 build/samus/RO/chip/lm4/fan.o
                                        0x5f7 (size before relaxing)
 .debug_str     0x0000000000003641      0x1b7 build/samus/RO/chip/lm4/flash.o
                                        0x6f3 (size before relaxing)
 .debug_str     0x00000000000037f8      0x32e build/samus/RO/chip/lm4/gpio.o
                                        0xf47 (size before relaxing)
 .debug_str     0x0000000000003b26       0xff build/samus/RO/chip/lm4/hwtimer.o
                                        0x5d5 (size before relaxing)
 .debug_str     0x0000000000003c25      0x27d build/samus/RO/chip/lm4/i2c.o
                                       0x137d (size before relaxing)
 .debug_str     0x0000000000003ea2       0x2d build/samus/RO/chip/lm4/jtag.o
                                        0x9a7 (size before relaxing)
 .debug_str     0x0000000000003ecf       0xfe build/samus/RO/chip/lm4/keyboard_raw.o
                                        0x47f (size before relaxing)
 .debug_str     0x0000000000003fcd      0x6b2 build/samus/RO/chip/lm4/lpc.o
                                       0x1d52 (size before relaxing)
 .debug_str     0x000000000000467f      0x109 build/samus/RO/chip/lm4/peci.o
                                        0xbe0 (size before relaxing)
 .debug_str     0x0000000000004788       0x5e build/samus/RO/chip/lm4/pwm.o
                                        0x45a (size before relaxing)
 .debug_str     0x00000000000047e6      0x40c build/samus/RO/chip/lm4/system.o
                                        0xec0 (size before relaxing)
 .debug_str     0x0000000000004bf2      0x17d build/samus/RO/chip/lm4/uart.o
                                        0xeff (size before relaxing)
 .debug_str     0x0000000000004d6f       0xc1 build/samus/RO/chip/lm4/watchdog.o
                                        0x743 (size before relaxing)
 .debug_str     0x0000000000004e30      0x18b build/samus/RO/common/acpi.o
                                        0x745 (size before relaxing)
 .debug_str     0x0000000000004fbb       0x54 build/samus/RO/common/adc.o
                                        0x6fd (size before relaxing)
 .debug_str     0x000000000000500f       0xbe build/samus/RO/common/als.o
                                        0xad6 (size before relaxing)
 .debug_str     0x00000000000050cd      0x3e3 build/samus/RO/common/battery.o
                                        0xf20 (size before relaxing)
 .debug_str     0x00000000000054b0      0xcaf build/samus/RO/common/charge_state_v2.o
                                       0x20f0 (size before relaxing)
 .debug_str     0x000000000000615f      0x148 build/samus/RO/common/charger.o
                                        0xaff (size before relaxing)
 .debug_str     0x00000000000062a7       0x96 build/samus/RO/common/chipset.o
                                        0x628 (size before relaxing)
 .debug_str     0x000000000000633d      0x31b build/samus/RO/common/console.o
                                        0xb3a (size before relaxing)
 .debug_str     0x0000000000006658      0x1bd build/samus/RO/common/console_output.o
                                        0x7c6 (size before relaxing)
 .debug_str     0x0000000000006815      0x461 build/samus/RO/common/fan.o
                                       0x18de (size before relaxing)
 .debug_str     0x0000000000006c76      0x4a2 build/samus/RO/common/flash.o
                                       0x13e3 (size before relaxing)
 .debug_str     0x0000000000007118       0xff build/samus/RO/common/fmap.o
                                        0x369 (size before relaxing)
 .debug_str     0x0000000000007217      0x26c build/samus/RO/common/gesture.o
                                        0xd54 (size before relaxing)
 .debug_str     0x0000000000007483      0x1fa build/samus/RO/common/gpio.o
                                       0x12f1 (size before relaxing)
 .debug_str     0x000000000000767d      0x396 build/samus/RO/common/hooks.o
                                        0xc88 (size before relaxing)
 .debug_str     0x0000000000007a13      0x6f0 build/samus/RO/common/host_command.o
                                       0x152b (size before relaxing)
 .debug_str     0x0000000000008103      0x100 build/samus/RO/common/host_command_master.o
                                        0x9da (size before relaxing)
 .debug_str     0x0000000000008203      0x239 build/samus/RO/common/host_command_pd.o
                                        0x936 (size before relaxing)
 .debug_str     0x000000000000843c      0x3a0 build/samus/RO/common/host_event_commands.o
                                       0x1063 (size before relaxing)
 .debug_str     0x00000000000087dc      0x2e2 build/samus/RO/common/i2c.o
                                       0x15dd (size before relaxing)
 .debug_str     0x0000000000008abe      0x8b1 build/samus/RO/common/keyboard_8042.o
                                       0x19a8 (size before relaxing)
 .debug_str     0x000000000000936f       0x36 build/samus/RO/common/keyboard_8042_sharedlib.o
                                        0x3dc (size before relaxing)
 .debug_str     0x00000000000093a5      0x4a5 build/samus/RO/common/keyboard_scan.o
                                       0x1671 (size before relaxing)
 .debug_str     0x000000000000984a      0x4e4 build/samus/RO/common/lb_common.o
                                        0xbba (size before relaxing)
 .debug_str     0x0000000000009d2e      0x178 build/samus/RO/common/lid_switch.o
                                       0x14f2 (size before relaxing)
 .debug_str     0x0000000000009ea6      0xc66 build/samus/RO/common/lightbar.o
                                       0x21ff (size before relaxing)
 .debug_str     0x000000000000ab0c       0xa5 build/samus/RO/common/main.o
                                        0x4f0 (size before relaxing)
 .debug_str     0x000000000000abb1       0xba build/samus/RO/common/math_util.o
                                        0x305 (size before relaxing)
 .debug_str     0x000000000000ac6b       0xc1 build/samus/RO/common/memory_commands.o
                                        0x6ba (size before relaxing)
 .debug_str     0x000000000000ad2c      0x468 build/samus/RO/common/motion_lid.o
                                        0xe9e (size before relaxing)
 .debug_str     0x000000000000b194      0x58b build/samus/RO/common/motion_sense.o
                                       0x1b76 (size before relaxing)
 .debug_str     0x000000000000b71f      0x1b0 build/samus/RO/common/panic_output.o
                                        0xea6 (size before relaxing)
 .debug_str     0x000000000000b8cf      0x14c build/samus/RO/common/port80.o
                                        0xa92 (size before relaxing)
 .debug_str     0x000000000000ba1b      0x15b build/samus/RO/common/power_button.o
                                       0x13e2 (size before relaxing)
 .debug_str     0x000000000000bb76      0x2a8 build/samus/RO/common/power_button_x86.o
                                       0x11cd (size before relaxing)
 .debug_str     0x000000000000be1e       0x81 build/samus/RO/common/printf.o
                                        0x50d (size before relaxing)
 .debug_str     0x000000000000be9f       0x6f build/samus/RO/common/pwm.o
                                        0x9b0 (size before relaxing)
 .debug_str     0x000000000000bf0e      0x245 build/samus/RO/common/pwm_kblight.o
                                        0xd28 (size before relaxing)
 .debug_str     0x000000000000c153       0xe7 build/samus/RO/common/queue.o
                                        0x446 (size before relaxing)
 .debug_str     0x000000000000c23a       0xcd build/samus/RO/common/sha256.o
                                        0x30c (size before relaxing)
 .debug_str     0x000000000000c307       0x9c build/samus/RO/common/shared_mem.o
                                        0x76b (size before relaxing)
 .debug_str     0x000000000000c3a3      0x103 build/samus/RO/common/switch.o
                                        0xe75 (size before relaxing)
 .debug_str     0x000000000000c4a6      0x748 build/samus/RO/common/system.o
                                       0x1d51 (size before relaxing)
 .debug_str     0x000000000000cbee      0x154 build/samus/RO/common/temp_sensor.o
                                        0xe16 (size before relaxing)
 .debug_str     0x000000000000cd42      0x3d4 build/samus/RO/common/thermal.o
                                       0x1457 (size before relaxing)
 .debug_str     0x000000000000d116       0x87 build/samus/RO/common/throttle_ap.o
                                        0x80e (size before relaxing)
 .debug_str     0x000000000000d19d      0x1bb build/samus/RO/common/timer.o
                                        0xba5 (size before relaxing)
 .debug_str     0x000000000000d358      0x1f5 build/samus/RO/common/uart_buffering.o
                                        0xa3b (size before relaxing)
 .debug_str     0x000000000000d54d      0x2ac build/samus/RO/common/usb_port_power_smart.o
                                       0x1272 (size before relaxing)
 .debug_str     0x000000000000d7f9       0x9f build/samus/RO/common/util.o
                                        0x5a4 (size before relaxing)
 .debug_str     0x000000000000d898      0x26b build/samus/RO/common/vboot_hash.o
                                        0xdda (size before relaxing)
 .debug_str     0x000000000000db03       0x2f build/samus/RO/common/version.o
                                        0x287 (size before relaxing)
 .debug_str     0x000000000000db32      0x121 build/samus/RO/common/wireless.o
                                        0xf1e (size before relaxing)
 .debug_str     0x000000000000dc53      0x109 build/samus/RO/core/cortex-m/cpu.o
                                        0x31d (size before relaxing)
 .debug_str     0x000000000000dd5c       0xb7 build/samus/RO/core/cortex-m/mpu.o
                                        0x544 (size before relaxing)
 .debug_str     0x000000000000de13      0x190 build/samus/RO/core/cortex-m/panic.o
                                        0x722 (size before relaxing)
 .debug_str     0x000000000000dfa3      0x2b6 build/samus/RO/core/cortex-m/task.o
                                        0xce5 (size before relaxing)
 .debug_str     0x000000000000e259       0x3a build/samus/RO/core/cortex-m/watchdog.o
                                        0x2bf (size before relaxing)
 .debug_str     0x000000000000e293      0x10b build/samus/RO/driver/accel_kionix.o
                                        0xcce (size before relaxing)
 .debug_str     0x000000000000e39e      0x16b build/samus/RO/driver/accelgyro_lsm6ds0.o
                                        0xcf1 (size before relaxing)
 .debug_str     0x000000000000e509       0x36 build/samus/RO/driver/als_isl29035.o
                                        0x407 (size before relaxing)
 .debug_str     0x000000000000e53f      0x119 build/samus/RO/driver/battery/samus.o
                                        0xe82 (size before relaxing)
 .debug_str     0x000000000000e658      0x128 build/samus/RO/driver/battery/smart.o
                                        0xc31 (size before relaxing)
 .debug_str     0x000000000000e780       0x4d build/samus/RO/driver/charger/bq24773.o
                                        0x69d (size before relaxing)
 .debug_str     0x000000000000e7cd      0x2d4 build/samus/RO/driver/temp_sensor/tmp006.o
                                       0x126a (size before relaxing)
 .debug_str     0x000000000000eaa1      0x367 build/samus/RO/power/common.o
                                       0x177f (size before relaxing)

.comment        0x0000000000000000       0x4a
 .comment       0x0000000000000000       0x4a build/samus/RO/board/samus/board.o
                                         0x4b (size before relaxing)
 .comment       0x000000000000004a       0x4b build/samus/RO/board/samus/extpower.o
 .comment       0x000000000000004a       0x4b build/samus/RO/board/samus/panel.o
 .comment       0x000000000000004a       0x4b build/samus/RO/board/samus/power_sequence.o
 .comment       0x000000000000004a       0x4b build/samus/RO/chip/lm4/adc.o
 .comment       0x000000000000004a       0x4b build/samus/RO/chip/lm4/chip_temp_sensor.o
 .comment       0x000000000000004a       0x4b build/samus/RO/chip/lm4/clock.o
 .comment       0x000000000000004a       0x4b build/samus/RO/chip/lm4/fan.o
 .comment       0x000000000000004a       0x4b build/samus/RO/chip/lm4/flash.o
 .comment       0x000000000000004a       0x4b build/samus/RO/chip/lm4/gpio.o
 .comment       0x000000000000004a       0x4b build/samus/RO/chip/lm4/hwtimer.o
 .comment       0x000000000000004a       0x4b build/samus/RO/chip/lm4/i2c.o
 .comment       0x000000000000004a       0x4b build/samus/RO/chip/lm4/jtag.o
 .comment       0x000000000000004a       0x4b build/samus/RO/chip/lm4/keyboard_raw.o
 .comment       0x000000000000004a       0x4b build/samus/RO/chip/lm4/lpc.o
 .comment       0x000000000000004a       0x4b build/samus/RO/chip/lm4/peci.o
 .comment       0x000000000000004a       0x4b build/samus/RO/chip/lm4/pwm.o
 .comment       0x000000000000004a       0x4b build/samus/RO/chip/lm4/system.o
 .comment       0x000000000000004a       0x4b build/samus/RO/chip/lm4/uart.o
 .comment       0x000000000000004a       0x4b build/samus/RO/chip/lm4/watchdog.o
 .comment       0x000000000000004a       0x4b build/samus/RO/common/acpi.o
 .comment       0x000000000000004a       0x4b build/samus/RO/common/adc.o
 .comment       0x000000000000004a       0x4b build/samus/RO/common/als.o
 .comment       0x000000000000004a       0x4b build/samus/RO/common/battery.o
 .comment       0x000000000000004a       0x4b build/samus/RO/common/charge_state_v2.o
 .comment       0x000000000000004a       0x4b build/samus/RO/common/charger.o
 .comment       0x000000000000004a       0x4b build/samus/RO/common/chipset.o
 .comment       0x000000000000004a       0x4b build/samus/RO/common/console.o
 .comment       0x000000000000004a       0x4b build/samus/RO/common/console_output.o
 .comment       0x000000000000004a       0x4b build/samus/RO/common/fan.o
 .comment       0x000000000000004a       0x4b build/samus/RO/common/flash.o
 .comment       0x000000000000004a       0x4b build/samus/RO/common/fmap.o
 .comment       0x000000000000004a       0x4b build/samus/RO/common/gesture.o
 .comment       0x000000000000004a       0x4b build/samus/RO/common/gpio.o
 .comment       0x000000000000004a       0x4b build/samus/RO/common/hooks.o
 .comment       0x000000000000004a       0x4b build/samus/RO/common/host_command.o
 .comment       0x000000000000004a       0x4b build/samus/RO/common/host_command_master.o
 .comment       0x000000000000004a       0x4b build/samus/RO/common/host_command_pd.o
 .comment       0x000000000000004a       0x4b build/samus/RO/common/host_event_commands.o
 .comment       0x000000000000004a       0x4b build/samus/RO/common/i2c.o
 .comment       0x000000000000004a       0x4b build/samus/RO/common/keyboard_8042.o
 .comment       0x000000000000004a       0x4b build/samus/RO/common/keyboard_8042_sharedlib.o
 .comment       0x000000000000004a       0x4b build/samus/RO/common/keyboard_scan.o
 .comment       0x000000000000004a       0x4b build/samus/RO/common/lb_common.o
 .comment       0x000000000000004a       0x4b build/samus/RO/common/lid_switch.o
 .comment       0x000000000000004a       0x4b build/samus/RO/common/lightbar.o
 .comment       0x000000000000004a       0x4b build/samus/RO/common/main.o
 .comment       0x000000000000004a       0x4b build/samus/RO/common/math_util.o
 .comment       0x000000000000004a       0x4b build/samus/RO/common/memory_commands.o
 .comment       0x000000000000004a       0x4b build/samus/RO/common/motion_lid.o
 .comment       0x000000000000004a       0x4b build/samus/RO/common/motion_sense.o
 .comment       0x000000000000004a       0x4b build/samus/RO/common/panic_output.o
 .comment       0x000000000000004a       0x4b build/samus/RO/common/port80.o
 .comment       0x000000000000004a       0x4b build/samus/RO/common/power_button.o
 .comment       0x000000000000004a       0x4b build/samus/RO/common/power_button_x86.o
 .comment       0x000000000000004a       0x4b build/samus/RO/common/printf.o
 .comment       0x000000000000004a       0x4b build/samus/RO/common/pwm.o
 .comment       0x000000000000004a       0x4b build/samus/RO/common/pwm_kblight.o
 .comment       0x000000000000004a       0x4b build/samus/RO/common/queue.o
 .comment       0x000000000000004a       0x4b build/samus/RO/common/sha256.o
 .comment       0x000000000000004a       0x4b build/samus/RO/common/shared_mem.o
 .comment       0x000000000000004a       0x4b build/samus/RO/common/switch.o
 .comment       0x000000000000004a       0x4b build/samus/RO/common/system.o
 .comment       0x000000000000004a       0x4b build/samus/RO/common/temp_sensor.o
 .comment       0x000000000000004a       0x4b build/samus/RO/common/thermal.o
 .comment       0x000000000000004a       0x4b build/samus/RO/common/throttle_ap.o
 .comment       0x000000000000004a       0x4b build/samus/RO/common/timer.o
 .comment       0x000000000000004a       0x4b build/samus/RO/common/uart_buffering.o
 .comment       0x000000000000004a       0x4b build/samus/RO/common/usb_port_power_smart.o
 .comment       0x000000000000004a       0x4b build/samus/RO/common/util.o
 .comment       0x000000000000004a       0x4b build/samus/RO/common/vboot_hash.o
 .comment       0x000000000000004a       0x4b build/samus/RO/common/version.o
 .comment       0x000000000000004a       0x4b build/samus/RO/common/wireless.o
 .comment       0x000000000000004a       0x4b build/samus/RO/core/cortex-m/cpu.o
 .comment       0x000000000000004a       0x4b build/samus/RO/core/cortex-m/mpu.o
 .comment       0x000000000000004a       0x4b build/samus/RO/core/cortex-m/panic.o
 .comment       0x000000000000004a       0x4b build/samus/RO/core/cortex-m/task.o
 .comment       0x000000000000004a       0x4b build/samus/RO/core/cortex-m/watchdog.o
 .comment       0x000000000000004a       0x4b build/samus/RO/driver/accel_kionix.o
 .comment       0x000000000000004a       0x4b build/samus/RO/driver/accelgyro_lsm6ds0.o
 .comment       0x000000000000004a       0x4b build/samus/RO/driver/als_isl29035.o
 .comment       0x000000000000004a       0x4b build/samus/RO/driver/battery/samus.o
 .comment       0x000000000000004a       0x4b build/samus/RO/driver/battery/smart.o
 .comment       0x000000000000004a       0x4b build/samus/RO/driver/charger/bq24773.o
 .comment       0x000000000000004a       0x4b build/samus/RO/driver/temp_sensor/tmp006.o
 .comment       0x000000000000004a       0x4b build/samus/RO/power/common.o

.debug_frame    0x0000000000000000     0x64a0
 .debug_frame   0x0000000000000000       0x74 build/samus/RO/board/samus/board.o
 .debug_frame   0x0000000000000074      0x1a8 build/samus/RO/board/samus/extpower.o
 .debug_frame   0x000000000000021c       0xdc build/samus/RO/board/samus/panel.o
 .debug_frame   0x00000000000002f8      0x100 build/samus/RO/board/samus/power_sequence.o
 .debug_frame   0x00000000000003f8      0x10c build/samus/RO/chip/lm4/adc.o
 .debug_frame   0x0000000000000504       0x38 build/samus/RO/chip/lm4/chip_temp_sensor.o
 .debug_frame   0x000000000000053c      0x128 build/samus/RO/chip/lm4/clock.o
 .debug_frame   0x0000000000000664      0x110 build/samus/RO/chip/lm4/fan.o
 .debug_frame   0x0000000000000774       0xf0 build/samus/RO/chip/lm4/flash.o
 .debug_frame   0x0000000000000864      0x2b4 build/samus/RO/chip/lm4/gpio.o
 .debug_frame   0x0000000000000b18       0xb4 build/samus/RO/chip/lm4/hwtimer.o
 .debug_frame   0x0000000000000bcc      0x214 build/samus/RO/chip/lm4/i2c.o
 .debug_frame   0x0000000000000de0       0x3c build/samus/RO/chip/lm4/jtag.o
 .debug_frame   0x0000000000000e1c       0x8c build/samus/RO/chip/lm4/keyboard_raw.o
 .debug_frame   0x0000000000000ea8      0x2a8 build/samus/RO/chip/lm4/lpc.o
 .debug_frame   0x0000000000001150       0xa4 build/samus/RO/chip/lm4/peci.o
 .debug_frame   0x00000000000011f4       0x80 build/samus/RO/chip/lm4/pwm.o
 .debug_frame   0x0000000000001274      0x288 build/samus/RO/chip/lm4/system.o
 .debug_frame   0x00000000000014fc      0x1e0 build/samus/RO/chip/lm4/uart.o
 .debug_frame   0x00000000000016dc       0x6c build/samus/RO/chip/lm4/watchdog.o
 .debug_frame   0x0000000000001748       0x48 build/samus/RO/common/acpi.o
 .debug_frame   0x0000000000001790       0x2c build/samus/RO/common/adc.o
 .debug_frame   0x00000000000017bc       0x94 build/samus/RO/common/als.o
 .debug_frame   0x0000000000001850      0x118 build/samus/RO/common/battery.o
 .debug_frame   0x0000000000001968      0x20c build/samus/RO/common/charge_state_v2.o
 .debug_frame   0x0000000000001b74       0xec build/samus/RO/common/charger.o
 .debug_frame   0x0000000000001c60       0x40 build/samus/RO/common/chipset.o
 .debug_frame   0x0000000000001ca0      0x108 build/samus/RO/common/console.o
 .debug_frame   0x0000000000001da8      0x114 build/samus/RO/common/console_output.o
 .debug_frame   0x0000000000001ebc      0x2a0 build/samus/RO/common/fan.o
 .debug_frame   0x000000000000215c      0x1f8 build/samus/RO/common/flash.o
 .debug_frame   0x0000000000002354       0x7c build/samus/RO/common/gesture.o
 .debug_frame   0x00000000000023d0      0x110 build/samus/RO/common/gpio.o
 .debug_frame   0x00000000000024e0       0x7c build/samus/RO/common/hooks.o
 .debug_frame   0x000000000000255c      0x1f4 build/samus/RO/common/host_command.o
 .debug_frame   0x0000000000002750       0x68 build/samus/RO/common/host_command_master.o
 .debug_frame   0x00000000000027b8       0x78 build/samus/RO/common/host_command_pd.o
 .debug_frame   0x0000000000002830      0x1b0 build/samus/RO/common/host_event_commands.o
 .debug_frame   0x00000000000029e0      0x2e8 build/samus/RO/common/i2c.o
 .debug_frame   0x0000000000002cc8      0x27c build/samus/RO/common/keyboard_8042.o
 .debug_frame   0x0000000000002f44      0x1d8 build/samus/RO/common/keyboard_scan.o
 .debug_frame   0x000000000000311c      0x174 build/samus/RO/common/lb_common.o
 .debug_frame   0x0000000000003290      0x108 build/samus/RO/common/lid_switch.o
 .debug_frame   0x0000000000003398      0x58c build/samus/RO/common/lightbar.o
 .debug_frame   0x0000000000003924       0x30 build/samus/RO/common/main.o
 .debug_frame   0x0000000000003954       0xa4 build/samus/RO/common/math_util.o
 .debug_frame   0x00000000000039f8       0x5c build/samus/RO/common/memory_commands.o
 .debug_frame   0x0000000000003a54       0x78 build/samus/RO/common/motion_lid.o
 .debug_frame   0x0000000000003acc      0x28c build/samus/RO/common/motion_sense.o
 .debug_frame   0x0000000000003d58      0x150 build/samus/RO/common/panic_output.o
 .debug_frame   0x0000000000003ea8       0x7c build/samus/RO/common/port80.o
 .debug_frame   0x0000000000003f24       0xdc build/samus/RO/common/power_button.o
 .debug_frame   0x0000000000004000      0x150 build/samus/RO/common/power_button_x86.o
 .debug_frame   0x0000000000004150       0x78 build/samus/RO/common/printf.o
 .debug_frame   0x00000000000041c8       0x60 build/samus/RO/common/pwm.o
 .debug_frame   0x0000000000004228       0xcc build/samus/RO/common/pwm_kblight.o
 .debug_frame   0x00000000000042f4      0x234 build/samus/RO/common/queue.o
 .debug_frame   0x0000000000004528       0x90 build/samus/RO/common/sha256.o
 .debug_frame   0x00000000000045b8       0x6c build/samus/RO/common/shared_mem.o
 .debug_frame   0x0000000000004624       0x80 build/samus/RO/common/switch.o
 .debug_frame   0x00000000000046a4      0x390 build/samus/RO/common/system.o
 .debug_frame   0x0000000000004a34       0x9c build/samus/RO/common/temp_sensor.o
 .debug_frame   0x0000000000004ad0      0x144 build/samus/RO/common/thermal.o
 .debug_frame   0x0000000000004c14       0x50 build/samus/RO/common/throttle_ap.o
 .debug_frame   0x0000000000004c64      0x1c8 build/samus/RO/common/timer.o
 .debug_frame   0x0000000000004e2c      0x178 build/samus/RO/common/uart_buffering.o
 .debug_frame   0x0000000000004fa4      0x118 build/samus/RO/common/usb_port_power_smart.o
 .debug_frame   0x00000000000050bc      0x24c build/samus/RO/common/util.o
 .debug_frame   0x0000000000005308      0x12c build/samus/RO/common/vboot_hash.o
 .debug_frame   0x0000000000005434       0x28 build/samus/RO/common/version.o
 .debug_frame   0x000000000000545c       0xa0 build/samus/RO/common/wireless.o
 .debug_frame   0x00000000000054fc       0x20 build/samus/RO/core/cortex-m/cpu.o
 .debug_frame   0x000000000000551c       0xc0 build/samus/RO/core/cortex-m/mpu.o
 .debug_frame   0x00000000000055dc      0x120 build/samus/RO/core/cortex-m/panic.o
 .debug_frame   0x00000000000056fc      0x2c0 build/samus/RO/core/cortex-m/task.o
 .debug_frame   0x00000000000059bc       0x2c build/samus/RO/core/cortex-m/watchdog.o
 .debug_frame   0x00000000000059e8      0x17c build/samus/RO/driver/accel_kionix.o
 .debug_frame   0x0000000000005b64      0x124 build/samus/RO/driver/accelgyro_lsm6ds0.o
 .debug_frame   0x0000000000005c88       0x3c build/samus/RO/driver/als_isl29035.o
 .debug_frame   0x0000000000005cc4       0xbc build/samus/RO/driver/battery/samus.o
 .debug_frame   0x0000000000005d80      0x294 build/samus/RO/driver/battery/smart.o
 .debug_frame   0x0000000000006014      0x16c build/samus/RO/driver/charger/bq24773.o
 .debug_frame   0x0000000000006180       0xe0 build/samus/RO/driver/temp_sensor/tmp006.o
 .debug_frame   0x0000000000006260      0x240 build/samus/RO/power/common.o
